
BOOTLOADER1.elf:     file format elf32-littlearm

Sections:
Idx Name          Size      VMA       LMA       File off  Algn
  0 .isr_vector   000001c8  08000000  08000000  00001000  2**0
                  CONTENTS, ALLOC, LOAD, READONLY, DATA
  1 .text         00006f6c  080001c8  080001c8  000011c8  2**2
                  CONTENTS, ALLOC, LOAD, READONLY, CODE
  2 .rodata       00000dc8  08007134  08007134  00008134  2**2
                  CONTENTS, ALLOC, LOAD, READONLY, DATA
  3 .ARM.extab    00000000  08007efc  08007efc  0000900c  2**0
                  CONTENTS, READONLY
  4 .ARM          00000008  08007efc  08007efc  00008efc  2**2
                  CONTENTS, ALLOC, LOAD, READONLY, DATA
  5 .preinit_array 00000000  08007f04  08007f04  0000900c  2**0
                  CONTENTS, ALLOC, LOAD, DATA
  6 .init_array   00000004  08007f04  08007f04  00008f04  2**2
                  CONTENTS, ALLOC, LOAD, READONLY, DATA
  7 .fini_array   00000004  08007f08  08007f08  00008f08  2**2
                  CONTENTS, ALLOC, LOAD, READONLY, DATA
  8 .data         0000000c  20000000  08007f0c  00009000  2**2
                  CONTENTS, ALLOC, LOAD, DATA
  9 .bss          000000d4  2000000c  08007f18  0000900c  2**2
                  ALLOC
 10 ._user_heap_stack 00000600  200000e0  08007f18  000090e0  2**0
                  ALLOC
 11 .ARM.attributes 00000030  00000000  00000000  0000900c  2**0
                  CONTENTS, READONLY
 12 .debug_info   0000e99e  00000000  00000000  0000903c  2**0
                  CONTENTS, READONLY, DEBUGGING, OCTETS
 13 .debug_abbrev 00002bde  00000000  00000000  000179da  2**0
                  CONTENTS, READONLY, DEBUGGING, OCTETS
 14 .debug_aranges 00000be8  00000000  00000000  0001a5b8  2**3
                  CONTENTS, READONLY, DEBUGGING, OCTETS
 15 .debug_rnglists 000008f4  00000000  00000000  0001b1a0  2**0
                  CONTENTS, READONLY, DEBUGGING, OCTETS
 16 .debug_macro  00026042  00000000  00000000  0001ba94  2**0
                  CONTENTS, READONLY, DEBUGGING, OCTETS
 17 .debug_line   000115d0  00000000  00000000  00041ad6  2**0
                  CONTENTS, READONLY, DEBUGGING, OCTETS
 18 .debug_str    000e6e6b  00000000  00000000  000530a6  2**0
                  CONTENTS, READONLY, DEBUGGING, OCTETS
 19 .comment      00000043  00000000  00000000  00139f11  2**0
                  CONTENTS, READONLY
 20 .debug_frame  00002e78  00000000  00000000  00139f54  2**2
                  CONTENTS, READONLY, DEBUGGING, OCTETS
 21 .debug_line_str 00000099  00000000  00000000  0013cdcc  2**0
                  CONTENTS, READONLY, DEBUGGING, OCTETS

Disassembly of section .text:

080001c8 <__do_global_dtors_aux>:
 80001c8:	b510      	push	{r4, lr}
 80001ca:	4c05      	ldr	r4, [pc, #20]	@ (80001e0 <__do_global_dtors_aux+0x18>)
 80001cc:	7823      	ldrb	r3, [r4, #0]
 80001ce:	b933      	cbnz	r3, 80001de <__do_global_dtors_aux+0x16>
 80001d0:	4b04      	ldr	r3, [pc, #16]	@ (80001e4 <__do_global_dtors_aux+0x1c>)
 80001d2:	b113      	cbz	r3, 80001da <__do_global_dtors_aux+0x12>
 80001d4:	4804      	ldr	r0, [pc, #16]	@ (80001e8 <__do_global_dtors_aux+0x20>)
 80001d6:	f3af 8000 	nop.w
 80001da:	2301      	movs	r3, #1
 80001dc:	7023      	strb	r3, [r4, #0]
 80001de:	bd10      	pop	{r4, pc}
 80001e0:	2000000c 	.word	0x2000000c
 80001e4:	00000000 	.word	0x00000000
 80001e8:	0800711c 	.word	0x0800711c

080001ec <frame_dummy>:
 80001ec:	b508      	push	{r3, lr}
 80001ee:	4b03      	ldr	r3, [pc, #12]	@ (80001fc <frame_dummy+0x10>)
 80001f0:	b11b      	cbz	r3, 80001fa <frame_dummy+0xe>
 80001f2:	4903      	ldr	r1, [pc, #12]	@ (8000200 <frame_dummy+0x14>)
 80001f4:	4803      	ldr	r0, [pc, #12]	@ (8000204 <frame_dummy+0x18>)
 80001f6:	f3af 8000 	nop.w
 80001fa:	bd08      	pop	{r3, pc}
 80001fc:	00000000 	.word	0x00000000
 8000200:	20000010 	.word	0x20000010
 8000204:	0800711c 	.word	0x0800711c

08000208 <__aeabi_uldivmod>:
 8000208:	b953      	cbnz	r3, 8000220 <__aeabi_uldivmod+0x18>
 800020a:	b94a      	cbnz	r2, 8000220 <__aeabi_uldivmod+0x18>
 800020c:	2900      	cmp	r1, #0
 800020e:	bf08      	it	eq
 8000210:	2800      	cmpeq	r0, #0
 8000212:	bf1c      	itt	ne
 8000214:	f04f 31ff 	movne.w	r1, #4294967295
 8000218:	f04f 30ff 	movne.w	r0, #4294967295
 800021c:	f000 b988 	b.w	8000530 <__aeabi_idiv0>
 8000220:	f1ad 0c08 	sub.w	ip, sp, #8
 8000224:	e96d ce04 	strd	ip, lr, [sp, #-16]!
 8000228:	f000 f806 	bl	8000238 <__udivmoddi4>
 800022c:	f8dd e004 	ldr.w	lr, [sp, #4]
 8000230:	e9dd 2302 	ldrd	r2, r3, [sp, #8]
 8000234:	b004      	add	sp, #16
 8000236:	4770      	bx	lr

08000238 <__udivmoddi4>:
 8000238:	e92d 47f0 	stmdb	sp!, {r4, r5, r6, r7, r8, r9, sl, lr}
 800023c:	9d08      	ldr	r5, [sp, #32]
 800023e:	468e      	mov	lr, r1
 8000240:	4604      	mov	r4, r0
 8000242:	4688      	mov	r8, r1
 8000244:	2b00      	cmp	r3, #0
 8000246:	d14a      	bne.n	80002de <__udivmoddi4+0xa6>
 8000248:	428a      	cmp	r2, r1
 800024a:	4617      	mov	r7, r2
 800024c:	d962      	bls.n	8000314 <__udivmoddi4+0xdc>
 800024e:	fab2 f682 	clz	r6, r2
 8000252:	b14e      	cbz	r6, 8000268 <__udivmoddi4+0x30>
 8000254:	f1c6 0320 	rsb	r3, r6, #32
 8000258:	fa01 f806 	lsl.w	r8, r1, r6
 800025c:	fa20 f303 	lsr.w	r3, r0, r3
 8000260:	40b7      	lsls	r7, r6
 8000262:	ea43 0808 	orr.w	r8, r3, r8
 8000266:	40b4      	lsls	r4, r6
 8000268:	ea4f 4e17 	mov.w	lr, r7, lsr #16
 800026c:	fa1f fc87 	uxth.w	ip, r7
 8000270:	fbb8 f1fe 	udiv	r1, r8, lr
 8000274:	0c23      	lsrs	r3, r4, #16
 8000276:	fb0e 8811 	mls	r8, lr, r1, r8
 800027a:	ea43 4308 	orr.w	r3, r3, r8, lsl #16
 800027e:	fb01 f20c 	mul.w	r2, r1, ip
 8000282:	429a      	cmp	r2, r3
 8000284:	d909      	bls.n	800029a <__udivmoddi4+0x62>
 8000286:	18fb      	adds	r3, r7, r3
 8000288:	f101 30ff 	add.w	r0, r1, #4294967295
 800028c:	f080 80ea 	bcs.w	8000464 <__udivmoddi4+0x22c>
 8000290:	429a      	cmp	r2, r3
 8000292:	f240 80e7 	bls.w	8000464 <__udivmoddi4+0x22c>
 8000296:	3902      	subs	r1, #2
 8000298:	443b      	add	r3, r7
 800029a:	1a9a      	subs	r2, r3, r2
 800029c:	b2a3      	uxth	r3, r4
 800029e:	fbb2 f0fe 	udiv	r0, r2, lr
 80002a2:	fb0e 2210 	mls	r2, lr, r0, r2
 80002a6:	ea43 4302 	orr.w	r3, r3, r2, lsl #16
 80002aa:	fb00 fc0c 	mul.w	ip, r0, ip
 80002ae:	459c      	cmp	ip, r3
 80002b0:	d909      	bls.n	80002c6 <__udivmoddi4+0x8e>
 80002b2:	18fb      	adds	r3, r7, r3
 80002b4:	f100 32ff 	add.w	r2, r0, #4294967295
 80002b8:	f080 80d6 	bcs.w	8000468 <__udivmoddi4+0x230>
 80002bc:	459c      	cmp	ip, r3
 80002be:	f240 80d3 	bls.w	8000468 <__udivmoddi4+0x230>
 80002c2:	443b      	add	r3, r7
 80002c4:	3802      	subs	r0, #2
 80002c6:	ea40 4001 	orr.w	r0, r0, r1, lsl #16
 80002ca:	eba3 030c 	sub.w	r3, r3, ip
 80002ce:	2100      	movs	r1, #0
 80002d0:	b11d      	cbz	r5, 80002da <__udivmoddi4+0xa2>
 80002d2:	40f3      	lsrs	r3, r6
 80002d4:	2200      	movs	r2, #0
 80002d6:	e9c5 3200 	strd	r3, r2, [r5]
 80002da:	e8bd 87f0 	ldmia.w	sp!, {r4, r5, r6, r7, r8, r9, sl, pc}
 80002de:	428b      	cmp	r3, r1
 80002e0:	d905      	bls.n	80002ee <__udivmoddi4+0xb6>
 80002e2:	b10d      	cbz	r5, 80002e8 <__udivmoddi4+0xb0>
 80002e4:	e9c5 0100 	strd	r0, r1, [r5]
 80002e8:	2100      	movs	r1, #0
 80002ea:	4608      	mov	r0, r1
 80002ec:	e7f5      	b.n	80002da <__udivmoddi4+0xa2>
 80002ee:	fab3 f183 	clz	r1, r3
 80002f2:	2900      	cmp	r1, #0
 80002f4:	d146      	bne.n	8000384 <__udivmoddi4+0x14c>
 80002f6:	4573      	cmp	r3, lr
 80002f8:	d302      	bcc.n	8000300 <__udivmoddi4+0xc8>
 80002fa:	4282      	cmp	r2, r0
 80002fc:	f200 8105 	bhi.w	800050a <__udivmoddi4+0x2d2>
 8000300:	1a84      	subs	r4, r0, r2
 8000302:	eb6e 0203 	sbc.w	r2, lr, r3
 8000306:	2001      	movs	r0, #1
 8000308:	4690      	mov	r8, r2
 800030a:	2d00      	cmp	r5, #0
 800030c:	d0e5      	beq.n	80002da <__udivmoddi4+0xa2>
 800030e:	e9c5 4800 	strd	r4, r8, [r5]
 8000312:	e7e2      	b.n	80002da <__udivmoddi4+0xa2>
 8000314:	2a00      	cmp	r2, #0
 8000316:	f000 8090 	beq.w	800043a <__udivmoddi4+0x202>
 800031a:	fab2 f682 	clz	r6, r2
 800031e:	2e00      	cmp	r6, #0
 8000320:	f040 80a4 	bne.w	800046c <__udivmoddi4+0x234>
 8000324:	1a8a      	subs	r2, r1, r2
 8000326:	0c03      	lsrs	r3, r0, #16
 8000328:	ea4f 4e17 	mov.w	lr, r7, lsr #16
 800032c:	b280      	uxth	r0, r0
 800032e:	b2bc      	uxth	r4, r7
 8000330:	2101      	movs	r1, #1
 8000332:	fbb2 fcfe 	udiv	ip, r2, lr
 8000336:	fb0e 221c 	mls	r2, lr, ip, r2
 800033a:	ea43 4302 	orr.w	r3, r3, r2, lsl #16
 800033e:	fb04 f20c 	mul.w	r2, r4, ip
 8000342:	429a      	cmp	r2, r3
 8000344:	d907      	bls.n	8000356 <__udivmoddi4+0x11e>
 8000346:	18fb      	adds	r3, r7, r3
 8000348:	f10c 38ff 	add.w	r8, ip, #4294967295
 800034c:	d202      	bcs.n	8000354 <__udivmoddi4+0x11c>
 800034e:	429a      	cmp	r2, r3
 8000350:	f200 80e0 	bhi.w	8000514 <__udivmoddi4+0x2dc>
 8000354:	46c4      	mov	ip, r8
 8000356:	1a9b      	subs	r3, r3, r2
 8000358:	fbb3 f2fe 	udiv	r2, r3, lr
 800035c:	fb0e 3312 	mls	r3, lr, r2, r3
 8000360:	ea40 4303 	orr.w	r3, r0, r3, lsl #16
 8000364:	fb02 f404 	mul.w	r4, r2, r4
 8000368:	429c      	cmp	r4, r3
 800036a:	d907      	bls.n	800037c <__udivmoddi4+0x144>
 800036c:	18fb      	adds	r3, r7, r3
 800036e:	f102 30ff 	add.w	r0, r2, #4294967295
 8000372:	d202      	bcs.n	800037a <__udivmoddi4+0x142>
 8000374:	429c      	cmp	r4, r3
 8000376:	f200 80ca 	bhi.w	800050e <__udivmoddi4+0x2d6>
 800037a:	4602      	mov	r2, r0
 800037c:	1b1b      	subs	r3, r3, r4
 800037e:	ea42 400c 	orr.w	r0, r2, ip, lsl #16
 8000382:	e7a5      	b.n	80002d0 <__udivmoddi4+0x98>
 8000384:	f1c1 0620 	rsb	r6, r1, #32
 8000388:	408b      	lsls	r3, r1
 800038a:	fa22 f706 	lsr.w	r7, r2, r6
 800038e:	431f      	orrs	r7, r3
 8000390:	fa0e f401 	lsl.w	r4, lr, r1
 8000394:	fa20 f306 	lsr.w	r3, r0, r6
 8000398:	fa2e fe06 	lsr.w	lr, lr, r6
 800039c:	ea4f 4917 	mov.w	r9, r7, lsr #16
 80003a0:	4323      	orrs	r3, r4
 80003a2:	fa00 f801 	lsl.w	r8, r0, r1
 80003a6:	fa1f fc87 	uxth.w	ip, r7
 80003aa:	fbbe f0f9 	udiv	r0, lr, r9
 80003ae:	0c1c      	lsrs	r4, r3, #16
 80003b0:	fb09 ee10 	mls	lr, r9, r0, lr
 80003b4:	ea44 440e 	orr.w	r4, r4, lr, lsl #16
 80003b8:	fb00 fe0c 	mul.w	lr, r0, ip
 80003bc:	45a6      	cmp	lr, r4
 80003be:	fa02 f201 	lsl.w	r2, r2, r1
 80003c2:	d909      	bls.n	80003d8 <__udivmoddi4+0x1a0>
 80003c4:	193c      	adds	r4, r7, r4
 80003c6:	f100 3aff 	add.w	sl, r0, #4294967295
 80003ca:	f080 809c 	bcs.w	8000506 <__udivmoddi4+0x2ce>
 80003ce:	45a6      	cmp	lr, r4
 80003d0:	f240 8099 	bls.w	8000506 <__udivmoddi4+0x2ce>
 80003d4:	3802      	subs	r0, #2
 80003d6:	443c      	add	r4, r7
 80003d8:	eba4 040e 	sub.w	r4, r4, lr
 80003dc:	fa1f fe83 	uxth.w	lr, r3
 80003e0:	fbb4 f3f9 	udiv	r3, r4, r9
 80003e4:	fb09 4413 	mls	r4, r9, r3, r4
 80003e8:	ea4e 4404 	orr.w	r4, lr, r4, lsl #16
 80003ec:	fb03 fc0c 	mul.w	ip, r3, ip
 80003f0:	45a4      	cmp	ip, r4
 80003f2:	d908      	bls.n	8000406 <__udivmoddi4+0x1ce>
 80003f4:	193c      	adds	r4, r7, r4
 80003f6:	f103 3eff 	add.w	lr, r3, #4294967295
 80003fa:	f080 8082 	bcs.w	8000502 <__udivmoddi4+0x2ca>
 80003fe:	45a4      	cmp	ip, r4
 8000400:	d97f      	bls.n	8000502 <__udivmoddi4+0x2ca>
 8000402:	3b02      	subs	r3, #2
 8000404:	443c      	add	r4, r7
 8000406:	ea43 4000 	orr.w	r0, r3, r0, lsl #16
 800040a:	eba4 040c 	sub.w	r4, r4, ip
 800040e:	fba0 ec02 	umull	lr, ip, r0, r2
 8000412:	4564      	cmp	r4, ip
 8000414:	4673      	mov	r3, lr
 8000416:	46e1      	mov	r9, ip
 8000418:	d362      	bcc.n	80004e0 <__udivmoddi4+0x2a8>
 800041a:	d05f      	beq.n	80004dc <__udivmoddi4+0x2a4>
 800041c:	b15d      	cbz	r5, 8000436 <__udivmoddi4+0x1fe>
 800041e:	ebb8 0203 	subs.w	r2, r8, r3
 8000422:	eb64 0409 	sbc.w	r4, r4, r9
 8000426:	fa04 f606 	lsl.w	r6, r4, r6
 800042a:	fa22 f301 	lsr.w	r3, r2, r1
 800042e:	431e      	orrs	r6, r3
 8000430:	40cc      	lsrs	r4, r1
 8000432:	e9c5 6400 	strd	r6, r4, [r5]
 8000436:	2100      	movs	r1, #0
 8000438:	e74f      	b.n	80002da <__udivmoddi4+0xa2>
 800043a:	fbb1 fcf2 	udiv	ip, r1, r2
 800043e:	0c01      	lsrs	r1, r0, #16
 8000440:	ea41 410e 	orr.w	r1, r1, lr, lsl #16
 8000444:	b280      	uxth	r0, r0
 8000446:	ea40 4201 	orr.w	r2, r0, r1, lsl #16
 800044a:	463b      	mov	r3, r7
 800044c:	4638      	mov	r0, r7
 800044e:	463c      	mov	r4, r7
 8000450:	46b8      	mov	r8, r7
 8000452:	46be      	mov	lr, r7
 8000454:	2620      	movs	r6, #32
 8000456:	fbb1 f1f7 	udiv	r1, r1, r7
 800045a:	eba2 0208 	sub.w	r2, r2, r8
 800045e:	ea41 410c 	orr.w	r1, r1, ip, lsl #16
 8000462:	e766      	b.n	8000332 <__udivmoddi4+0xfa>
 8000464:	4601      	mov	r1, r0
 8000466:	e718      	b.n	800029a <__udivmoddi4+0x62>
 8000468:	4610      	mov	r0, r2
 800046a:	e72c      	b.n	80002c6 <__udivmoddi4+0x8e>
 800046c:	f1c6 0220 	rsb	r2, r6, #32
 8000470:	fa2e f302 	lsr.w	r3, lr, r2
 8000474:	40b7      	lsls	r7, r6
 8000476:	40b1      	lsls	r1, r6
 8000478:	fa20 f202 	lsr.w	r2, r0, r2
 800047c:	ea4f 4e17 	mov.w	lr, r7, lsr #16
 8000480:	430a      	orrs	r2, r1
 8000482:	fbb3 f8fe 	udiv	r8, r3, lr
 8000486:	b2bc      	uxth	r4, r7
 8000488:	fb0e 3318 	mls	r3, lr, r8, r3
 800048c:	0c11      	lsrs	r1, r2, #16
 800048e:	ea41 4103 	orr.w	r1, r1, r3, lsl #16
 8000492:	fb08 f904 	mul.w	r9, r8, r4
 8000496:	40b0      	lsls	r0, r6
 8000498:	4589      	cmp	r9, r1
 800049a:	ea4f 4310 	mov.w	r3, r0, lsr #16
 800049e:	b280      	uxth	r0, r0
 80004a0:	d93e      	bls.n	8000520 <__udivmoddi4+0x2e8>
 80004a2:	1879      	adds	r1, r7, r1
 80004a4:	f108 3cff 	add.w	ip, r8, #4294967295
 80004a8:	d201      	bcs.n	80004ae <__udivmoddi4+0x276>
 80004aa:	4589      	cmp	r9, r1
 80004ac:	d81f      	bhi.n	80004ee <__udivmoddi4+0x2b6>
 80004ae:	eba1 0109 	sub.w	r1, r1, r9
 80004b2:	fbb1 f9fe 	udiv	r9, r1, lr
 80004b6:	fb09 f804 	mul.w	r8, r9, r4
 80004ba:	fb0e 1119 	mls	r1, lr, r9, r1
 80004be:	b292      	uxth	r2, r2
 80004c0:	ea42 4201 	orr.w	r2, r2, r1, lsl #16
 80004c4:	4542      	cmp	r2, r8
 80004c6:	d229      	bcs.n	800051c <__udivmoddi4+0x2e4>
 80004c8:	18ba      	adds	r2, r7, r2
 80004ca:	f109 31ff 	add.w	r1, r9, #4294967295
 80004ce:	d2c4      	bcs.n	800045a <__udivmoddi4+0x222>
 80004d0:	4542      	cmp	r2, r8
 80004d2:	d2c2      	bcs.n	800045a <__udivmoddi4+0x222>
 80004d4:	f1a9 0102 	sub.w	r1, r9, #2
 80004d8:	443a      	add	r2, r7
 80004da:	e7be      	b.n	800045a <__udivmoddi4+0x222>
 80004dc:	45f0      	cmp	r8, lr
 80004de:	d29d      	bcs.n	800041c <__udivmoddi4+0x1e4>
 80004e0:	ebbe 0302 	subs.w	r3, lr, r2
 80004e4:	eb6c 0c07 	sbc.w	ip, ip, r7
 80004e8:	3801      	subs	r0, #1
 80004ea:	46e1      	mov	r9, ip
 80004ec:	e796      	b.n	800041c <__udivmoddi4+0x1e4>
 80004ee:	eba7 0909 	sub.w	r9, r7, r9
 80004f2:	4449      	add	r1, r9
 80004f4:	f1a8 0c02 	sub.w	ip, r8, #2
 80004f8:	fbb1 f9fe 	udiv	r9, r1, lr
 80004fc:	fb09 f804 	mul.w	r8, r9, r4
 8000500:	e7db      	b.n	80004ba <__udivmoddi4+0x282>
 8000502:	4673      	mov	r3, lr
 8000504:	e77f      	b.n	8000406 <__udivmoddi4+0x1ce>
 8000506:	4650      	mov	r0, sl
 8000508:	e766      	b.n	80003d8 <__udivmoddi4+0x1a0>
 800050a:	4608      	mov	r0, r1
 800050c:	e6fd      	b.n	800030a <__udivmoddi4+0xd2>
 800050e:	443b      	add	r3, r7
 8000510:	3a02      	subs	r2, #2
 8000512:	e733      	b.n	800037c <__udivmoddi4+0x144>
 8000514:	f1ac 0c02 	sub.w	ip, ip, #2
 8000518:	443b      	add	r3, r7
 800051a:	e71c      	b.n	8000356 <__udivmoddi4+0x11e>
 800051c:	4649      	mov	r1, r9
 800051e:	e79c      	b.n	800045a <__udivmoddi4+0x222>
 8000520:	eba1 0109 	sub.w	r1, r1, r9
 8000524:	46c4      	mov	ip, r8
 8000526:	fbb1 f9fe 	udiv	r9, r1, lr
 800052a:	fb09 f804 	mul.w	r8, r9, r4
 800052e:	e7c4      	b.n	80004ba <__udivmoddi4+0x282>

08000530 <__aeabi_idiv0>:
 8000530:	4770      	bx	lr
 8000532:	bf00      	nop

08000534 <BL_ReadConfig>:
 * @brief  Reads the Bootloader Configuration from Flash.
 * @note   If the Magic Number is invalid, initializes the config with defaults.
 * @param  cfg Pointer to the BootConfig_t structure to populate.
 * @retval 0 if config was valid, 1 if defaults were loaded.
 */
uint8_t BL_ReadConfig(BootConfig_t *cfg) {
 8000534:	b580      	push	{r7, lr}
 8000536:	b082      	sub	sp, #8
 8000538:	af00      	add	r7, sp, #0
 800053a:	6078      	str	r0, [r7, #4]
    memcpy(cfg, (void *)CONFIG_SECTOR_ADDR, sizeof(BootConfig_t));
 800053c:	220c      	movs	r2, #12
 800053e:	490c      	ldr	r1, [pc, #48]	@ (8000570 <BL_ReadConfig+0x3c>)
 8000540:	6878      	ldr	r0, [r7, #4]
 8000542:	f006 fddd 	bl	8007100 <memcpy>
    if (cfg->magic_number != 0xDEADBEEF) {
 8000546:	687b      	ldr	r3, [r7, #4]
 8000548:	681b      	ldr	r3, [r3, #0]
 800054a:	4a0a      	ldr	r2, [pc, #40]	@ (8000574 <BL_ReadConfig+0x40>)
 800054c:	4293      	cmp	r3, r2
 800054e:	d00a      	beq.n	8000566 <BL_ReadConfig+0x32>
        // Set Defaults
        cfg->magic_number = 0xDEADBEEF;
 8000550:	687b      	ldr	r3, [r7, #4]
 8000552:	4a08      	ldr	r2, [pc, #32]	@ (8000574 <BL_ReadConfig+0x40>)
 8000554:	601a      	str	r2, [r3, #0]
        cfg->system_status = STATE_NORMAL;
 8000556:	687b      	ldr	r3, [r7, #4]
 8000558:	2204      	movs	r2, #4
 800055a:	605a      	str	r2, [r3, #4]
        cfg->current_version = 0;
 800055c:	687b      	ldr	r3, [r7, #4]
 800055e:	2200      	movs	r2, #0
 8000560:	609a      	str	r2, [r3, #8]
        return 1; // Config was empty/invalid
 8000562:	2301      	movs	r3, #1
 8000564:	e000      	b.n	8000568 <BL_ReadConfig+0x34>
    }
    return 0; // Config valid
 8000566:	2300      	movs	r3, #0
}
 8000568:	4618      	mov	r0, r3
 800056a:	3708      	adds	r7, #8
 800056c:	46bd      	mov	sp, r7
 800056e:	bd80      	pop	{r7, pc}
 8000570:	08010000 	.word	0x08010000
 8000574:	deadbeef 	.word	0xdeadbeef

08000578 <BL_WriteConfig>:
 * @brief  Writes the Bootloader Configuration to Flash.
 * @note   Erases the Config Sector (Sector 2) before writing.
 * @param  cfg Pointer to the BootConfig_t structure to write.
 * @retval 1 on success, 0 on failure.
 */
uint8_t BL_WriteConfig(BootConfig_t *cfg) {
 8000578:	b5b0      	push	{r4, r5, r7, lr}
 800057a:	b08a      	sub	sp, #40	@ 0x28
 800057c:	af00      	add	r7, sp, #0
 800057e:	6078      	str	r0, [r7, #4]
    uint32_t SectorError;
    HAL_FLASH_Unlock();
 8000580:	f001 fc26 	bl	8001dd0 <HAL_FLASH_Unlock>

    FLASH_EraseInitTypeDef erase_init = {0};
 8000584:	f107 0308 	add.w	r3, r7, #8
 8000588:	2200      	movs	r2, #0
 800058a:	601a      	str	r2, [r3, #0]
 800058c:	605a      	str	r2, [r3, #4]
 800058e:	609a      	str	r2, [r3, #8]
 8000590:	60da      	str	r2, [r3, #12]
    erase_init.TypeErase    = FLASH_TYPEERASE_SECTORS;
 8000592:	2300      	movs	r3, #0
 8000594:	60bb      	str	r3, [r7, #8]
    erase_init.VoltageRange = FLASH_VOLTAGE_RANGE_3;
 8000596:	2302      	movs	r3, #2
 8000598:	617b      	str	r3, [r7, #20]
    erase_init.Sector       = CONFIG_SECTOR_NUM;
 800059a:	2302      	movs	r3, #2
 800059c:	60fb      	str	r3, [r7, #12]
    erase_init.NbSectors    = 1;
 800059e:	2301      	movs	r3, #1
 80005a0:	613b      	str	r3, [r7, #16]

    if (HAL_FLASHEx_Erase(&erase_init, &SectorError) != HAL_OK) {
 80005a2:	f107 0218 	add.w	r2, r7, #24
 80005a6:	f107 0308 	add.w	r3, r7, #8
 80005aa:	4611      	mov	r1, r2
 80005ac:	4618      	mov	r0, r3
 80005ae:	f001 fd7d 	bl	80020ac <HAL_FLASHEx_Erase>
 80005b2:	4603      	mov	r3, r0
 80005b4:	2b00      	cmp	r3, #0
 80005b6:	d003      	beq.n	80005c0 <BL_WriteConfig+0x48>
        HAL_FLASH_Lock(); return 0;
 80005b8:	f001 fc2c 	bl	8001e14 <HAL_FLASH_Lock>
 80005bc:	2300      	movs	r3, #0
 80005be:	e029      	b.n	8000614 <BL_WriteConfig+0x9c>
    }

    uint32_t *data_ptr = (uint32_t *)cfg;
 80005c0:	687b      	ldr	r3, [r7, #4]
 80005c2:	623b      	str	r3, [r7, #32]
    int num_words = sizeof(BootConfig_t) / 4;
 80005c4:	2303      	movs	r3, #3
 80005c6:	61fb      	str	r3, [r7, #28]

    for (int i = 0; i < num_words; i++) {
 80005c8:	2300      	movs	r3, #0
 80005ca:	627b      	str	r3, [r7, #36]	@ 0x24
 80005cc:	e01b      	b.n	8000606 <BL_WriteConfig+0x8e>
        if (HAL_FLASH_Program(FLASH_TYPEPROGRAM_WORD, CONFIG_SECTOR_ADDR + (i*4), data_ptr[i]) != HAL_OK) {
 80005ce:	6a7a      	ldr	r2, [r7, #36]	@ 0x24
 80005d0:	4b12      	ldr	r3, [pc, #72]	@ (800061c <BL_WriteConfig+0xa4>)
 80005d2:	4413      	add	r3, r2
 80005d4:	009b      	lsls	r3, r3, #2
 80005d6:	4619      	mov	r1, r3
 80005d8:	6a7b      	ldr	r3, [r7, #36]	@ 0x24
 80005da:	009b      	lsls	r3, r3, #2
 80005dc:	6a3a      	ldr	r2, [r7, #32]
 80005de:	4413      	add	r3, r2
 80005e0:	681b      	ldr	r3, [r3, #0]
 80005e2:	2200      	movs	r2, #0
 80005e4:	461c      	mov	r4, r3
 80005e6:	4615      	mov	r5, r2
 80005e8:	4622      	mov	r2, r4
 80005ea:	462b      	mov	r3, r5
 80005ec:	2002      	movs	r0, #2
 80005ee:	f001 fb95 	bl	8001d1c <HAL_FLASH_Program>
 80005f2:	4603      	mov	r3, r0
 80005f4:	2b00      	cmp	r3, #0
 80005f6:	d003      	beq.n	8000600 <BL_WriteConfig+0x88>
            HAL_FLASH_Lock(); return 0;
 80005f8:	f001 fc0c 	bl	8001e14 <HAL_FLASH_Lock>
 80005fc:	2300      	movs	r3, #0
 80005fe:	e009      	b.n	8000614 <BL_WriteConfig+0x9c>
    for (int i = 0; i < num_words; i++) {
 8000600:	6a7b      	ldr	r3, [r7, #36]	@ 0x24
 8000602:	3301      	adds	r3, #1
 8000604:	627b      	str	r3, [r7, #36]	@ 0x24
 8000606:	6a7a      	ldr	r2, [r7, #36]	@ 0x24
 8000608:	69fb      	ldr	r3, [r7, #28]
 800060a:	429a      	cmp	r2, r3
 800060c:	dbdf      	blt.n	80005ce <BL_WriteConfig+0x56>
        }
    }
    HAL_FLASH_Lock(); return 1;
 800060e:	f001 fc01 	bl	8001e14 <HAL_FLASH_Lock>
 8000612:	2301      	movs	r3, #1
}
 8000614:	4618      	mov	r0, r3
 8000616:	3728      	adds	r7, #40	@ 0x28
 8000618:	46bd      	mov	sp, r7
 800061a:	bdb0      	pop	{r4, r5, r7, pc}
 800061c:	02004000 	.word	0x02004000

08000620 <BL_Raw_Copy>:
 * @param  src_addr  Source address in Flash.
 * @param  dest_addr Destination address in Flash.
 * @param  size      Number of bytes to copy.
 * @retval 1 on success, 0 on failure.
 */
static uint8_t BL_Raw_Copy(uint32_t src_addr, uint32_t dest_addr, uint32_t size){
 8000620:	b5b0      	push	{r4, r5, r7, lr}
 8000622:	b08c      	sub	sp, #48	@ 0x30
 8000624:	af00      	add	r7, sp, #0
 8000626:	60f8      	str	r0, [r7, #12]
 8000628:	60b9      	str	r1, [r7, #8]
 800062a:	607a      	str	r2, [r7, #4]
    HAL_FLASH_Unlock();
 800062c:	f001 fbd0 	bl	8001dd0 <HAL_FLASH_Unlock>
    FLASH_EraseInitTypeDef erase;
    uint32_t error;

    // Select Sector based on Address
    if (dest_addr == APP_ACTIVE_START_ADDR) erase.Sector = FLASH_SECTOR_5;
 8000630:	68bb      	ldr	r3, [r7, #8]
 8000632:	4a37      	ldr	r2, [pc, #220]	@ (8000710 <BL_Raw_Copy+0xf0>)
 8000634:	4293      	cmp	r3, r2
 8000636:	d102      	bne.n	800063e <BL_Raw_Copy+0x1e>
 8000638:	2305      	movs	r3, #5
 800063a:	61fb      	str	r3, [r7, #28]
 800063c:	e008      	b.n	8000650 <BL_Raw_Copy+0x30>
    else if (dest_addr == APP_DOWNLOAD_START_ADDR) erase.Sector = FLASH_SECTOR_6;
 800063e:	68bb      	ldr	r3, [r7, #8]
 8000640:	4a34      	ldr	r2, [pc, #208]	@ (8000714 <BL_Raw_Copy+0xf4>)
 8000642:	4293      	cmp	r3, r2
 8000644:	d102      	bne.n	800064c <BL_Raw_Copy+0x2c>
 8000646:	2306      	movs	r3, #6
 8000648:	61fb      	str	r3, [r7, #28]
 800064a:	e001      	b.n	8000650 <BL_Raw_Copy+0x30>
    else erase.Sector = FLASH_SECTOR_7;
 800064c:	2307      	movs	r3, #7
 800064e:	61fb      	str	r3, [r7, #28]

    erase.TypeErase = FLASH_TYPEERASE_SECTORS;
 8000650:	2300      	movs	r3, #0
 8000652:	61bb      	str	r3, [r7, #24]
    erase.VoltageRange = FLASH_VOLTAGE_RANGE_3;
 8000654:	2302      	movs	r3, #2
 8000656:	627b      	str	r3, [r7, #36]	@ 0x24
    erase.NbSectors = 1;
 8000658:	2301      	movs	r3, #1
 800065a:	623b      	str	r3, [r7, #32]

    printf("  [DEBUG] Erasing Sector %d... ", (int)erase.Sector);
 800065c:	69fb      	ldr	r3, [r7, #28]
 800065e:	4619      	mov	r1, r3
 8000660:	482d      	ldr	r0, [pc, #180]	@ (8000718 <BL_Raw_Copy+0xf8>)
 8000662:	f001 f84b 	bl	80016fc <tfp_printf>
    if (HAL_FLASHEx_Erase(&erase, &error) != HAL_OK) {
 8000666:	f107 0214 	add.w	r2, r7, #20
 800066a:	f107 0318 	add.w	r3, r7, #24
 800066e:	4611      	mov	r1, r2
 8000670:	4618      	mov	r0, r3
 8000672:	f001 fd1b 	bl	80020ac <HAL_FLASHEx_Erase>
 8000676:	4603      	mov	r3, r0
 8000678:	2b00      	cmp	r3, #0
 800067a:	d00a      	beq.n	8000692 <BL_Raw_Copy+0x72>
        printf("FAILED! HAL Error: 0x%x\r\n", (unsigned int)HAL_FLASH_GetError());
 800067c:	f001 fbda 	bl	8001e34 <HAL_FLASH_GetError>
 8000680:	4603      	mov	r3, r0
 8000682:	4619      	mov	r1, r3
 8000684:	4825      	ldr	r0, [pc, #148]	@ (800071c <BL_Raw_Copy+0xfc>)
 8000686:	f001 f839 	bl	80016fc <tfp_printf>
        HAL_FLASH_Lock(); return 0;
 800068a:	f001 fbc3 	bl	8001e14 <HAL_FLASH_Lock>
 800068e:	2300      	movs	r3, #0
 8000690:	e039      	b.n	8000706 <BL_Raw_Copy+0xe6>
    }
    printf("OK\r\n");
 8000692:	4823      	ldr	r0, [pc, #140]	@ (8000720 <BL_Raw_Copy+0x100>)
 8000694:	f001 f832 	bl	80016fc <tfp_printf>

    printf("  [DEBUG] Writing %d bytes to 0x%x... ", (int)size, (unsigned int)dest_addr);
 8000698:	687b      	ldr	r3, [r7, #4]
 800069a:	68ba      	ldr	r2, [r7, #8]
 800069c:	4619      	mov	r1, r3
 800069e:	4821      	ldr	r0, [pc, #132]	@ (8000724 <BL_Raw_Copy+0x104>)
 80006a0:	f001 f82c 	bl	80016fc <tfp_printf>
    for (uint32_t i = 0; (i * 4) < size; i++) {
 80006a4:	2300      	movs	r3, #0
 80006a6:	62fb      	str	r3, [r7, #44]	@ 0x2c
 80006a8:	e022      	b.n	80006f0 <BL_Raw_Copy+0xd0>
        uint32_t data = *(uint32_t*)(src_addr + (i * 4));
 80006aa:	6afb      	ldr	r3, [r7, #44]	@ 0x2c
 80006ac:	009a      	lsls	r2, r3, #2
 80006ae:	68fb      	ldr	r3, [r7, #12]
 80006b0:	4413      	add	r3, r2
 80006b2:	681b      	ldr	r3, [r3, #0]
 80006b4:	62bb      	str	r3, [r7, #40]	@ 0x28
        if (HAL_FLASH_Program(FLASH_TYPEPROGRAM_WORD, dest_addr + (i * 4), data) != HAL_OK) {
 80006b6:	6afb      	ldr	r3, [r7, #44]	@ 0x2c
 80006b8:	009a      	lsls	r2, r3, #2
 80006ba:	68bb      	ldr	r3, [r7, #8]
 80006bc:	18d1      	adds	r1, r2, r3
 80006be:	6abb      	ldr	r3, [r7, #40]	@ 0x28
 80006c0:	2200      	movs	r2, #0
 80006c2:	461c      	mov	r4, r3
 80006c4:	4615      	mov	r5, r2
 80006c6:	4622      	mov	r2, r4
 80006c8:	462b      	mov	r3, r5
 80006ca:	2002      	movs	r0, #2
 80006cc:	f001 fb26 	bl	8001d1c <HAL_FLASH_Program>
 80006d0:	4603      	mov	r3, r0
 80006d2:	2b00      	cmp	r3, #0
 80006d4:	d009      	beq.n	80006ea <BL_Raw_Copy+0xca>
            printf("FAILED at offset %d!\r\n", (int)(i*4));
 80006d6:	6afb      	ldr	r3, [r7, #44]	@ 0x2c
 80006d8:	009b      	lsls	r3, r3, #2
 80006da:	4619      	mov	r1, r3
 80006dc:	4812      	ldr	r0, [pc, #72]	@ (8000728 <BL_Raw_Copy+0x108>)
 80006de:	f001 f80d 	bl	80016fc <tfp_printf>
            HAL_FLASH_Lock(); return 0;
 80006e2:	f001 fb97 	bl	8001e14 <HAL_FLASH_Lock>
 80006e6:	2300      	movs	r3, #0
 80006e8:	e00d      	b.n	8000706 <BL_Raw_Copy+0xe6>
    for (uint32_t i = 0; (i * 4) < size; i++) {
 80006ea:	6afb      	ldr	r3, [r7, #44]	@ 0x2c
 80006ec:	3301      	adds	r3, #1
 80006ee:	62fb      	str	r3, [r7, #44]	@ 0x2c
 80006f0:	6afb      	ldr	r3, [r7, #44]	@ 0x2c
 80006f2:	009b      	lsls	r3, r3, #2
 80006f4:	687a      	ldr	r2, [r7, #4]
 80006f6:	429a      	cmp	r2, r3
 80006f8:	d8d7      	bhi.n	80006aa <BL_Raw_Copy+0x8a>
        }
    }
    printf("OK\r\n");
 80006fa:	4809      	ldr	r0, [pc, #36]	@ (8000720 <BL_Raw_Copy+0x100>)
 80006fc:	f000 fffe 	bl	80016fc <tfp_printf>
    HAL_FLASH_Lock(); return 1;
 8000700:	f001 fb88 	bl	8001e14 <HAL_FLASH_Lock>
 8000704:	2301      	movs	r3, #1
}
 8000706:	4618      	mov	r0, r3
 8000708:	3730      	adds	r7, #48	@ 0x30
 800070a:	46bd      	mov	sp, r7
 800070c:	bdb0      	pop	{r4, r5, r7, pc}
 800070e:	bf00      	nop
 8000710:	08040000 	.word	0x08040000
 8000714:	08080000 	.word	0x08080000
 8000718:	08007134 	.word	0x08007134
 800071c:	08007154 	.word	0x08007154
 8000720:	08007170 	.word	0x08007170
 8000724:	08007178 	.word	0x08007178
 8000728:	080071a0 	.word	0x080071a0

0800072c <BL_Decrypt_Update_Image>:
 * @param  src_slot_addr Start address of the encrypted image.
 * @param  dest_addr     Destination address (Scratchpad).
 * @param  payload_size  Total size of IV + Ciphertext.
 * @retval 1 on success, 0 on failure.
 */
static uint8_t BL_Decrypt_Update_Image(uint32_t src_slot_addr, uint32_t dest_addr, uint32_t payload_size) {
 800072c:	e92d 4390 	stmdb	sp!, {r4, r7, r8, r9, lr}
 8000730:	b0c9      	sub	sp, #292	@ 0x124
 8000732:	af00      	add	r7, sp, #0
 8000734:	f507 7390 	add.w	r3, r7, #288	@ 0x120
 8000738:	f5a3 738a 	sub.w	r3, r3, #276	@ 0x114
 800073c:	6018      	str	r0, [r3, #0]
 800073e:	f507 7390 	add.w	r3, r7, #288	@ 0x120
 8000742:	f5a3 738c 	sub.w	r3, r3, #280	@ 0x118
 8000746:	6019      	str	r1, [r3, #0]
 8000748:	f507 7390 	add.w	r3, r7, #288	@ 0x120
 800074c:	f5a3 738e 	sub.w	r3, r3, #284	@ 0x11c
 8000750:	601a      	str	r2, [r3, #0]
    struct tc_aes_key_sched_struct s;
    uint8_t buffer_enc[16], buffer_dec[16], current_iv[16];
    FLASH_EraseInitTypeDef erase;
    uint32_t error;

    if (tc_aes128_set_decrypt_key(&s, AES_SECRET_KEY) == 0) return 0;
 8000752:	f107 035c 	add.w	r3, r7, #92	@ 0x5c
 8000756:	4970      	ldr	r1, [pc, #448]	@ (8000918 <BL_Decrypt_Update_Image+0x1ec>)
 8000758:	4618      	mov	r0, r3
 800075a:	f003 fcfb 	bl	8004154 <tc_aes128_set_decrypt_key>
 800075e:	4603      	mov	r3, r0
 8000760:	2b00      	cmp	r3, #0
 8000762:	d101      	bne.n	8000768 <BL_Decrypt_Update_Image+0x3c>
 8000764:	2300      	movs	r3, #0
 8000766:	e0d0      	b.n	800090a <BL_Decrypt_Update_Image+0x1de>

    memcpy(current_iv, (void*)src_slot_addr, 16); // Read IV
 8000768:	f507 7390 	add.w	r3, r7, #288	@ 0x120
 800076c:	f5a3 738a 	sub.w	r3, r3, #276	@ 0x114
 8000770:	681b      	ldr	r3, [r3, #0]
 8000772:	f107 042c 	add.w	r4, r7, #44	@ 0x2c
 8000776:	6818      	ldr	r0, [r3, #0]
 8000778:	6859      	ldr	r1, [r3, #4]
 800077a:	689a      	ldr	r2, [r3, #8]
 800077c:	68db      	ldr	r3, [r3, #12]
 800077e:	c40f      	stmia	r4!, {r0, r1, r2, r3}

    HAL_FLASH_Unlock();
 8000780:	f001 fb26 	bl	8001dd0 <HAL_FLASH_Unlock>
    erase.Sector = FLASH_SECTOR_7;
 8000784:	f507 7390 	add.w	r3, r7, #288	@ 0x120
 8000788:	f5a3 7382 	sub.w	r3, r3, #260	@ 0x104
 800078c:	2207      	movs	r2, #7
 800078e:	605a      	str	r2, [r3, #4]
    erase.TypeErase = FLASH_TYPEERASE_SECTORS;
 8000790:	f507 7390 	add.w	r3, r7, #288	@ 0x120
 8000794:	f5a3 7382 	sub.w	r3, r3, #260	@ 0x104
 8000798:	2200      	movs	r2, #0
 800079a:	601a      	str	r2, [r3, #0]
    erase.VoltageRange = FLASH_VOLTAGE_RANGE_3;
 800079c:	f507 7390 	add.w	r3, r7, #288	@ 0x120
 80007a0:	f5a3 7382 	sub.w	r3, r3, #260	@ 0x104
 80007a4:	2202      	movs	r2, #2
 80007a6:	60da      	str	r2, [r3, #12]
    erase.NbSectors = 1;
 80007a8:	f507 7390 	add.w	r3, r7, #288	@ 0x120
 80007ac:	f5a3 7382 	sub.w	r3, r3, #260	@ 0x104
 80007b0:	2201      	movs	r2, #1
 80007b2:	609a      	str	r2, [r3, #8]

    if (HAL_FLASHEx_Erase(&erase, &error) != HAL_OK) {
 80007b4:	f107 0218 	add.w	r2, r7, #24
 80007b8:	f107 031c 	add.w	r3, r7, #28
 80007bc:	4611      	mov	r1, r2
 80007be:	4618      	mov	r0, r3
 80007c0:	f001 fc74 	bl	80020ac <HAL_FLASHEx_Erase>
 80007c4:	4603      	mov	r3, r0
 80007c6:	2b00      	cmp	r3, #0
 80007c8:	d003      	beq.n	80007d2 <BL_Decrypt_Update_Image+0xa6>
        HAL_FLASH_Lock(); return 0;
 80007ca:	f001 fb23 	bl	8001e14 <HAL_FLASH_Lock>
 80007ce:	2300      	movs	r3, #0
 80007d0:	e09b      	b.n	800090a <BL_Decrypt_Update_Image+0x1de>
    }

    uint32_t encrypted_data_size = payload_size - 16;
 80007d2:	f507 7390 	add.w	r3, r7, #288	@ 0x120
 80007d6:	f5a3 738e 	sub.w	r3, r3, #284	@ 0x11c
 80007da:	681b      	ldr	r3, [r3, #0]
 80007dc:	3b10      	subs	r3, #16
 80007de:	f8c7 3110 	str.w	r3, [r7, #272]	@ 0x110
    uint32_t data_start_offset = 16;
 80007e2:	2310      	movs	r3, #16
 80007e4:	f8c7 310c 	str.w	r3, [r7, #268]	@ 0x10c

    for (uint32_t i = 0; i < encrypted_data_size; i += 16) {
 80007e8:	2300      	movs	r3, #0
 80007ea:	f8c7 311c 	str.w	r3, [r7, #284]	@ 0x11c
 80007ee:	e082      	b.n	80008f6 <BL_Decrypt_Update_Image+0x1ca>
        memcpy(buffer_enc, (void*)(src_slot_addr + data_start_offset + i), 16);
 80007f0:	f507 7390 	add.w	r3, r7, #288	@ 0x120
 80007f4:	f5a3 738a 	sub.w	r3, r3, #276	@ 0x114
 80007f8:	681a      	ldr	r2, [r3, #0]
 80007fa:	f8d7 310c 	ldr.w	r3, [r7, #268]	@ 0x10c
 80007fe:	441a      	add	r2, r3
 8000800:	f8d7 311c 	ldr.w	r3, [r7, #284]	@ 0x11c
 8000804:	4413      	add	r3, r2
 8000806:	f107 044c 	add.w	r4, r7, #76	@ 0x4c
 800080a:	6818      	ldr	r0, [r3, #0]
 800080c:	6859      	ldr	r1, [r3, #4]
 800080e:	689a      	ldr	r2, [r3, #8]
 8000810:	68db      	ldr	r3, [r3, #12]
 8000812:	c40f      	stmia	r4!, {r0, r1, r2, r3}
        tc_aes_decrypt(buffer_dec, buffer_enc, &s);
 8000814:	f107 025c 	add.w	r2, r7, #92	@ 0x5c
 8000818:	f107 014c 	add.w	r1, r7, #76	@ 0x4c
 800081c:	f107 033c 	add.w	r3, r7, #60	@ 0x3c
 8000820:	4618      	mov	r0, r3
 8000822:	f004 f816 	bl	8004852 <tc_aes_decrypt>
        for(int j=0; j<16; j++) buffer_dec[j] ^= current_iv[j]; // CBC XOR
 8000826:	2300      	movs	r3, #0
 8000828:	f8c7 3118 	str.w	r3, [r7, #280]	@ 0x118
 800082c:	e019      	b.n	8000862 <BL_Decrypt_Update_Image+0x136>
 800082e:	f107 023c 	add.w	r2, r7, #60	@ 0x3c
 8000832:	f8d7 3118 	ldr.w	r3, [r7, #280]	@ 0x118
 8000836:	4413      	add	r3, r2
 8000838:	781a      	ldrb	r2, [r3, #0]
 800083a:	f107 012c 	add.w	r1, r7, #44	@ 0x2c
 800083e:	f8d7 3118 	ldr.w	r3, [r7, #280]	@ 0x118
 8000842:	440b      	add	r3, r1
 8000844:	781b      	ldrb	r3, [r3, #0]
 8000846:	4053      	eors	r3, r2
 8000848:	b2d9      	uxtb	r1, r3
 800084a:	f107 023c 	add.w	r2, r7, #60	@ 0x3c
 800084e:	f8d7 3118 	ldr.w	r3, [r7, #280]	@ 0x118
 8000852:	4413      	add	r3, r2
 8000854:	460a      	mov	r2, r1
 8000856:	701a      	strb	r2, [r3, #0]
 8000858:	f8d7 3118 	ldr.w	r3, [r7, #280]	@ 0x118
 800085c:	3301      	adds	r3, #1
 800085e:	f8c7 3118 	str.w	r3, [r7, #280]	@ 0x118
 8000862:	f8d7 3118 	ldr.w	r3, [r7, #280]	@ 0x118
 8000866:	2b0f      	cmp	r3, #15
 8000868:	dde1      	ble.n	800082e <BL_Decrypt_Update_Image+0x102>
        memcpy(current_iv, buffer_enc, 16);
 800086a:	f107 042c 	add.w	r4, r7, #44	@ 0x2c
 800086e:	f107 034c 	add.w	r3, r7, #76	@ 0x4c
 8000872:	cb0f      	ldmia	r3, {r0, r1, r2, r3}
 8000874:	e884 000f 	stmia.w	r4, {r0, r1, r2, r3}

        for (int k = 0; k < 4; k++) {
 8000878:	2300      	movs	r3, #0
 800087a:	f8c7 3114 	str.w	r3, [r7, #276]	@ 0x114
 800087e:	e031      	b.n	80008e4 <BL_Decrypt_Update_Image+0x1b8>
            uint32_t data_word;
            memcpy(&data_word, &buffer_dec[k*4], 4);
 8000880:	f8d7 3114 	ldr.w	r3, [r7, #276]	@ 0x114
 8000884:	009b      	lsls	r3, r3, #2
 8000886:	f107 023c 	add.w	r2, r7, #60	@ 0x3c
 800088a:	4413      	add	r3, r2
 800088c:	681b      	ldr	r3, [r3, #0]
 800088e:	461a      	mov	r2, r3
 8000890:	f507 7390 	add.w	r3, r7, #288	@ 0x120
 8000894:	f5a3 7386 	sub.w	r3, r3, #268	@ 0x10c
 8000898:	601a      	str	r2, [r3, #0]
            if (HAL_FLASH_Program(FLASH_TYPEPROGRAM_WORD, dest_addr + i + (k*4), data_word) != HAL_OK) {
 800089a:	f507 7390 	add.w	r3, r7, #288	@ 0x120
 800089e:	f5a3 738c 	sub.w	r3, r3, #280	@ 0x118
 80008a2:	681a      	ldr	r2, [r3, #0]
 80008a4:	f8d7 311c 	ldr.w	r3, [r7, #284]	@ 0x11c
 80008a8:	4413      	add	r3, r2
 80008aa:	f8d7 2114 	ldr.w	r2, [r7, #276]	@ 0x114
 80008ae:	0092      	lsls	r2, r2, #2
 80008b0:	1899      	adds	r1, r3, r2
 80008b2:	f507 7390 	add.w	r3, r7, #288	@ 0x120
 80008b6:	f5a3 7386 	sub.w	r3, r3, #268	@ 0x10c
 80008ba:	681b      	ldr	r3, [r3, #0]
 80008bc:	2200      	movs	r2, #0
 80008be:	4698      	mov	r8, r3
 80008c0:	4691      	mov	r9, r2
 80008c2:	4642      	mov	r2, r8
 80008c4:	464b      	mov	r3, r9
 80008c6:	2002      	movs	r0, #2
 80008c8:	f001 fa28 	bl	8001d1c <HAL_FLASH_Program>
 80008cc:	4603      	mov	r3, r0
 80008ce:	2b00      	cmp	r3, #0
 80008d0:	d003      	beq.n	80008da <BL_Decrypt_Update_Image+0x1ae>
                HAL_FLASH_Lock(); return 0;
 80008d2:	f001 fa9f 	bl	8001e14 <HAL_FLASH_Lock>
 80008d6:	2300      	movs	r3, #0
 80008d8:	e017      	b.n	800090a <BL_Decrypt_Update_Image+0x1de>
        for (int k = 0; k < 4; k++) {
 80008da:	f8d7 3114 	ldr.w	r3, [r7, #276]	@ 0x114
 80008de:	3301      	adds	r3, #1
 80008e0:	f8c7 3114 	str.w	r3, [r7, #276]	@ 0x114
 80008e4:	f8d7 3114 	ldr.w	r3, [r7, #276]	@ 0x114
 80008e8:	2b03      	cmp	r3, #3
 80008ea:	ddc9      	ble.n	8000880 <BL_Decrypt_Update_Image+0x154>
    for (uint32_t i = 0; i < encrypted_data_size; i += 16) {
 80008ec:	f8d7 311c 	ldr.w	r3, [r7, #284]	@ 0x11c
 80008f0:	3310      	adds	r3, #16
 80008f2:	f8c7 311c 	str.w	r3, [r7, #284]	@ 0x11c
 80008f6:	f8d7 211c 	ldr.w	r2, [r7, #284]	@ 0x11c
 80008fa:	f8d7 3110 	ldr.w	r3, [r7, #272]	@ 0x110
 80008fe:	429a      	cmp	r2, r3
 8000900:	f4ff af76 	bcc.w	80007f0 <BL_Decrypt_Update_Image+0xc4>
            }
        }
    }
    HAL_FLASH_Lock(); return 1;
 8000904:	f001 fa86 	bl	8001e14 <HAL_FLASH_Lock>
 8000908:	2301      	movs	r3, #1
}
 800090a:	4618      	mov	r0, r3
 800090c:	f507 7792 	add.w	r7, r7, #292	@ 0x124
 8000910:	46bd      	mov	sp, r7
 8000912:	e8bd 8390 	ldmia.w	sp!, {r4, r7, r8, r9, pc}
 8000916:	bf00      	nop
 8000918:	08007ae4 	.word	0x08007ae4

0800091c <BL_Encrypt_Backup>:
 * @details Reads plaintext from S5, encrypts it, and writes to S6.
 * @param  src_addr  Source address (Active App).
 * @param  dest_addr Destination address (Backup Slot).
 * @retval 1 on success, 0 on failure.
 */
static uint8_t BL_Encrypt_Backup(uint32_t src_addr, uint32_t dest_addr) {
 800091c:	e92d 4390 	stmdb	sp!, {r4, r7, r8, r9, lr}
 8000920:	b0bf      	sub	sp, #252	@ 0xfc
 8000922:	af00      	add	r7, sp, #0
 8000924:	6078      	str	r0, [r7, #4]
 8000926:	6039      	str	r1, [r7, #0]
    uint8_t buffer_plain[16];
    uint8_t buffer_enc[16];
    FLASH_EraseInitTypeDef erase;
    uint32_t error;

    if (tc_aes128_set_encrypt_key(&s, AES_SECRET_KEY) == 0) {
 8000928:	f107 0340 	add.w	r3, r7, #64	@ 0x40
 800092c:	4953      	ldr	r1, [pc, #332]	@ (8000a7c <BL_Encrypt_Backup+0x160>)
 800092e:	4618      	mov	r0, r3
 8000930:	f004 f808 	bl	8004944 <tc_aes128_set_encrypt_key>
 8000934:	4603      	mov	r3, r0
 8000936:	2b00      	cmp	r3, #0
 8000938:	d104      	bne.n	8000944 <BL_Encrypt_Backup+0x28>
        printf("Error: AES Key Init Failed.\r\n"); return 0;
 800093a:	4851      	ldr	r0, [pc, #324]	@ (8000a80 <BL_Encrypt_Backup+0x164>)
 800093c:	f000 fede 	bl	80016fc <tfp_printf>
 8000940:	2300      	movs	r3, #0
 8000942:	e095      	b.n	8000a70 <BL_Encrypt_Backup+0x154>
  \details Disables IRQ interrupts by setting the I-bit in the CPSR.
           Can only be executed in Privileged modes.
 */
__STATIC_FORCEINLINE void __disable_irq(void)
{
  __ASM volatile ("cpsid i" : : : "memory");
 8000944:	b672      	cpsid	i
}
 8000946:	bf00      	nop
    }

    __disable_irq();
    HAL_FLASH_Unlock();
 8000948:	f001 fa42 	bl	8001dd0 <HAL_FLASH_Unlock>

    erase.Sector = FLASH_SECTOR_6; // Backup Sector
 800094c:	2306      	movs	r3, #6
 800094e:	617b      	str	r3, [r7, #20]
    erase.TypeErase = FLASH_TYPEERASE_SECTORS;
 8000950:	2300      	movs	r3, #0
 8000952:	613b      	str	r3, [r7, #16]
    erase.VoltageRange = FLASH_VOLTAGE_RANGE_3;
 8000954:	2302      	movs	r3, #2
 8000956:	61fb      	str	r3, [r7, #28]
    erase.NbSectors = 1;
 8000958:	2301      	movs	r3, #1
 800095a:	61bb      	str	r3, [r7, #24]

    printf("  [DEBUG] Erasing Backup Sector (S6)... ");
 800095c:	4849      	ldr	r0, [pc, #292]	@ (8000a84 <BL_Encrypt_Backup+0x168>)
 800095e:	f000 fecd 	bl	80016fc <tfp_printf>
    if (HAL_FLASHEx_Erase(&erase, &error) != HAL_OK) {
 8000962:	f107 020c 	add.w	r2, r7, #12
 8000966:	f107 0310 	add.w	r3, r7, #16
 800096a:	4611      	mov	r1, r2
 800096c:	4618      	mov	r0, r3
 800096e:	f001 fb9d 	bl	80020ac <HAL_FLASHEx_Erase>
 8000972:	4603      	mov	r3, r0
 8000974:	2b00      	cmp	r3, #0
 8000976:	d00c      	beq.n	8000992 <BL_Encrypt_Backup+0x76>
        printf("FAILED! HAL Err: 0x%x\r\n", (unsigned int)HAL_FLASH_GetError());
 8000978:	f001 fa5c 	bl	8001e34 <HAL_FLASH_GetError>
 800097c:	4603      	mov	r3, r0
 800097e:	4619      	mov	r1, r3
 8000980:	4841      	ldr	r0, [pc, #260]	@ (8000a88 <BL_Encrypt_Backup+0x16c>)
 8000982:	f000 febb 	bl	80016fc <tfp_printf>
        HAL_FLASH_Lock(); __enable_irq(); return 0;
 8000986:	f001 fa45 	bl	8001e14 <HAL_FLASH_Lock>
  __ASM volatile ("cpsie i" : : : "memory");
 800098a:	b662      	cpsie	i
}
 800098c:	bf00      	nop
 800098e:	2300      	movs	r3, #0
 8000990:	e06e      	b.n	8000a70 <BL_Encrypt_Backup+0x154>
    }
    printf("OK\r\n");
 8000992:	483e      	ldr	r0, [pc, #248]	@ (8000a8c <BL_Encrypt_Backup+0x170>)
 8000994:	f000 feb2 	bl	80016fc <tfp_printf>

    printf("  [DEBUG] Encrypting & Backing up %d bytes... \r\n", SLOT_SIZE);
 8000998:	f44f 2180 	mov.w	r1, #262144	@ 0x40000
 800099c:	483c      	ldr	r0, [pc, #240]	@ (8000a90 <BL_Encrypt_Backup+0x174>)
 800099e:	f000 fead 	bl	80016fc <tfp_printf>

    for (uint32_t offset = 0; offset < SLOT_SIZE; offset += 16) {
 80009a2:	2300      	movs	r3, #0
 80009a4:	f8c7 30f4 	str.w	r3, [r7, #244]	@ 0xf4
 80009a8:	e055      	b.n	8000a56 <BL_Encrypt_Backup+0x13a>
        memcpy(buffer_plain, (void*)(src_addr + offset), 16);
 80009aa:	687a      	ldr	r2, [r7, #4]
 80009ac:	f8d7 30f4 	ldr.w	r3, [r7, #244]	@ 0xf4
 80009b0:	4413      	add	r3, r2
 80009b2:	f107 0430 	add.w	r4, r7, #48	@ 0x30
 80009b6:	6818      	ldr	r0, [r3, #0]
 80009b8:	6859      	ldr	r1, [r3, #4]
 80009ba:	689a      	ldr	r2, [r3, #8]
 80009bc:	68db      	ldr	r3, [r3, #12]
 80009be:	c40f      	stmia	r4!, {r0, r1, r2, r3}

        if (tc_aes_encrypt(buffer_enc, buffer_plain, &s) == 0) {
 80009c0:	f107 0240 	add.w	r2, r7, #64	@ 0x40
 80009c4:	f107 0130 	add.w	r1, r7, #48	@ 0x30
 80009c8:	f107 0320 	add.w	r3, r7, #32
 80009cc:	4618      	mov	r0, r3
 80009ce:	f004 fa4b 	bl	8004e68 <tc_aes_encrypt>
 80009d2:	4603      	mov	r3, r0
 80009d4:	2b00      	cmp	r3, #0
 80009d6:	d105      	bne.n	80009e4 <BL_Encrypt_Backup+0xc8>
             HAL_FLASH_Lock(); __enable_irq(); return 0;
 80009d8:	f001 fa1c 	bl	8001e14 <HAL_FLASH_Lock>
  __ASM volatile ("cpsie i" : : : "memory");
 80009dc:	b662      	cpsie	i
}
 80009de:	bf00      	nop
 80009e0:	2300      	movs	r3, #0
 80009e2:	e045      	b.n	8000a70 <BL_Encrypt_Backup+0x154>
        }

        for (int i = 0; i < 4; i++) {
 80009e4:	2300      	movs	r3, #0
 80009e6:	f8c7 30f0 	str.w	r3, [r7, #240]	@ 0xf0
 80009ea:	e02b      	b.n	8000a44 <BL_Encrypt_Backup+0x128>
            uint32_t data_word;
            memcpy(&data_word, &buffer_enc[i*4], 4);
 80009ec:	f8d7 30f0 	ldr.w	r3, [r7, #240]	@ 0xf0
 80009f0:	009b      	lsls	r3, r3, #2
 80009f2:	f107 0220 	add.w	r2, r7, #32
 80009f6:	4413      	add	r3, r2
 80009f8:	681b      	ldr	r3, [r3, #0]
 80009fa:	60bb      	str	r3, [r7, #8]
            if (HAL_FLASH_Program(FLASH_TYPEPROGRAM_WORD, dest_addr + offset + (i*4), data_word) != HAL_OK) {
 80009fc:	683a      	ldr	r2, [r7, #0]
 80009fe:	f8d7 30f4 	ldr.w	r3, [r7, #244]	@ 0xf4
 8000a02:	4413      	add	r3, r2
 8000a04:	f8d7 20f0 	ldr.w	r2, [r7, #240]	@ 0xf0
 8000a08:	0092      	lsls	r2, r2, #2
 8000a0a:	1899      	adds	r1, r3, r2
 8000a0c:	68bb      	ldr	r3, [r7, #8]
 8000a0e:	2200      	movs	r2, #0
 8000a10:	4698      	mov	r8, r3
 8000a12:	4691      	mov	r9, r2
 8000a14:	4642      	mov	r2, r8
 8000a16:	464b      	mov	r3, r9
 8000a18:	2002      	movs	r0, #2
 8000a1a:	f001 f97f 	bl	8001d1c <HAL_FLASH_Program>
 8000a1e:	4603      	mov	r3, r0
 8000a20:	2b00      	cmp	r3, #0
 8000a22:	d00a      	beq.n	8000a3a <BL_Encrypt_Backup+0x11e>
                printf("Backup Write Failed at offset 0x%x\r\n", (unsigned int)offset);
 8000a24:	f8d7 10f4 	ldr.w	r1, [r7, #244]	@ 0xf4
 8000a28:	481a      	ldr	r0, [pc, #104]	@ (8000a94 <BL_Encrypt_Backup+0x178>)
 8000a2a:	f000 fe67 	bl	80016fc <tfp_printf>
                HAL_FLASH_Lock(); __enable_irq(); return 0;
 8000a2e:	f001 f9f1 	bl	8001e14 <HAL_FLASH_Lock>
  __ASM volatile ("cpsie i" : : : "memory");
 8000a32:	b662      	cpsie	i
}
 8000a34:	bf00      	nop
 8000a36:	2300      	movs	r3, #0
 8000a38:	e01a      	b.n	8000a70 <BL_Encrypt_Backup+0x154>
        for (int i = 0; i < 4; i++) {
 8000a3a:	f8d7 30f0 	ldr.w	r3, [r7, #240]	@ 0xf0
 8000a3e:	3301      	adds	r3, #1
 8000a40:	f8c7 30f0 	str.w	r3, [r7, #240]	@ 0xf0
 8000a44:	f8d7 30f0 	ldr.w	r3, [r7, #240]	@ 0xf0
 8000a48:	2b03      	cmp	r3, #3
 8000a4a:	ddcf      	ble.n	80009ec <BL_Encrypt_Backup+0xd0>
    for (uint32_t offset = 0; offset < SLOT_SIZE; offset += 16) {
 8000a4c:	f8d7 30f4 	ldr.w	r3, [r7, #244]	@ 0xf4
 8000a50:	3310      	adds	r3, #16
 8000a52:	f8c7 30f4 	str.w	r3, [r7, #244]	@ 0xf4
 8000a56:	f8d7 30f4 	ldr.w	r3, [r7, #244]	@ 0xf4
 8000a5a:	f5b3 2f80 	cmp.w	r3, #262144	@ 0x40000
 8000a5e:	d3a4      	bcc.n	80009aa <BL_Encrypt_Backup+0x8e>
            }
        }
    }

    HAL_FLASH_Lock(); __enable_irq();
 8000a60:	f001 f9d8 	bl	8001e14 <HAL_FLASH_Lock>
  __ASM volatile ("cpsie i" : : : "memory");
 8000a64:	b662      	cpsie	i
}
 8000a66:	bf00      	nop
    printf("  Backup Complete.\r\n");
 8000a68:	480b      	ldr	r0, [pc, #44]	@ (8000a98 <BL_Encrypt_Backup+0x17c>)
 8000a6a:	f000 fe47 	bl	80016fc <tfp_printf>
    return 1;
 8000a6e:	2301      	movs	r3, #1
}
 8000a70:	4618      	mov	r0, r3
 8000a72:	37fc      	adds	r7, #252	@ 0xfc
 8000a74:	46bd      	mov	sp, r7
 8000a76:	e8bd 8390 	ldmia.w	sp!, {r4, r7, r8, r9, pc}
 8000a7a:	bf00      	nop
 8000a7c:	08007ae4 	.word	0x08007ae4
 8000a80:	080071b8 	.word	0x080071b8
 8000a84:	080071d8 	.word	0x080071d8
 8000a88:	08007204 	.word	0x08007204
 8000a8c:	08007170 	.word	0x08007170
 8000a90:	0800721c 	.word	0x0800721c
 8000a94:	08007250 	.word	0x08007250
 8000a98:	08007278 	.word	0x08007278

08000a9c <BL_Decrypt_Backup_Image>:
 * @details Reads encrypted backup from S6, decrypts it, and writes to S7.
 * @param  src_addr  Source address (Backup Slot).
 * @param  dest_addr Destination address (Scratchpad).
 * @retval 1 on success, 0 on failure.
 */
static uint8_t BL_Decrypt_Backup_Image(uint32_t src_addr, uint32_t dest_addr) {
 8000a9c:	e92d 4390 	stmdb	sp!, {r4, r7, r8, r9, lr}
 8000aa0:	b0bf      	sub	sp, #252	@ 0xfc
 8000aa2:	af00      	add	r7, sp, #0
 8000aa4:	6078      	str	r0, [r7, #4]
 8000aa6:	6039      	str	r1, [r7, #0]
    uint8_t buffer_enc[16];
    uint8_t buffer_dec[16];
    FLASH_EraseInitTypeDef erase;
    uint32_t error;

    if (tc_aes128_set_decrypt_key(&s, AES_SECRET_KEY) == 0) return 0;
 8000aa8:	f107 0340 	add.w	r3, r7, #64	@ 0x40
 8000aac:	4944      	ldr	r1, [pc, #272]	@ (8000bc0 <BL_Decrypt_Backup_Image+0x124>)
 8000aae:	4618      	mov	r0, r3
 8000ab0:	f003 fb50 	bl	8004154 <tc_aes128_set_decrypt_key>
 8000ab4:	4603      	mov	r3, r0
 8000ab6:	2b00      	cmp	r3, #0
 8000ab8:	d101      	bne.n	8000abe <BL_Decrypt_Backup_Image+0x22>
 8000aba:	2300      	movs	r3, #0
 8000abc:	e07b      	b.n	8000bb6 <BL_Decrypt_Backup_Image+0x11a>
  __ASM volatile ("cpsid i" : : : "memory");
 8000abe:	b672      	cpsid	i
}
 8000ac0:	bf00      	nop

    __disable_irq();
    HAL_FLASH_Unlock();
 8000ac2:	f001 f985 	bl	8001dd0 <HAL_FLASH_Unlock>

    erase.Sector = FLASH_SECTOR_7; // Scratch
 8000ac6:	2307      	movs	r3, #7
 8000ac8:	617b      	str	r3, [r7, #20]
    erase.TypeErase = FLASH_TYPEERASE_SECTORS;
 8000aca:	2300      	movs	r3, #0
 8000acc:	613b      	str	r3, [r7, #16]
    erase.VoltageRange = FLASH_VOLTAGE_RANGE_3;
 8000ace:	2302      	movs	r3, #2
 8000ad0:	61fb      	str	r3, [r7, #28]
    erase.NbSectors = 1;
 8000ad2:	2301      	movs	r3, #1
 8000ad4:	61bb      	str	r3, [r7, #24]

    if (HAL_FLASHEx_Erase(&erase, &error) != HAL_OK) {
 8000ad6:	f107 020c 	add.w	r2, r7, #12
 8000ada:	f107 0310 	add.w	r3, r7, #16
 8000ade:	4611      	mov	r1, r2
 8000ae0:	4618      	mov	r0, r3
 8000ae2:	f001 fae3 	bl	80020ac <HAL_FLASHEx_Erase>
 8000ae6:	4603      	mov	r3, r0
 8000ae8:	2b00      	cmp	r3, #0
 8000aea:	d005      	beq.n	8000af8 <BL_Decrypt_Backup_Image+0x5c>
        HAL_FLASH_Lock(); __enable_irq(); return 0;
 8000aec:	f001 f992 	bl	8001e14 <HAL_FLASH_Lock>
  __ASM volatile ("cpsie i" : : : "memory");
 8000af0:	b662      	cpsie	i
}
 8000af2:	bf00      	nop
 8000af4:	2300      	movs	r3, #0
 8000af6:	e05e      	b.n	8000bb6 <BL_Decrypt_Backup_Image+0x11a>
    }

    for (uint32_t offset = 0; offset < SLOT_SIZE; offset += 16) {
 8000af8:	2300      	movs	r3, #0
 8000afa:	f8c7 30f4 	str.w	r3, [r7, #244]	@ 0xf4
 8000afe:	e050      	b.n	8000ba2 <BL_Decrypt_Backup_Image+0x106>
        memcpy(buffer_enc, (void*)(src_addr + offset), 16);
 8000b00:	687a      	ldr	r2, [r7, #4]
 8000b02:	f8d7 30f4 	ldr.w	r3, [r7, #244]	@ 0xf4
 8000b06:	4413      	add	r3, r2
 8000b08:	f107 0430 	add.w	r4, r7, #48	@ 0x30
 8000b0c:	6818      	ldr	r0, [r3, #0]
 8000b0e:	6859      	ldr	r1, [r3, #4]
 8000b10:	689a      	ldr	r2, [r3, #8]
 8000b12:	68db      	ldr	r3, [r3, #12]
 8000b14:	c40f      	stmia	r4!, {r0, r1, r2, r3}

        if (tc_aes_decrypt(buffer_dec, buffer_enc, &s) == 0) {
 8000b16:	f107 0240 	add.w	r2, r7, #64	@ 0x40
 8000b1a:	f107 0130 	add.w	r1, r7, #48	@ 0x30
 8000b1e:	f107 0320 	add.w	r3, r7, #32
 8000b22:	4618      	mov	r0, r3
 8000b24:	f003 fe95 	bl	8004852 <tc_aes_decrypt>
 8000b28:	4603      	mov	r3, r0
 8000b2a:	2b00      	cmp	r3, #0
 8000b2c:	d105      	bne.n	8000b3a <BL_Decrypt_Backup_Image+0x9e>
             HAL_FLASH_Lock(); __enable_irq(); return 0;
 8000b2e:	f001 f971 	bl	8001e14 <HAL_FLASH_Lock>
  __ASM volatile ("cpsie i" : : : "memory");
 8000b32:	b662      	cpsie	i
}
 8000b34:	bf00      	nop
 8000b36:	2300      	movs	r3, #0
 8000b38:	e03d      	b.n	8000bb6 <BL_Decrypt_Backup_Image+0x11a>
        }

        for (int k = 0; k < 4; k++) {
 8000b3a:	2300      	movs	r3, #0
 8000b3c:	f8c7 30f0 	str.w	r3, [r7, #240]	@ 0xf0
 8000b40:	e026      	b.n	8000b90 <BL_Decrypt_Backup_Image+0xf4>
            uint32_t data_word;
            memcpy(&data_word, &buffer_dec[k*4], 4);
 8000b42:	f8d7 30f0 	ldr.w	r3, [r7, #240]	@ 0xf0
 8000b46:	009b      	lsls	r3, r3, #2
 8000b48:	f107 0220 	add.w	r2, r7, #32
 8000b4c:	4413      	add	r3, r2
 8000b4e:	681b      	ldr	r3, [r3, #0]
 8000b50:	60bb      	str	r3, [r7, #8]
            if (HAL_FLASH_Program(FLASH_TYPEPROGRAM_WORD, dest_addr + offset + (k*4), data_word) != HAL_OK) {
 8000b52:	683a      	ldr	r2, [r7, #0]
 8000b54:	f8d7 30f4 	ldr.w	r3, [r7, #244]	@ 0xf4
 8000b58:	4413      	add	r3, r2
 8000b5a:	f8d7 20f0 	ldr.w	r2, [r7, #240]	@ 0xf0
 8000b5e:	0092      	lsls	r2, r2, #2
 8000b60:	1899      	adds	r1, r3, r2
 8000b62:	68bb      	ldr	r3, [r7, #8]
 8000b64:	2200      	movs	r2, #0
 8000b66:	4698      	mov	r8, r3
 8000b68:	4691      	mov	r9, r2
 8000b6a:	4642      	mov	r2, r8
 8000b6c:	464b      	mov	r3, r9
 8000b6e:	2002      	movs	r0, #2
 8000b70:	f001 f8d4 	bl	8001d1c <HAL_FLASH_Program>
 8000b74:	4603      	mov	r3, r0
 8000b76:	2b00      	cmp	r3, #0
 8000b78:	d005      	beq.n	8000b86 <BL_Decrypt_Backup_Image+0xea>
                HAL_FLASH_Lock(); __enable_irq(); return 0;
 8000b7a:	f001 f94b 	bl	8001e14 <HAL_FLASH_Lock>
  __ASM volatile ("cpsie i" : : : "memory");
 8000b7e:	b662      	cpsie	i
}
 8000b80:	bf00      	nop
 8000b82:	2300      	movs	r3, #0
 8000b84:	e017      	b.n	8000bb6 <BL_Decrypt_Backup_Image+0x11a>
        for (int k = 0; k < 4; k++) {
 8000b86:	f8d7 30f0 	ldr.w	r3, [r7, #240]	@ 0xf0
 8000b8a:	3301      	adds	r3, #1
 8000b8c:	f8c7 30f0 	str.w	r3, [r7, #240]	@ 0xf0
 8000b90:	f8d7 30f0 	ldr.w	r3, [r7, #240]	@ 0xf0
 8000b94:	2b03      	cmp	r3, #3
 8000b96:	ddd4      	ble.n	8000b42 <BL_Decrypt_Backup_Image+0xa6>
    for (uint32_t offset = 0; offset < SLOT_SIZE; offset += 16) {
 8000b98:	f8d7 30f4 	ldr.w	r3, [r7, #244]	@ 0xf4
 8000b9c:	3310      	adds	r3, #16
 8000b9e:	f8c7 30f4 	str.w	r3, [r7, #244]	@ 0xf4
 8000ba2:	f8d7 30f4 	ldr.w	r3, [r7, #244]	@ 0xf4
 8000ba6:	f5b3 2f80 	cmp.w	r3, #262144	@ 0x40000
 8000baa:	d3a9      	bcc.n	8000b00 <BL_Decrypt_Backup_Image+0x64>
            }
        }
    }
    HAL_FLASH_Lock(); __enable_irq(); return 1;
 8000bac:	f001 f932 	bl	8001e14 <HAL_FLASH_Lock>
  __ASM volatile ("cpsie i" : : : "memory");
 8000bb0:	b662      	cpsie	i
}
 8000bb2:	bf00      	nop
 8000bb4:	2301      	movs	r3, #1
}
 8000bb6:	4618      	mov	r0, r3
 8000bb8:	37fc      	adds	r7, #252	@ 0xfc
 8000bba:	46bd      	mov	sp, r7
 8000bbc:	e8bd 8390 	ldmia.w	sp!, {r4, r7, r8, r9, pc}
 8000bc0:	08007ae4 	.word	0x08007ae4

08000bc4 <BL_Swap_NoBuffer>:
 * 2. Decrypt Image (S6) -> Scratchpad (S7).
 * 3. Backup Active App (S5) -> Download Slot (S6) (Encrypted).
 * 4. Install New App (S7) -> Active Slot (S5).
 * 5. Reset System.
 */
void BL_Swap_NoBuffer(void) {
 8000bc4:	b580      	push	{r7, lr}
 8000bc6:	b09e      	sub	sp, #120	@ 0x78
 8000bc8:	af00      	add	r7, sp, #0
    BootConfig_t cfg;
    BL_ReadConfig(&cfg);
 8000bca:	f107 0364 	add.w	r3, r7, #100	@ 0x64
 8000bce:	4618      	mov	r0, r3
 8000bd0:	f7ff fcb0 	bl	8000534 <BL_ReadConfig>

    uint32_t footer_addr = Find_Footer_Address(APP_DOWNLOAD_START_ADDR, SLOT_SIZE);
 8000bd4:	f44f 2180 	mov.w	r1, #262144	@ 0x40000
 8000bd8:	4854      	ldr	r0, [pc, #336]	@ (8000d2c <BL_Swap_NoBuffer+0x168>)
 8000bda:	f000 f927 	bl	8000e2c <Find_Footer_Address>
 8000bde:	6778      	str	r0, [r7, #116]	@ 0x74
    if (footer_addr == 0) {
 8000be0:	6f7b      	ldr	r3, [r7, #116]	@ 0x74
 8000be2:	2b00      	cmp	r3, #0
 8000be4:	d10a      	bne.n	8000bfc <BL_Swap_NoBuffer+0x38>
        printf("Error: No Footer found in S6.\r\n");
 8000be6:	4852      	ldr	r0, [pc, #328]	@ (8000d30 <BL_Swap_NoBuffer+0x16c>)
 8000be8:	f000 fd88 	bl	80016fc <tfp_printf>
        cfg.system_status = STATE_NORMAL;
 8000bec:	2304      	movs	r3, #4
 8000bee:	66bb      	str	r3, [r7, #104]	@ 0x68
        BL_WriteConfig(&cfg);
 8000bf0:	f107 0364 	add.w	r3, r7, #100	@ 0x64
 8000bf4:	4618      	mov	r0, r3
 8000bf6:	f7ff fcbf 	bl	8000578 <BL_WriteConfig>
        return;
 8000bfa:	e094      	b.n	8000d26 <BL_Swap_NoBuffer+0x162>
    }

    fw_footer_t footer;
    memcpy(&footer, (void*)footer_addr, sizeof(fw_footer_t));
 8000bfc:	6f79      	ldr	r1, [r7, #116]	@ 0x74
 8000bfe:	f107 0318 	add.w	r3, r7, #24
 8000c02:	224c      	movs	r2, #76	@ 0x4c
 8000c04:	4618      	mov	r0, r3
 8000c06:	f006 fa7b 	bl	8007100 <memcpy>

    printf("[BL] Verifying Signature... ");
 8000c0a:	484a      	ldr	r0, [pc, #296]	@ (8000d34 <BL_Swap_NoBuffer+0x170>)
 8000c0c:	f000 fd76 	bl	80016fc <tfp_printf>
    FW_Status_t status = Firmware_Is_Valid(APP_DOWNLOAD_START_ADDR, SLOT_SIZE);
 8000c10:	f44f 2180 	mov.w	r1, #262144	@ 0x40000
 8000c14:	4845      	ldr	r0, [pc, #276]	@ (8000d2c <BL_Swap_NoBuffer+0x168>)
 8000c16:	f000 f935 	bl	8000e84 <Firmware_Is_Valid>
 8000c1a:	4603      	mov	r3, r0
 8000c1c:	f887 3073 	strb.w	r3, [r7, #115]	@ 0x73

	if (status != BL_OK) {
 8000c20:	f897 3073 	ldrb.w	r3, [r7, #115]	@ 0x73
 8000c24:	2b00      	cmp	r3, #0
 8000c26:	d035      	beq.n	8000c94 <BL_Swap_NoBuffer+0xd0>
		printf("FAIL! Error Code: %d\r\n", status);
 8000c28:	f897 3073 	ldrb.w	r3, [r7, #115]	@ 0x73
 8000c2c:	4619      	mov	r1, r3
 8000c2e:	4842      	ldr	r0, [pc, #264]	@ (8000d38 <BL_Swap_NoBuffer+0x174>)
 8000c30:	f000 fd64 	bl	80016fc <tfp_printf>

		//Erase the Download Slot since the Firmware is not valid.
		FLASH_EraseInitTypeDef erase = {0};
 8000c34:	f107 0308 	add.w	r3, r7, #8
 8000c38:	2200      	movs	r2, #0
 8000c3a:	601a      	str	r2, [r3, #0]
 8000c3c:	605a      	str	r2, [r3, #4]
 8000c3e:	609a      	str	r2, [r3, #8]
 8000c40:	60da      	str	r2, [r3, #12]
		uint32_t error;
		HAL_FLASH_Unlock();
 8000c42:	f001 f8c5 	bl	8001dd0 <HAL_FLASH_Unlock>
		erase.Sector = FLASH_SECTOR_6;
 8000c46:	2306      	movs	r3, #6
 8000c48:	60fb      	str	r3, [r7, #12]
		erase.TypeErase = FLASH_TYPEERASE_SECTORS;
 8000c4a:	2300      	movs	r3, #0
 8000c4c:	60bb      	str	r3, [r7, #8]
		erase.VoltageRange = FLASH_VOLTAGE_RANGE_3;
 8000c4e:	2302      	movs	r3, #2
 8000c50:	617b      	str	r3, [r7, #20]
		erase.NbSectors = 1;
 8000c52:	2301      	movs	r3, #1
 8000c54:	613b      	str	r3, [r7, #16]
		HAL_FLASHEx_Erase(&erase, &error);
 8000c56:	1d3a      	adds	r2, r7, #4
 8000c58:	f107 0308 	add.w	r3, r7, #8
 8000c5c:	4611      	mov	r1, r2
 8000c5e:	4618      	mov	r0, r3
 8000c60:	f001 fa24 	bl	80020ac <HAL_FLASHEx_Erase>
		HAL_FLASH_Lock();
 8000c64:	f001 f8d6 	bl	8001e14 <HAL_FLASH_Lock>

		if (status == BL_ERR_SIG_FAIL) printf("Reason: ECDSA Signature Mismatch.\r\n");
 8000c68:	f897 3073 	ldrb.w	r3, [r7, #115]	@ 0x73
 8000c6c:	2b07      	cmp	r3, #7
 8000c6e:	d102      	bne.n	8000c76 <BL_Swap_NoBuffer+0xb2>
 8000c70:	4832      	ldr	r0, [pc, #200]	@ (8000d3c <BL_Swap_NoBuffer+0x178>)
 8000c72:	f000 fd43 	bl	80016fc <tfp_printf>
		if (status == BL_ERR_FOOTER_NOT_FOUND) printf("Reason: Footer Missing.\r\n");
 8000c76:	f897 3073 	ldrb.w	r3, [r7, #115]	@ 0x73
 8000c7a:	2b01      	cmp	r3, #1
 8000c7c:	d102      	bne.n	8000c84 <BL_Swap_NoBuffer+0xc0>
 8000c7e:	4830      	ldr	r0, [pc, #192]	@ (8000d40 <BL_Swap_NoBuffer+0x17c>)
 8000c80:	f000 fd3c 	bl	80016fc <tfp_printf>

		cfg.system_status = STATE_NORMAL;
 8000c84:	2304      	movs	r3, #4
 8000c86:	66bb      	str	r3, [r7, #104]	@ 0x68
		BL_WriteConfig(&cfg);
 8000c88:	f107 0364 	add.w	r3, r7, #100	@ 0x64
 8000c8c:	4618      	mov	r0, r3
 8000c8e:	f7ff fc73 	bl	8000578 <BL_WriteConfig>
 8000c92:	e048      	b.n	8000d26 <BL_Swap_NoBuffer+0x162>
		return;
	}
    printf("OK!\r\n");
 8000c94:	482b      	ldr	r0, [pc, #172]	@ (8000d44 <BL_Swap_NoBuffer+0x180>)
 8000c96:	f000 fd31 	bl	80016fc <tfp_printf>
    printf("[BL] Valid Update! Ver: %d, Payload: %d\r\n", (int)footer.version, (int)footer.size);
 8000c9a:	69bb      	ldr	r3, [r7, #24]
 8000c9c:	4619      	mov	r1, r3
 8000c9e:	69fb      	ldr	r3, [r7, #28]
 8000ca0:	461a      	mov	r2, r3
 8000ca2:	4829      	ldr	r0, [pc, #164]	@ (8000d48 <BL_Swap_NoBuffer+0x184>)
 8000ca4:	f000 fd2a 	bl	80016fc <tfp_printf>

    printf("[1/3] Decrypting S6 -> S7...\r\n");
 8000ca8:	4828      	ldr	r0, [pc, #160]	@ (8000d4c <BL_Swap_NoBuffer+0x188>)
 8000caa:	f000 fd27 	bl	80016fc <tfp_printf>
    if (!BL_Decrypt_Update_Image(APP_DOWNLOAD_START_ADDR, SCRATCH_ADDR, footer.size)) {
 8000cae:	69fb      	ldr	r3, [r7, #28]
 8000cb0:	461a      	mov	r2, r3
 8000cb2:	4927      	ldr	r1, [pc, #156]	@ (8000d50 <BL_Swap_NoBuffer+0x18c>)
 8000cb4:	481d      	ldr	r0, [pc, #116]	@ (8000d2c <BL_Swap_NoBuffer+0x168>)
 8000cb6:	f7ff fd39 	bl	800072c <BL_Decrypt_Update_Image>
 8000cba:	4603      	mov	r3, r0
 8000cbc:	2b00      	cmp	r3, #0
 8000cbe:	d103      	bne.n	8000cc8 <BL_Swap_NoBuffer+0x104>
        printf("Error: Decryption Failed.\r\n"); return;
 8000cc0:	4824      	ldr	r0, [pc, #144]	@ (8000d54 <BL_Swap_NoBuffer+0x190>)
 8000cc2:	f000 fd1b 	bl	80016fc <tfp_printf>
 8000cc6:	e02e      	b.n	8000d26 <BL_Swap_NoBuffer+0x162>
    }

    printf("[2/3] Backing up S5 -> S6...\r\n");
 8000cc8:	4823      	ldr	r0, [pc, #140]	@ (8000d58 <BL_Swap_NoBuffer+0x194>)
 8000cca:	f000 fd17 	bl	80016fc <tfp_printf>
    if (!BL_Encrypt_Backup(APP_ACTIVE_START_ADDR, APP_DOWNLOAD_START_ADDR)) {
 8000cce:	4917      	ldr	r1, [pc, #92]	@ (8000d2c <BL_Swap_NoBuffer+0x168>)
 8000cd0:	4822      	ldr	r0, [pc, #136]	@ (8000d5c <BL_Swap_NoBuffer+0x198>)
 8000cd2:	f7ff fe23 	bl	800091c <BL_Encrypt_Backup>
 8000cd6:	4603      	mov	r3, r0
 8000cd8:	2b00      	cmp	r3, #0
 8000cda:	d103      	bne.n	8000ce4 <BL_Swap_NoBuffer+0x120>
        printf("Error: Backup Failed.\r\n"); return;
 8000cdc:	4820      	ldr	r0, [pc, #128]	@ (8000d60 <BL_Swap_NoBuffer+0x19c>)
 8000cde:	f000 fd0d 	bl	80016fc <tfp_printf>
 8000ce2:	e020      	b.n	8000d26 <BL_Swap_NoBuffer+0x162>
    }

    printf("[3/3] Installing S7 -> S5...\r\n");
 8000ce4:	481f      	ldr	r0, [pc, #124]	@ (8000d64 <BL_Swap_NoBuffer+0x1a0>)
 8000ce6:	f000 fd09 	bl	80016fc <tfp_printf>
    if (!BL_Raw_Copy(SCRATCH_ADDR, APP_ACTIVE_START_ADDR, SLOT_SIZE)) {
 8000cea:	f44f 2280 	mov.w	r2, #262144	@ 0x40000
 8000cee:	491b      	ldr	r1, [pc, #108]	@ (8000d5c <BL_Swap_NoBuffer+0x198>)
 8000cf0:	4817      	ldr	r0, [pc, #92]	@ (8000d50 <BL_Swap_NoBuffer+0x18c>)
 8000cf2:	f7ff fc95 	bl	8000620 <BL_Raw_Copy>
 8000cf6:	4603      	mov	r3, r0
 8000cf8:	2b00      	cmp	r3, #0
 8000cfa:	d103      	bne.n	8000d04 <BL_Swap_NoBuffer+0x140>
        printf("Error: Installation Failed.\r\n"); return;
 8000cfc:	481a      	ldr	r0, [pc, #104]	@ (8000d68 <BL_Swap_NoBuffer+0x1a4>)
 8000cfe:	f000 fcfd 	bl	80016fc <tfp_printf>
 8000d02:	e010      	b.n	8000d26 <BL_Swap_NoBuffer+0x162>
    }

    printf("[BL] Update Successful! Setting State to NORMAL.\r\n");
 8000d04:	4819      	ldr	r0, [pc, #100]	@ (8000d6c <BL_Swap_NoBuffer+0x1a8>)
 8000d06:	f000 fcf9 	bl	80016fc <tfp_printf>
    cfg.system_status = STATE_NORMAL;
 8000d0a:	2304      	movs	r3, #4
 8000d0c:	66bb      	str	r3, [r7, #104]	@ 0x68
    cfg.current_version = footer.version;
 8000d0e:	69bb      	ldr	r3, [r7, #24]
 8000d10:	66fb      	str	r3, [r7, #108]	@ 0x6c
    BL_WriteConfig(&cfg);
 8000d12:	f107 0364 	add.w	r3, r7, #100	@ 0x64
 8000d16:	4618      	mov	r0, r3
 8000d18:	f7ff fc2e 	bl	8000578 <BL_WriteConfig>

    printf("Swap Complete. Resetting...\r\n");
 8000d1c:	4814      	ldr	r0, [pc, #80]	@ (8000d70 <BL_Swap_NoBuffer+0x1ac>)
 8000d1e:	f000 fced 	bl	80016fc <tfp_printf>
    HAL_NVIC_SystemReset();
 8000d22:	f000 ff72 	bl	8001c0a <HAL_NVIC_SystemReset>
}
 8000d26:	3778      	adds	r7, #120	@ 0x78
 8000d28:	46bd      	mov	sp, r7
 8000d2a:	bd80      	pop	{r7, pc}
 8000d2c:	08080000 	.word	0x08080000
 8000d30:	08007290 	.word	0x08007290
 8000d34:	080072b0 	.word	0x080072b0
 8000d38:	080072d0 	.word	0x080072d0
 8000d3c:	080072e8 	.word	0x080072e8
 8000d40:	0800730c 	.word	0x0800730c
 8000d44:	08007328 	.word	0x08007328
 8000d48:	08007330 	.word	0x08007330
 8000d4c:	0800735c 	.word	0x0800735c
 8000d50:	080c0000 	.word	0x080c0000
 8000d54:	0800737c 	.word	0x0800737c
 8000d58:	08007398 	.word	0x08007398
 8000d5c:	08040000 	.word	0x08040000
 8000d60:	080073b8 	.word	0x080073b8
 8000d64:	080073d0 	.word	0x080073d0
 8000d68:	080073f0 	.word	0x080073f0
 8000d6c:	08007410 	.word	0x08007410
 8000d70:	08007444 	.word	0x08007444

08000d74 <BL_Rollback>:
 * 1. Decrypt Backup (S6) -> Scratchpad (S7).
 * 2. Backup Active App (S5) -> Download Slot (S6) (Encrypted).
 * 3. Install Old App (S7) -> Active Slot (S5).
 * 4. Reset System.
 */
void BL_Rollback(void) {
 8000d74:	b580      	push	{r7, lr}
 8000d76:	b084      	sub	sp, #16
 8000d78:	af00      	add	r7, sp, #0
    BootConfig_t cfg;
    BL_ReadConfig(&cfg);
 8000d7a:	1d3b      	adds	r3, r7, #4
 8000d7c:	4618      	mov	r0, r3
 8000d7e:	f7ff fbd9 	bl	8000534 <BL_ReadConfig>

    printf("\r\n[BL] Starting Rollback/Toggle...\r\n");
 8000d82:	481f      	ldr	r0, [pc, #124]	@ (8000e00 <BL_Rollback+0x8c>)
 8000d84:	f000 fcba 	bl	80016fc <tfp_printf>

    HAL_FLASH_Unlock();
 8000d88:	f001 f822 	bl	8001dd0 <HAL_FLASH_Unlock>

    printf("[1/3] Decrypting Backup (S6 -> S7)...\r\n");
 8000d8c:	481d      	ldr	r0, [pc, #116]	@ (8000e04 <BL_Rollback+0x90>)
 8000d8e:	f000 fcb5 	bl	80016fc <tfp_printf>
    if (!BL_Decrypt_Backup_Image(APP_DOWNLOAD_START_ADDR, SCRATCH_ADDR)) {
 8000d92:	491d      	ldr	r1, [pc, #116]	@ (8000e08 <BL_Rollback+0x94>)
 8000d94:	481d      	ldr	r0, [pc, #116]	@ (8000e0c <BL_Rollback+0x98>)
 8000d96:	f7ff fe81 	bl	8000a9c <BL_Decrypt_Backup_Image>
 8000d9a:	4603      	mov	r3, r0
 8000d9c:	2b00      	cmp	r3, #0
 8000d9e:	d103      	bne.n	8000da8 <BL_Rollback+0x34>
        printf("Error: Rollback Decryption Failed.\r\n");
 8000da0:	481b      	ldr	r0, [pc, #108]	@ (8000e10 <BL_Rollback+0x9c>)
 8000da2:	f000 fcab 	bl	80016fc <tfp_printf>
        return;
 8000da6:	e028      	b.n	8000dfa <BL_Rollback+0x86>
    }

    printf("[2/3] Backing up Current App (S5 -> S6)...\r\n");
 8000da8:	481a      	ldr	r0, [pc, #104]	@ (8000e14 <BL_Rollback+0xa0>)
 8000daa:	f000 fca7 	bl	80016fc <tfp_printf>
    if (!BL_Encrypt_Backup(APP_ACTIVE_START_ADDR, APP_DOWNLOAD_START_ADDR)) {
 8000dae:	4917      	ldr	r1, [pc, #92]	@ (8000e0c <BL_Rollback+0x98>)
 8000db0:	4819      	ldr	r0, [pc, #100]	@ (8000e18 <BL_Rollback+0xa4>)
 8000db2:	f7ff fdb3 	bl	800091c <BL_Encrypt_Backup>
 8000db6:	4603      	mov	r3, r0
 8000db8:	2b00      	cmp	r3, #0
 8000dba:	d103      	bne.n	8000dc4 <BL_Rollback+0x50>
        printf("Error: Backup Failed.\r\n");
 8000dbc:	4817      	ldr	r0, [pc, #92]	@ (8000e1c <BL_Rollback+0xa8>)
 8000dbe:	f000 fc9d 	bl	80016fc <tfp_printf>
        return;
 8000dc2:	e01a      	b.n	8000dfa <BL_Rollback+0x86>
    }

    printf("[3/3] Restoring Old App (S7 -> S5)...\r\n");
 8000dc4:	4816      	ldr	r0, [pc, #88]	@ (8000e20 <BL_Rollback+0xac>)
 8000dc6:	f000 fc99 	bl	80016fc <tfp_printf>
    if (!BL_Raw_Copy(SCRATCH_ADDR, APP_ACTIVE_START_ADDR, SLOT_SIZE)) {
 8000dca:	f44f 2280 	mov.w	r2, #262144	@ 0x40000
 8000dce:	4912      	ldr	r1, [pc, #72]	@ (8000e18 <BL_Rollback+0xa4>)
 8000dd0:	480d      	ldr	r0, [pc, #52]	@ (8000e08 <BL_Rollback+0x94>)
 8000dd2:	f7ff fc25 	bl	8000620 <BL_Raw_Copy>
 8000dd6:	4603      	mov	r3, r0
 8000dd8:	2b00      	cmp	r3, #0
 8000dda:	d103      	bne.n	8000de4 <BL_Rollback+0x70>
        printf("Error: Installation Failed.\r\n");
 8000ddc:	4811      	ldr	r0, [pc, #68]	@ (8000e24 <BL_Rollback+0xb0>)
 8000dde:	f000 fc8d 	bl	80016fc <tfp_printf>
        return;
 8000de2:	e00a      	b.n	8000dfa <BL_Rollback+0x86>
    }

    printf("[BL] Rollback Successful! Resetting...\r\n");
 8000de4:	4810      	ldr	r0, [pc, #64]	@ (8000e28 <BL_Rollback+0xb4>)
 8000de6:	f000 fc89 	bl	80016fc <tfp_printf>
    cfg.system_status = STATE_NORMAL;
 8000dea:	2304      	movs	r3, #4
 8000dec:	60bb      	str	r3, [r7, #8]
    BL_WriteConfig(&cfg);
 8000dee:	1d3b      	adds	r3, r7, #4
 8000df0:	4618      	mov	r0, r3
 8000df2:	f7ff fbc1 	bl	8000578 <BL_WriteConfig>
    HAL_NVIC_SystemReset();
 8000df6:	f000 ff08 	bl	8001c0a <HAL_NVIC_SystemReset>
}
 8000dfa:	3710      	adds	r7, #16
 8000dfc:	46bd      	mov	sp, r7
 8000dfe:	bd80      	pop	{r7, pc}
 8000e00:	08007464 	.word	0x08007464
 8000e04:	0800748c 	.word	0x0800748c
 8000e08:	080c0000 	.word	0x080c0000
 8000e0c:	08080000 	.word	0x08080000
 8000e10:	080074b4 	.word	0x080074b4
 8000e14:	080074dc 	.word	0x080074dc
 8000e18:	08040000 	.word	0x08040000
 8000e1c:	080073b8 	.word	0x080073b8
 8000e20:	0800750c 	.word	0x0800750c
 8000e24:	080073f0 	.word	0x080073f0
 8000e28:	08007534 	.word	0x08007534

08000e2c <Find_Footer_Address>:
 * @param  slot_start Start address of the Flash sector/slot.
 * @param  slot_size  Size of the slot in bytes.
 * @retval Address of the fw_footer_t structure, or 0 if not found.
 */
uint32_t Find_Footer_Address(uint32_t slot_start, uint32_t slot_size)
{
 8000e2c:	b480      	push	{r7}
 8000e2e:	b087      	sub	sp, #28
 8000e30:	af00      	add	r7, sp, #0
 8000e32:	6078      	str	r0, [r7, #4]
 8000e34:	6039      	str	r1, [r7, #0]
    uint32_t slot_end = slot_start + slot_size;
 8000e36:	687a      	ldr	r2, [r7, #4]
 8000e38:	683b      	ldr	r3, [r7, #0]
 8000e3a:	4413      	add	r3, r2
 8000e3c:	613b      	str	r3, [r7, #16]

    // Scan backwards from end of slot, 4 bytes at a time
    for (uint32_t addr = slot_end - 4; addr >= slot_start; addr -= 4)
 8000e3e:	693b      	ldr	r3, [r7, #16]
 8000e40:	3b04      	subs	r3, #4
 8000e42:	617b      	str	r3, [r7, #20]
 8000e44:	e011      	b.n	8000e6a <Find_Footer_Address+0x3e>
    {
        if (*(uint32_t*)addr == FOOTER_MAGIC)
 8000e46:	697b      	ldr	r3, [r7, #20]
 8000e48:	681b      	ldr	r3, [r3, #0]
 8000e4a:	4a0d      	ldr	r2, [pc, #52]	@ (8000e80 <Find_Footer_Address+0x54>)
 8000e4c:	4293      	cmp	r3, r2
 8000e4e:	d109      	bne.n	8000e64 <Find_Footer_Address+0x38>
        {
            uint32_t footer_start = addr - (sizeof(fw_footer_t) - 4);
 8000e50:	697b      	ldr	r3, [r7, #20]
 8000e52:	3b48      	subs	r3, #72	@ 0x48
 8000e54:	60fb      	str	r3, [r7, #12]
            if (footer_start < slot_start) continue;
 8000e56:	68fa      	ldr	r2, [r7, #12]
 8000e58:	687b      	ldr	r3, [r7, #4]
 8000e5a:	429a      	cmp	r2, r3
 8000e5c:	d301      	bcc.n	8000e62 <Find_Footer_Address+0x36>
            return footer_start;
 8000e5e:	68fb      	ldr	r3, [r7, #12]
 8000e60:	e008      	b.n	8000e74 <Find_Footer_Address+0x48>
            if (footer_start < slot_start) continue;
 8000e62:	bf00      	nop
    for (uint32_t addr = slot_end - 4; addr >= slot_start; addr -= 4)
 8000e64:	697b      	ldr	r3, [r7, #20]
 8000e66:	3b04      	subs	r3, #4
 8000e68:	617b      	str	r3, [r7, #20]
 8000e6a:	697a      	ldr	r2, [r7, #20]
 8000e6c:	687b      	ldr	r3, [r7, #4]
 8000e6e:	429a      	cmp	r2, r3
 8000e70:	d2e9      	bcs.n	8000e46 <Find_Footer_Address+0x1a>
        }
    }
    return 0; // Not found
 8000e72:	2300      	movs	r3, #0
}
 8000e74:	4618      	mov	r0, r3
 8000e76:	371c      	adds	r7, #28
 8000e78:	46bd      	mov	sp, r7
 8000e7a:	f85d 7b04 	ldr.w	r7, [sp], #4
 8000e7e:	4770      	bx	lr
 8000e80:	454e4421 	.word	0x454e4421

08000e84 <Firmware_Is_Valid>:
 * @param  start_addr Start address of the image in Flash.
 * @param  slot_size  Maximum size of the slot.
 * @retval BL_OK on success, or specific error code (e.g., BL_ERR_SIG_FAIL) on failure.
 */
FW_Status_t Firmware_Is_Valid(uint32_t start_addr, uint32_t slot_size)
{
 8000e84:	b590      	push	{r4, r7, lr}
 8000e86:	b0ad      	sub	sp, #180	@ 0xb4
 8000e88:	af02      	add	r7, sp, #8
 8000e8a:	6078      	str	r0, [r7, #4]
 8000e8c:	6039      	str	r1, [r7, #0]
    // 1. Find the footer
    uint32_t footer_addr = Find_Footer_Address(start_addr, slot_size);
 8000e8e:	6839      	ldr	r1, [r7, #0]
 8000e90:	6878      	ldr	r0, [r7, #4]
 8000e92:	f7ff ffcb 	bl	8000e2c <Find_Footer_Address>
 8000e96:	f8c7 00a4 	str.w	r0, [r7, #164]	@ 0xa4

    if (footer_addr == 0) {
 8000e9a:	f8d7 30a4 	ldr.w	r3, [r7, #164]	@ 0xa4
 8000e9e:	2b00      	cmp	r3, #0
 8000ea0:	d101      	bne.n	8000ea6 <Firmware_Is_Valid+0x22>
        return BL_ERR_FOOTER_NOT_FOUND;
 8000ea2:	2301      	movs	r3, #1
 8000ea4:	e043      	b.n	8000f2e <Firmware_Is_Valid+0xaa>
    }

    fw_footer_t *footer = (fw_footer_t *)footer_addr;
 8000ea6:	f8d7 30a4 	ldr.w	r3, [r7, #164]	@ 0xa4
 8000eaa:	f8c7 30a0 	str.w	r3, [r7, #160]	@ 0xa0

    // Sanity check: Ensure payload size isn't larger than the slot
    if (footer->size > slot_size) {
 8000eae:	f8d7 30a0 	ldr.w	r3, [r7, #160]	@ 0xa0
 8000eb2:	685b      	ldr	r3, [r3, #4]
 8000eb4:	683a      	ldr	r2, [r7, #0]
 8000eb6:	429a      	cmp	r2, r3
 8000eb8:	d201      	bcs.n	8000ebe <Firmware_Is_Valid+0x3a>
        return BL_ERR_IMAGE_SIZE_BAD;
 8000eba:	2303      	movs	r3, #3
 8000ebc:	e037      	b.n	8000f2e <Firmware_Is_Valid+0xaa>

    // 2. Hash the Payload
    struct tc_sha256_state_struct s;
    uint8_t digest[32];

    if (tc_sha256_init(&s) != 1) return BL_ERR_HASH_FAIL;
 8000ebe:	f107 0328 	add.w	r3, r7, #40	@ 0x28
 8000ec2:	4618      	mov	r0, r3
 8000ec4:	f005 fd68 	bl	8006998 <tc_sha256_init>
 8000ec8:	4603      	mov	r3, r0
 8000eca:	2b01      	cmp	r3, #1
 8000ecc:	d001      	beq.n	8000ed2 <Firmware_Is_Valid+0x4e>
 8000ece:	2306      	movs	r3, #6
 8000ed0:	e02d      	b.n	8000f2e <Firmware_Is_Valid+0xaa>

    // Hash the exact size specified in the footer
    tc_sha256_update(&s, (uint8_t*)start_addr, footer->size);
 8000ed2:	6879      	ldr	r1, [r7, #4]
 8000ed4:	f8d7 30a0 	ldr.w	r3, [r7, #160]	@ 0xa0
 8000ed8:	685a      	ldr	r2, [r3, #4]
 8000eda:	f107 0328 	add.w	r3, r7, #40	@ 0x28
 8000ede:	4618      	mov	r0, r3
 8000ee0:	f005 fd96 	bl	8006a10 <tc_sha256_update>

    if (tc_sha256_final(digest, &s) != 1) return BL_ERR_HASH_FAIL;
 8000ee4:	f107 0228 	add.w	r2, r7, #40	@ 0x28
 8000ee8:	f107 0308 	add.w	r3, r7, #8
 8000eec:	4611      	mov	r1, r2
 8000eee:	4618      	mov	r0, r3
 8000ef0:	f005 fdd1 	bl	8006a96 <tc_sha256_final>
 8000ef4:	4603      	mov	r3, r0
 8000ef6:	2b01      	cmp	r3, #1
 8000ef8:	d001      	beq.n	8000efe <Firmware_Is_Valid+0x7a>
 8000efa:	2306      	movs	r3, #6
 8000efc:	e017      	b.n	8000f2e <Firmware_Is_Valid+0xaa>
    // 3. Verify Signature
    int verify_result = uECC_verify(
        ECDSA_public_key_xy,
        digest,
        32,
        footer->signature,
 8000efe:	f8d7 30a0 	ldr.w	r3, [r7, #160]	@ 0xa0
 8000f02:	f103 0408 	add.w	r4, r3, #8
    int verify_result = uECC_verify(
 8000f06:	f004 ff9b 	bl	8005e40 <uECC_secp256r1>
 8000f0a:	4603      	mov	r3, r0
 8000f0c:	f107 0108 	add.w	r1, r7, #8
 8000f10:	9300      	str	r3, [sp, #0]
 8000f12:	4623      	mov	r3, r4
 8000f14:	2220      	movs	r2, #32
 8000f16:	4808      	ldr	r0, [pc, #32]	@ (8000f38 <Firmware_Is_Valid+0xb4>)
 8000f18:	f005 fa6c 	bl	80063f4 <uECC_verify>
 8000f1c:	f8c7 009c 	str.w	r0, [r7, #156]	@ 0x9c
        uECC_secp256r1()
    );

    if (verify_result == 1) {
 8000f20:	f8d7 309c 	ldr.w	r3, [r7, #156]	@ 0x9c
 8000f24:	2b01      	cmp	r3, #1
 8000f26:	d101      	bne.n	8000f2c <Firmware_Is_Valid+0xa8>
        return BL_OK; // Success!
 8000f28:	2300      	movs	r3, #0
 8000f2a:	e000      	b.n	8000f2e <Firmware_Is_Valid+0xaa>
    } else {
        return BL_ERR_SIG_FAIL; // Cryptographic failure
 8000f2c:	2307      	movs	r3, #7
    }
}
 8000f2e:	4618      	mov	r0, r3
 8000f30:	37ac      	adds	r7, #172	@ 0xac
 8000f32:	46bd      	mov	sp, r7
 8000f34:	bd90      	pop	{r4, r7, pc}
 8000f36:	bf00      	nop
 8000f38:	08007af4 	.word	0x08007af4

08000f3c <Bootloader_JumpToApp>:


#include "main.h"
#include "jump_to_app.h"
#include "mem_layout.h"
void Bootloader_JumpToApp(void) {
 8000f3c:	b580      	push	{r7, lr}
 8000f3e:	b086      	sub	sp, #24
 8000f40:	af00      	add	r7, sp, #0
    uint32_t app_addr = APP_ACTIVE_START_ADDR;
 8000f42:	4b23      	ldr	r3, [pc, #140]	@ (8000fd0 <Bootloader_JumpToApp+0x94>)
 8000f44:	613b      	str	r3, [r7, #16]
    uint32_t app_stack_addr = *(volatile uint32_t*)app_addr;
 8000f46:	693b      	ldr	r3, [r7, #16]
 8000f48:	681b      	ldr	r3, [r3, #0]
 8000f4a:	60fb      	str	r3, [r7, #12]
    uint32_t app_reset_handler = *(volatile uint32_t*)(app_addr + 4);
 8000f4c:	693b      	ldr	r3, [r7, #16]
 8000f4e:	3304      	adds	r3, #4
 8000f50:	681b      	ldr	r3, [r3, #0]
 8000f52:	60bb      	str	r3, [r7, #8]

    //volatile uint32_t ctrl = __get_CONTROL();

    if ((app_stack_addr & 0x20000000) != 0x20000000) {
 8000f54:	68fb      	ldr	r3, [r7, #12]
 8000f56:	f003 5300 	and.w	r3, r3, #536870912	@ 0x20000000
 8000f5a:	2b00      	cmp	r3, #0
 8000f5c:	d033      	beq.n	8000fc6 <Bootloader_JumpToApp+0x8a>
        return;
    }

    // 1. DISABLE MPU (The ONLY new thing you need)
    HAL_MPU_Disable();
 8000f5e:	f000 fe65 	bl	8001c2c <HAL_MPU_Disable>

    // 2. DISABLE SYSTICK
    SysTick->CTRL = 0;
 8000f62:	4b1c      	ldr	r3, [pc, #112]	@ (8000fd4 <Bootloader_JumpToApp+0x98>)
 8000f64:	2200      	movs	r2, #0
 8000f66:	601a      	str	r2, [r3, #0]
    SysTick->LOAD = 0;
 8000f68:	4b1a      	ldr	r3, [pc, #104]	@ (8000fd4 <Bootloader_JumpToApp+0x98>)
 8000f6a:	2200      	movs	r2, #0
 8000f6c:	605a      	str	r2, [r3, #4]
    SysTick->VAL  = 0;
 8000f6e:	4b19      	ldr	r3, [pc, #100]	@ (8000fd4 <Bootloader_JumpToApp+0x98>)
 8000f70:	2200      	movs	r2, #0
 8000f72:	609a      	str	r2, [r3, #8]
  __ASM volatile ("cpsid i" : : : "memory");
 8000f74:	b672      	cpsid	i
}
 8000f76:	bf00      	nop

    // 4. DISABLE INTERRUPTS
    __disable_irq();


    HAL_DeInit();
 8000f78:	f000 fcb0 	bl	80018dc <HAL_DeInit>

    // 5. CLEAR PENDING INTERRUPTS
    for (int i = 0; i < 8; i++) {
 8000f7c:	2300      	movs	r3, #0
 8000f7e:	617b      	str	r3, [r7, #20]
 8000f80:	e010      	b.n	8000fa4 <Bootloader_JumpToApp+0x68>
        NVIC->ICER[i] = 0xFFFFFFFF;
 8000f82:	4a15      	ldr	r2, [pc, #84]	@ (8000fd8 <Bootloader_JumpToApp+0x9c>)
 8000f84:	697b      	ldr	r3, [r7, #20]
 8000f86:	3320      	adds	r3, #32
 8000f88:	f04f 31ff 	mov.w	r1, #4294967295
 8000f8c:	f842 1023 	str.w	r1, [r2, r3, lsl #2]
        NVIC->ICPR[i] = 0xFFFFFFFF;
 8000f90:	4a11      	ldr	r2, [pc, #68]	@ (8000fd8 <Bootloader_JumpToApp+0x9c>)
 8000f92:	697b      	ldr	r3, [r7, #20]
 8000f94:	3360      	adds	r3, #96	@ 0x60
 8000f96:	f04f 31ff 	mov.w	r1, #4294967295
 8000f9a:	f842 1023 	str.w	r1, [r2, r3, lsl #2]
    for (int i = 0; i < 8; i++) {
 8000f9e:	697b      	ldr	r3, [r7, #20]
 8000fa0:	3301      	adds	r3, #1
 8000fa2:	617b      	str	r3, [r7, #20]
 8000fa4:	697b      	ldr	r3, [r7, #20]
 8000fa6:	2b07      	cmp	r3, #7
 8000fa8:	ddeb      	ble.n	8000f82 <Bootloader_JumpToApp+0x46>
    }

    // 6. RELOCATE VECTOR TABLE
    SCB->VTOR = app_addr;
 8000faa:	4a0c      	ldr	r2, [pc, #48]	@ (8000fdc <Bootloader_JumpToApp+0xa0>)
 8000fac:	693b      	ldr	r3, [r7, #16]
 8000fae:	6093      	str	r3, [r2, #8]
 8000fb0:	68fb      	ldr	r3, [r7, #12]
 8000fb2:	603b      	str	r3, [r7, #0]
  \details Assigns the given value to the Main Stack Pointer (MSP).
  \param [in]    topOfMainStack  Main Stack Pointer value to set
 */
__STATIC_FORCEINLINE void __set_MSP(uint32_t topOfMainStack)
{
  __ASM volatile ("MSR msp, %0" : : "r" (topOfMainStack) : );
 8000fb4:	683b      	ldr	r3, [r7, #0]
 8000fb6:	f383 8808 	msr	MSP, r3
}
 8000fba:	bf00      	nop

    // 7. JUMP
    __set_MSP(app_stack_addr);
    void (*pJump)(void) = (void (*)(void))app_reset_handler;
 8000fbc:	68bb      	ldr	r3, [r7, #8]
 8000fbe:	607b      	str	r3, [r7, #4]
    pJump();
 8000fc0:	687b      	ldr	r3, [r7, #4]
 8000fc2:	4798      	blx	r3
 8000fc4:	e000      	b.n	8000fc8 <Bootloader_JumpToApp+0x8c>
        return;
 8000fc6:	bf00      	nop
}
 8000fc8:	3718      	adds	r7, #24
 8000fca:	46bd      	mov	sp, r7
 8000fcc:	bd80      	pop	{r7, pc}
 8000fce:	bf00      	nop
 8000fd0:	08040000 	.word	0x08040000
 8000fd4:	e000e010 	.word	0xe000e010
 8000fd8:	e000e100 	.word	0xe000e100
 8000fdc:	e000ed00 	.word	0xe000ed00

08000fe0 <main>:
/**
  * @brief  The application entry point.
  * @retval int
  */
int main(void)
{
 8000fe0:	b580      	push	{r7, lr}
 8000fe2:	b084      	sub	sp, #16
 8000fe4:	af00      	add	r7, sp, #0
  /* USER CODE BEGIN 1 */

  /* USER CODE END 1 */

  /* MPU Configuration--------------------------------------------------------*/
  MPU_Config();
 8000fe6:	f000 f9c5 	bl	8001374 <MPU_Config>

  /* MCU Configuration--------------------------------------------------------*/

  /* Reset of all peripherals, Initializes the Flash interface and the Systick. */
  HAL_Init();
 8000fea:	f000 fc6a 	bl	80018c2 <HAL_Init>
  /* USER CODE BEGIN Init */

  /* USER CODE END Init */

  /* Configure the system clock */
  SystemClock_Config();
 8000fee:	f000 f8d1 	bl	8001194 <SystemClock_Config>
  /* USER CODE BEGIN SysInit */

  /* USER CODE END SysInit */

  /* Initialize all configured peripherals */
  MX_GPIO_Init();
 8000ff2:	f000 f967 	bl	80012c4 <MX_GPIO_Init>
  MX_USART1_UART_Init();
 8000ff6:	f000 f935 	bl	8001264 <MX_USART1_UART_Init>
  /* USER CODE BEGIN 2 */

  tfp_init(&huart1);
 8000ffa:	484f      	ldr	r0, [pc, #316]	@ (8001138 <main+0x158>)
 8000ffc:	f000 fae8 	bl	80015d0 <tfp_init>
  printf("\r\n========================================\r\n");
 8001000:	484e      	ldr	r0, [pc, #312]	@ (800113c <main+0x15c>)
 8001002:	f000 fb7b 	bl	80016fc <tfp_printf>
  printf("Starting Bootloader Version-(%d,%d)\r\n", 1, 7);
 8001006:	2207      	movs	r2, #7
 8001008:	2101      	movs	r1, #1
 800100a:	484d      	ldr	r0, [pc, #308]	@ (8001140 <main+0x160>)
 800100c:	f000 fb76 	bl	80016fc <tfp_printf>
  printf("========================================\r\n");
 8001010:	484c      	ldr	r0, [pc, #304]	@ (8001144 <main+0x164>)
 8001012:	f000 fb73 	bl	80016fc <tfp_printf>

  if (BL_ReadConfig(&config)) {
 8001016:	484c      	ldr	r0, [pc, #304]	@ (8001148 <main+0x168>)
 8001018:	f7ff fa8c 	bl	8000534 <BL_ReadConfig>
 800101c:	4603      	mov	r3, r0
 800101e:	2b00      	cmp	r3, #0
 8001020:	d005      	beq.n	800102e <main+0x4e>
      printf("[BL] Config Invalid/Empty. Initialized to Defaults.\r\n");
 8001022:	484a      	ldr	r0, [pc, #296]	@ (800114c <main+0x16c>)
 8001024:	f000 fb6a 	bl	80016fc <tfp_printf>
      BL_WriteConfig(&config);
 8001028:	4847      	ldr	r0, [pc, #284]	@ (8001148 <main+0x168>)
 800102a:	f7ff faa5 	bl	8000578 <BL_WriteConfig>
  }

  //Check User Button
  if (HAL_GPIO_ReadPin(GPIOI, GPIO_PIN_11) == GPIO_PIN_SET) {
 800102e:	f44f 6100 	mov.w	r1, #2048	@ 0x800
 8001032:	4847      	ldr	r0, [pc, #284]	@ (8001150 <main+0x170>)
 8001034:	f001 fac2 	bl	80025bc <HAL_GPIO_ReadPin>
 8001038:	4603      	mov	r3, r0
 800103a:	2b01      	cmp	r3, #1
 800103c:	d11b      	bne.n	8001076 <main+0x96>
	  printf("[BL] Button Pressed! Determining Mode...\r\n");
 800103e:	4845      	ldr	r0, [pc, #276]	@ (8001154 <main+0x174>)
 8001040:	f000 fb5c 	bl	80016fc <tfp_printf>

	//Check Firmware in Download Slot
	FW_Status_t status = Firmware_Is_Valid(APP_DOWNLOAD_START_ADDR, SLOT_SIZE);
 8001044:	f44f 2180 	mov.w	r1, #262144	@ 0x40000
 8001048:	4843      	ldr	r0, [pc, #268]	@ (8001158 <main+0x178>)
 800104a:	f7ff ff1b 	bl	8000e84 <Firmware_Is_Valid>
 800104e:	4603      	mov	r3, r0
 8001050:	73fb      	strb	r3, [r7, #15]

	if (status == BL_OK) {
 8001052:	7bfb      	ldrb	r3, [r7, #15]
 8001054:	2b00      	cmp	r3, #0
 8001056:	d106      	bne.n	8001066 <main+0x86>
		printf(" -> Valid Footer Found. Requesting UPDATE.\r\n");
 8001058:	4840      	ldr	r0, [pc, #256]	@ (800115c <main+0x17c>)
 800105a:	f000 fb4f 	bl	80016fc <tfp_printf>
		config.system_status = STATE_UPDATE_REQ;
 800105e:	4b3a      	ldr	r3, [pc, #232]	@ (8001148 <main+0x168>)
 8001060:	2205      	movs	r2, #5
 8001062:	605a      	str	r2, [r3, #4]
 8001064:	e007      	b.n	8001076 <main+0x96>
	}
	else {
		//If status is not OK. Then go to Active App.
		printf(" -> No Update Found (Error Code: %d). Requesting ROLLBACK.\r\n", status);
 8001066:	7bfb      	ldrb	r3, [r7, #15]
 8001068:	4619      	mov	r1, r3
 800106a:	483d      	ldr	r0, [pc, #244]	@ (8001160 <main+0x180>)
 800106c:	f000 fb46 	bl	80016fc <tfp_printf>
		config.system_status = STATE_NORMAL;
 8001070:	4b35      	ldr	r3, [pc, #212]	@ (8001148 <main+0x168>)
 8001072:	2204      	movs	r2, #4
 8001074:	605a      	str	r2, [r3, #4]
	}
  }

  // 3. State Machine
  switch(config.system_status){
 8001076:	4b34      	ldr	r3, [pc, #208]	@ (8001148 <main+0x168>)
 8001078:	685b      	ldr	r3, [r3, #4]
 800107a:	2b05      	cmp	r3, #5
 800107c:	d002      	beq.n	8001084 <main+0xa4>
 800107e:	2b06      	cmp	r3, #6
 8001080:	d00f      	beq.n	80010a2 <main+0xc2>
 8001082:	e01a      	b.n	80010ba <main+0xda>
      case STATE_UPDATE_REQ:
          printf("[BL] State: UPDATE REQUESTED.\r\n");
 8001084:	4837      	ldr	r0, [pc, #220]	@ (8001164 <main+0x184>)
 8001086:	f000 fb39 	bl	80016fc <tfp_printf>
          BL_Swap_NoBuffer();
 800108a:	f7ff fd9b 	bl	8000bc4 <BL_Swap_NoBuffer>

          printf("[BL] Update Process Finished/Failed. Clearing state.\r\n");
 800108e:	4836      	ldr	r0, [pc, #216]	@ (8001168 <main+0x188>)
 8001090:	f000 fb34 	bl	80016fc <tfp_printf>
          config.system_status = STATE_NORMAL;
 8001094:	4b2c      	ldr	r3, [pc, #176]	@ (8001148 <main+0x168>)
 8001096:	2204      	movs	r2, #4
 8001098:	605a      	str	r2, [r3, #4]
          BL_WriteConfig(&config);
 800109a:	482b      	ldr	r0, [pc, #172]	@ (8001148 <main+0x168>)
 800109c:	f7ff fa6c 	bl	8000578 <BL_WriteConfig>
          break;
 80010a0:	e048      	b.n	8001134 <main+0x154>

      case STATE_ROLLBACK:
          // Call new Rollback Function
          BL_Rollback();
 80010a2:	f7ff fe67 	bl	8000d74 <BL_Rollback>

          printf("[BL] Rollback Failed. Reverting state.\r\n");
 80010a6:	4831      	ldr	r0, [pc, #196]	@ (800116c <main+0x18c>)
 80010a8:	f000 fb28 	bl	80016fc <tfp_printf>
          config.system_status = STATE_NORMAL;
 80010ac:	4b26      	ldr	r3, [pc, #152]	@ (8001148 <main+0x168>)
 80010ae:	2204      	movs	r2, #4
 80010b0:	605a      	str	r2, [r3, #4]
          BL_WriteConfig(&config);
 80010b2:	4825      	ldr	r0, [pc, #148]	@ (8001148 <main+0x168>)
 80010b4:	f7ff fa60 	bl	8000578 <BL_WriteConfig>
          break;
 80010b8:	e03c      	b.n	8001134 <main+0x154>

      case STATE_NORMAL:
      default:
          printf("[BL] State: NORMAL. Checking Active Application (S5)...\r\n");
 80010ba:	482d      	ldr	r0, [pc, #180]	@ (8001170 <main+0x190>)
 80010bc:	f000 fb1e 	bl	80016fc <tfp_printf>

          // Check if S5 contains valid code (Reset Vector check)
          uint32_t *app_reset_vector = (uint32_t*)(APP_ACTIVE_START_ADDR + 4);
 80010c0:	4b2c      	ldr	r3, [pc, #176]	@ (8001174 <main+0x194>)
 80010c2:	60bb      	str	r3, [r7, #8]
          uint32_t app_entry_point = *app_reset_vector;
 80010c4:	68bb      	ldr	r3, [r7, #8]
 80010c6:	681b      	ldr	r3, [r3, #0]
 80010c8:	607b      	str	r3, [r7, #4]

          if (app_entry_point > APP_ACTIVE_START_ADDR && app_entry_point < (APP_ACTIVE_START_ADDR + SLOT_SIZE))
 80010ca:	687b      	ldr	r3, [r7, #4]
 80010cc:	4a2a      	ldr	r2, [pc, #168]	@ (8001178 <main+0x198>)
 80010ce:	4293      	cmp	r3, r2
 80010d0:	d90a      	bls.n	80010e8 <main+0x108>
 80010d2:	687b      	ldr	r3, [r7, #4]
 80010d4:	4a29      	ldr	r2, [pc, #164]	@ (800117c <main+0x19c>)
 80010d6:	4293      	cmp	r3, r2
 80010d8:	d806      	bhi.n	80010e8 <main+0x108>
          {
              printf("[BL] Valid App found at 0x%X. Jumping...\r\n", (unsigned int)APP_ACTIVE_START_ADDR);
 80010da:	4927      	ldr	r1, [pc, #156]	@ (8001178 <main+0x198>)
 80010dc:	4828      	ldr	r0, [pc, #160]	@ (8001180 <main+0x1a0>)
 80010de:	f000 fb0d 	bl	80016fc <tfp_printf>
              Bootloader_JumpToApp();
 80010e2:	f7ff ff2b 	bl	8000f3c <Bootloader_JumpToApp>
                      HAL_GPIO_TogglePin(GPIOI, GPIO_PIN_1);
                      HAL_Delay(100);
                  }
              }
          }
          break;
 80010e6:	e025      	b.n	8001134 <main+0x154>
              printf("[BL] S5 Empty or Invalid! Checking S6 for Auto-Provisioning...\r\n");
 80010e8:	4826      	ldr	r0, [pc, #152]	@ (8001184 <main+0x1a4>)
 80010ea:	f000 fb07 	bl	80016fc <tfp_printf>
              if (Firmware_Is_Valid(APP_DOWNLOAD_START_ADDR, SLOT_SIZE) == BL_OK)
 80010ee:	f44f 2180 	mov.w	r1, #262144	@ 0x40000
 80010f2:	4819      	ldr	r0, [pc, #100]	@ (8001158 <main+0x178>)
 80010f4:	f7ff fec6 	bl	8000e84 <Firmware_Is_Valid>
 80010f8:	4603      	mov	r3, r0
 80010fa:	2b00      	cmp	r3, #0
 80010fc:	d10b      	bne.n	8001116 <main+0x136>
                  printf("[BL] Valid Image found in S6! Triggering Update...\r\n");
 80010fe:	4822      	ldr	r0, [pc, #136]	@ (8001188 <main+0x1a8>)
 8001100:	f000 fafc 	bl	80016fc <tfp_printf>
                  config.system_status = STATE_UPDATE_REQ;
 8001104:	4b10      	ldr	r3, [pc, #64]	@ (8001148 <main+0x168>)
 8001106:	2205      	movs	r2, #5
 8001108:	605a      	str	r2, [r3, #4]
                  BL_WriteConfig(&config);
 800110a:	480f      	ldr	r0, [pc, #60]	@ (8001148 <main+0x168>)
 800110c:	f7ff fa34 	bl	8000578 <BL_WriteConfig>
                  HAL_NVIC_SystemReset();
 8001110:	f000 fd7b 	bl	8001c0a <HAL_NVIC_SystemReset>
          break;
 8001114:	e00e      	b.n	8001134 <main+0x154>
                  printf("[ERROR] No valid app in S5, and no update in S6.\r\n");
 8001116:	481d      	ldr	r0, [pc, #116]	@ (800118c <main+0x1ac>)
 8001118:	f000 faf0 	bl	80016fc <tfp_printf>
                  printf("[ERROR] System Halted.\r\n");
 800111c:	481c      	ldr	r0, [pc, #112]	@ (8001190 <main+0x1b0>)
 800111e:	f000 faed 	bl	80016fc <tfp_printf>
                      HAL_GPIO_TogglePin(GPIOI, GPIO_PIN_1);
 8001122:	2102      	movs	r1, #2
 8001124:	480a      	ldr	r0, [pc, #40]	@ (8001150 <main+0x170>)
 8001126:	f001 fa7a 	bl	800261e <HAL_GPIO_TogglePin>
                      HAL_Delay(100);
 800112a:	2064      	movs	r0, #100	@ 0x64
 800112c:	f000 fc5a 	bl	80019e4 <HAL_Delay>
                      HAL_GPIO_TogglePin(GPIOI, GPIO_PIN_1);
 8001130:	bf00      	nop
 8001132:	e7f6      	b.n	8001122 <main+0x142>
  }
  /* USER CODE END 2 */

  /* Infinite loop */
  /* USER CODE BEGIN WHILE */
  while (1)
 8001134:	bf00      	nop
 8001136:	e7fd      	b.n	8001134 <main+0x154>
 8001138:	20000028 	.word	0x20000028
 800113c:	08007560 	.word	0x08007560
 8001140:	08007590 	.word	0x08007590
 8001144:	080075b8 	.word	0x080075b8
 8001148:	200000b0 	.word	0x200000b0
 800114c:	080075e4 	.word	0x080075e4
 8001150:	40022000 	.word	0x40022000
 8001154:	0800761c 	.word	0x0800761c
 8001158:	08080000 	.word	0x08080000
 800115c:	08007648 	.word	0x08007648
 8001160:	08007678 	.word	0x08007678
 8001164:	080076b8 	.word	0x080076b8
 8001168:	080076d8 	.word	0x080076d8
 800116c:	08007710 	.word	0x08007710
 8001170:	0800773c 	.word	0x0800773c
 8001174:	08040004 	.word	0x08040004
 8001178:	08040000 	.word	0x08040000
 800117c:	0807ffff 	.word	0x0807ffff
 8001180:	08007778 	.word	0x08007778
 8001184:	080077a4 	.word	0x080077a4
 8001188:	080077e8 	.word	0x080077e8
 800118c:	08007820 	.word	0x08007820
 8001190:	08007854 	.word	0x08007854

08001194 <SystemClock_Config>:
/**
  * @brief System Clock Configuration
  * @retval None
  */
void SystemClock_Config(void)
{
 8001194:	b580      	push	{r7, lr}
 8001196:	b094      	sub	sp, #80	@ 0x50
 8001198:	af00      	add	r7, sp, #0
  RCC_OscInitTypeDef RCC_OscInitStruct = {0};
 800119a:	f107 0320 	add.w	r3, r7, #32
 800119e:	2230      	movs	r2, #48	@ 0x30
 80011a0:	2100      	movs	r1, #0
 80011a2:	4618      	mov	r0, r3
 80011a4:	f005 ff7f 	bl	80070a6 <memset>
  RCC_ClkInitTypeDef RCC_ClkInitStruct = {0};
 80011a8:	f107 030c 	add.w	r3, r7, #12
 80011ac:	2200      	movs	r2, #0
 80011ae:	601a      	str	r2, [r3, #0]
 80011b0:	605a      	str	r2, [r3, #4]
 80011b2:	609a      	str	r2, [r3, #8]
 80011b4:	60da      	str	r2, [r3, #12]
 80011b6:	611a      	str	r2, [r3, #16]

  /** Configure the main internal regulator output voltage
  */
  __HAL_RCC_PWR_CLK_ENABLE();
 80011b8:	4b28      	ldr	r3, [pc, #160]	@ (800125c <SystemClock_Config+0xc8>)
 80011ba:	6c1b      	ldr	r3, [r3, #64]	@ 0x40
 80011bc:	4a27      	ldr	r2, [pc, #156]	@ (800125c <SystemClock_Config+0xc8>)
 80011be:	f043 5380 	orr.w	r3, r3, #268435456	@ 0x10000000
 80011c2:	6413      	str	r3, [r2, #64]	@ 0x40
 80011c4:	4b25      	ldr	r3, [pc, #148]	@ (800125c <SystemClock_Config+0xc8>)
 80011c6:	6c1b      	ldr	r3, [r3, #64]	@ 0x40
 80011c8:	f003 5380 	and.w	r3, r3, #268435456	@ 0x10000000
 80011cc:	60bb      	str	r3, [r7, #8]
 80011ce:	68bb      	ldr	r3, [r7, #8]
  __HAL_PWR_VOLTAGESCALING_CONFIG(PWR_REGULATOR_VOLTAGE_SCALE2);
 80011d0:	4b23      	ldr	r3, [pc, #140]	@ (8001260 <SystemClock_Config+0xcc>)
 80011d2:	681b      	ldr	r3, [r3, #0]
 80011d4:	f423 4340 	bic.w	r3, r3, #49152	@ 0xc000
 80011d8:	4a21      	ldr	r2, [pc, #132]	@ (8001260 <SystemClock_Config+0xcc>)
 80011da:	f443 4300 	orr.w	r3, r3, #32768	@ 0x8000
 80011de:	6013      	str	r3, [r2, #0]
 80011e0:	4b1f      	ldr	r3, [pc, #124]	@ (8001260 <SystemClock_Config+0xcc>)
 80011e2:	681b      	ldr	r3, [r3, #0]
 80011e4:	f403 4340 	and.w	r3, r3, #49152	@ 0xc000
 80011e8:	607b      	str	r3, [r7, #4]
 80011ea:	687b      	ldr	r3, [r7, #4]

  /** Initializes the RCC Oscillators according to the specified parameters
  * in the RCC_OscInitTypeDef structure.
  */
  RCC_OscInitStruct.OscillatorType = RCC_OSCILLATORTYPE_HSI;
 80011ec:	2302      	movs	r3, #2
 80011ee:	623b      	str	r3, [r7, #32]
  RCC_OscInitStruct.HSIState = RCC_HSI_ON;
 80011f0:	2301      	movs	r3, #1
 80011f2:	62fb      	str	r3, [r7, #44]	@ 0x2c
  RCC_OscInitStruct.HSICalibrationValue = RCC_HSICALIBRATION_DEFAULT;
 80011f4:	2310      	movs	r3, #16
 80011f6:	633b      	str	r3, [r7, #48]	@ 0x30
  RCC_OscInitStruct.PLL.PLLState = RCC_PLL_ON;
 80011f8:	2302      	movs	r3, #2
 80011fa:	63bb      	str	r3, [r7, #56]	@ 0x38
  RCC_OscInitStruct.PLL.PLLSource = RCC_PLLSOURCE_HSI;
 80011fc:	2300      	movs	r3, #0
 80011fe:	63fb      	str	r3, [r7, #60]	@ 0x3c
  RCC_OscInitStruct.PLL.PLLM = 10;
 8001200:	230a      	movs	r3, #10
 8001202:	643b      	str	r3, [r7, #64]	@ 0x40
  RCC_OscInitStruct.PLL.PLLN = 210;
 8001204:	23d2      	movs	r3, #210	@ 0xd2
 8001206:	647b      	str	r3, [r7, #68]	@ 0x44
  RCC_OscInitStruct.PLL.PLLP = RCC_PLLP_DIV2;
 8001208:	2302      	movs	r3, #2
 800120a:	64bb      	str	r3, [r7, #72]	@ 0x48
  RCC_OscInitStruct.PLL.PLLQ = 2;
 800120c:	2302      	movs	r3, #2
 800120e:	64fb      	str	r3, [r7, #76]	@ 0x4c
  if (HAL_RCC_OscConfig(&RCC_OscInitStruct) != HAL_OK)
 8001210:	f107 0320 	add.w	r3, r7, #32
 8001214:	4618      	mov	r0, r3
 8001216:	f001 fa1d 	bl	8002654 <HAL_RCC_OscConfig>
 800121a:	4603      	mov	r3, r0
 800121c:	2b00      	cmp	r3, #0
 800121e:	d001      	beq.n	8001224 <SystemClock_Config+0x90>
  {
    Error_Handler();
 8001220:	f000 f8e8 	bl	80013f4 <Error_Handler>
  }

  /** Initializes the CPU, AHB and APB buses clocks
  */
  RCC_ClkInitStruct.ClockType = RCC_CLOCKTYPE_HCLK|RCC_CLOCKTYPE_SYSCLK
 8001224:	230f      	movs	r3, #15
 8001226:	60fb      	str	r3, [r7, #12]
                              |RCC_CLOCKTYPE_PCLK1|RCC_CLOCKTYPE_PCLK2;
  RCC_ClkInitStruct.SYSCLKSource = RCC_SYSCLKSOURCE_PLLCLK;
 8001228:	2302      	movs	r3, #2
 800122a:	613b      	str	r3, [r7, #16]
  RCC_ClkInitStruct.AHBCLKDivider = RCC_SYSCLK_DIV1;
 800122c:	2300      	movs	r3, #0
 800122e:	617b      	str	r3, [r7, #20]
  RCC_ClkInitStruct.APB1CLKDivider = RCC_HCLK_DIV4;
 8001230:	f44f 53a0 	mov.w	r3, #5120	@ 0x1400
 8001234:	61bb      	str	r3, [r7, #24]
  RCC_ClkInitStruct.APB2CLKDivider = RCC_HCLK_DIV2;
 8001236:	f44f 5380 	mov.w	r3, #4096	@ 0x1000
 800123a:	61fb      	str	r3, [r7, #28]

  if (HAL_RCC_ClockConfig(&RCC_ClkInitStruct, FLASH_LATENCY_5) != HAL_OK)
 800123c:	f107 030c 	add.w	r3, r7, #12
 8001240:	2105      	movs	r1, #5
 8001242:	4618      	mov	r0, r3
 8001244:	f001 fcaa 	bl	8002b9c <HAL_RCC_ClockConfig>
 8001248:	4603      	mov	r3, r0
 800124a:	2b00      	cmp	r3, #0
 800124c:	d001      	beq.n	8001252 <SystemClock_Config+0xbe>
  {
    Error_Handler();
 800124e:	f000 f8d1 	bl	80013f4 <Error_Handler>
  }
}
 8001252:	bf00      	nop
 8001254:	3750      	adds	r7, #80	@ 0x50
 8001256:	46bd      	mov	sp, r7
 8001258:	bd80      	pop	{r7, pc}
 800125a:	bf00      	nop
 800125c:	40023800 	.word	0x40023800
 8001260:	40007000 	.word	0x40007000

08001264 <MX_USART1_UART_Init>:
  * @brief USART1 Initialization Function
  * @param None
  * @retval None
  */
static void MX_USART1_UART_Init(void)
{
 8001264:	b580      	push	{r7, lr}
 8001266:	af00      	add	r7, sp, #0
  /* USER CODE END USART1_Init 0 */

  /* USER CODE BEGIN USART1_Init 1 */

  /* USER CODE END USART1_Init 1 */
  huart1.Instance = USART1;
 8001268:	4b14      	ldr	r3, [pc, #80]	@ (80012bc <MX_USART1_UART_Init+0x58>)
 800126a:	4a15      	ldr	r2, [pc, #84]	@ (80012c0 <MX_USART1_UART_Init+0x5c>)
 800126c:	601a      	str	r2, [r3, #0]
  huart1.Init.BaudRate = 115200;
 800126e:	4b13      	ldr	r3, [pc, #76]	@ (80012bc <MX_USART1_UART_Init+0x58>)
 8001270:	f44f 32e1 	mov.w	r2, #115200	@ 0x1c200
 8001274:	605a      	str	r2, [r3, #4]
  huart1.Init.WordLength = UART_WORDLENGTH_8B;
 8001276:	4b11      	ldr	r3, [pc, #68]	@ (80012bc <MX_USART1_UART_Init+0x58>)
 8001278:	2200      	movs	r2, #0
 800127a:	609a      	str	r2, [r3, #8]
  huart1.Init.StopBits = UART_STOPBITS_1;
 800127c:	4b0f      	ldr	r3, [pc, #60]	@ (80012bc <MX_USART1_UART_Init+0x58>)
 800127e:	2200      	movs	r2, #0
 8001280:	60da      	str	r2, [r3, #12]
  huart1.Init.Parity = UART_PARITY_NONE;
 8001282:	4b0e      	ldr	r3, [pc, #56]	@ (80012bc <MX_USART1_UART_Init+0x58>)
 8001284:	2200      	movs	r2, #0
 8001286:	611a      	str	r2, [r3, #16]
  huart1.Init.Mode = UART_MODE_TX_RX;
 8001288:	4b0c      	ldr	r3, [pc, #48]	@ (80012bc <MX_USART1_UART_Init+0x58>)
 800128a:	220c      	movs	r2, #12
 800128c:	615a      	str	r2, [r3, #20]
  huart1.Init.HwFlowCtl = UART_HWCONTROL_NONE;
 800128e:	4b0b      	ldr	r3, [pc, #44]	@ (80012bc <MX_USART1_UART_Init+0x58>)
 8001290:	2200      	movs	r2, #0
 8001292:	619a      	str	r2, [r3, #24]
  huart1.Init.OverSampling = UART_OVERSAMPLING_16;
 8001294:	4b09      	ldr	r3, [pc, #36]	@ (80012bc <MX_USART1_UART_Init+0x58>)
 8001296:	2200      	movs	r2, #0
 8001298:	61da      	str	r2, [r3, #28]
  huart1.Init.OneBitSampling = UART_ONE_BIT_SAMPLE_DISABLE;
 800129a:	4b08      	ldr	r3, [pc, #32]	@ (80012bc <MX_USART1_UART_Init+0x58>)
 800129c:	2200      	movs	r2, #0
 800129e:	621a      	str	r2, [r3, #32]
  huart1.AdvancedInit.AdvFeatureInit = UART_ADVFEATURE_NO_INIT;
 80012a0:	4b06      	ldr	r3, [pc, #24]	@ (80012bc <MX_USART1_UART_Init+0x58>)
 80012a2:	2200      	movs	r2, #0
 80012a4:	625a      	str	r2, [r3, #36]	@ 0x24
  if (HAL_UART_Init(&huart1) != HAL_OK)
 80012a6:	4805      	ldr	r0, [pc, #20]	@ (80012bc <MX_USART1_UART_Init+0x58>)
 80012a8:	f002 fa4e 	bl	8003748 <HAL_UART_Init>
 80012ac:	4603      	mov	r3, r0
 80012ae:	2b00      	cmp	r3, #0
 80012b0:	d001      	beq.n	80012b6 <MX_USART1_UART_Init+0x52>
  {
    Error_Handler();
 80012b2:	f000 f89f 	bl	80013f4 <Error_Handler>
  }
  /* USER CODE BEGIN USART1_Init 2 */

  /* USER CODE END USART1_Init 2 */

}
 80012b6:	bf00      	nop
 80012b8:	bd80      	pop	{r7, pc}
 80012ba:	bf00      	nop
 80012bc:	20000028 	.word	0x20000028
 80012c0:	40011000 	.word	0x40011000

080012c4 <MX_GPIO_Init>:
  * @brief GPIO Initialization Function
  * @param None
  * @retval None
  */
static void MX_GPIO_Init(void)
{
 80012c4:	b580      	push	{r7, lr}
 80012c6:	b088      	sub	sp, #32
 80012c8:	af00      	add	r7, sp, #0
  GPIO_InitTypeDef GPIO_InitStruct = {0};
 80012ca:	f107 030c 	add.w	r3, r7, #12
 80012ce:	2200      	movs	r2, #0
 80012d0:	601a      	str	r2, [r3, #0]
 80012d2:	605a      	str	r2, [r3, #4]
 80012d4:	609a      	str	r2, [r3, #8]
 80012d6:	60da      	str	r2, [r3, #12]
 80012d8:	611a      	str	r2, [r3, #16]
  /* USER CODE BEGIN MX_GPIO_Init_1 */

  /* USER CODE END MX_GPIO_Init_1 */

  /* GPIO Ports Clock Enable */
  __HAL_RCC_GPIOA_CLK_ENABLE();
 80012da:	4b24      	ldr	r3, [pc, #144]	@ (800136c <MX_GPIO_Init+0xa8>)
 80012dc:	6b1b      	ldr	r3, [r3, #48]	@ 0x30
 80012de:	4a23      	ldr	r2, [pc, #140]	@ (800136c <MX_GPIO_Init+0xa8>)
 80012e0:	f043 0301 	orr.w	r3, r3, #1
 80012e4:	6313      	str	r3, [r2, #48]	@ 0x30
 80012e6:	4b21      	ldr	r3, [pc, #132]	@ (800136c <MX_GPIO_Init+0xa8>)
 80012e8:	6b1b      	ldr	r3, [r3, #48]	@ 0x30
 80012ea:	f003 0301 	and.w	r3, r3, #1
 80012ee:	60bb      	str	r3, [r7, #8]
 80012f0:	68bb      	ldr	r3, [r7, #8]
  __HAL_RCC_GPIOB_CLK_ENABLE();
 80012f2:	4b1e      	ldr	r3, [pc, #120]	@ (800136c <MX_GPIO_Init+0xa8>)
 80012f4:	6b1b      	ldr	r3, [r3, #48]	@ 0x30
 80012f6:	4a1d      	ldr	r2, [pc, #116]	@ (800136c <MX_GPIO_Init+0xa8>)
 80012f8:	f043 0302 	orr.w	r3, r3, #2
 80012fc:	6313      	str	r3, [r2, #48]	@ 0x30
 80012fe:	4b1b      	ldr	r3, [pc, #108]	@ (800136c <MX_GPIO_Init+0xa8>)
 8001300:	6b1b      	ldr	r3, [r3, #48]	@ 0x30
 8001302:	f003 0302 	and.w	r3, r3, #2
 8001306:	607b      	str	r3, [r7, #4]
 8001308:	687b      	ldr	r3, [r7, #4]
  __HAL_RCC_GPIOI_CLK_ENABLE();
 800130a:	4b18      	ldr	r3, [pc, #96]	@ (800136c <MX_GPIO_Init+0xa8>)
 800130c:	6b1b      	ldr	r3, [r3, #48]	@ 0x30
 800130e:	4a17      	ldr	r2, [pc, #92]	@ (800136c <MX_GPIO_Init+0xa8>)
 8001310:	f443 7380 	orr.w	r3, r3, #256	@ 0x100
 8001314:	6313      	str	r3, [r2, #48]	@ 0x30
 8001316:	4b15      	ldr	r3, [pc, #84]	@ (800136c <MX_GPIO_Init+0xa8>)
 8001318:	6b1b      	ldr	r3, [r3, #48]	@ 0x30
 800131a:	f403 7380 	and.w	r3, r3, #256	@ 0x100
 800131e:	603b      	str	r3, [r7, #0]
 8001320:	683b      	ldr	r3, [r7, #0]

  /*Configure GPIO pin Output Level */
  HAL_GPIO_WritePin(GPIOI, GPIO_PIN_1, GPIO_PIN_RESET);
 8001322:	2200      	movs	r2, #0
 8001324:	2102      	movs	r1, #2
 8001326:	4812      	ldr	r0, [pc, #72]	@ (8001370 <MX_GPIO_Init+0xac>)
 8001328:	f001 f960 	bl	80025ec <HAL_GPIO_WritePin>

  /*Configure GPIO pin : PI1 */
  GPIO_InitStruct.Pin = GPIO_PIN_1;
 800132c:	2302      	movs	r3, #2
 800132e:	60fb      	str	r3, [r7, #12]
  GPIO_InitStruct.Mode = GPIO_MODE_OUTPUT_PP;
 8001330:	2301      	movs	r3, #1
 8001332:	613b      	str	r3, [r7, #16]
  GPIO_InitStruct.Pull = GPIO_NOPULL;
 8001334:	2300      	movs	r3, #0
 8001336:	617b      	str	r3, [r7, #20]
  GPIO_InitStruct.Speed = GPIO_SPEED_FREQ_LOW;
 8001338:	2300      	movs	r3, #0
 800133a:	61bb      	str	r3, [r7, #24]
  HAL_GPIO_Init(GPIOI, &GPIO_InitStruct);
 800133c:	f107 030c 	add.w	r3, r7, #12
 8001340:	4619      	mov	r1, r3
 8001342:	480b      	ldr	r0, [pc, #44]	@ (8001370 <MX_GPIO_Init+0xac>)
 8001344:	f000 ff8e 	bl	8002264 <HAL_GPIO_Init>

  /*Configure GPIO pin : PI11 */
  GPIO_InitStruct.Pin = GPIO_PIN_11;
 8001348:	f44f 6300 	mov.w	r3, #2048	@ 0x800
 800134c:	60fb      	str	r3, [r7, #12]
  GPIO_InitStruct.Mode = GPIO_MODE_INPUT;
 800134e:	2300      	movs	r3, #0
 8001350:	613b      	str	r3, [r7, #16]
  GPIO_InitStruct.Pull = GPIO_NOPULL;
 8001352:	2300      	movs	r3, #0
 8001354:	617b      	str	r3, [r7, #20]
  HAL_GPIO_Init(GPIOI, &GPIO_InitStruct);
 8001356:	f107 030c 	add.w	r3, r7, #12
 800135a:	4619      	mov	r1, r3
 800135c:	4804      	ldr	r0, [pc, #16]	@ (8001370 <MX_GPIO_Init+0xac>)
 800135e:	f000 ff81 	bl	8002264 <HAL_GPIO_Init>

  /* USER CODE BEGIN MX_GPIO_Init_2 */

  /* USER CODE END MX_GPIO_Init_2 */
}
 8001362:	bf00      	nop
 8001364:	3720      	adds	r7, #32
 8001366:	46bd      	mov	sp, r7
 8001368:	bd80      	pop	{r7, pc}
 800136a:	bf00      	nop
 800136c:	40023800 	.word	0x40023800
 8001370:	40022000 	.word	0x40022000

08001374 <MPU_Config>:
/* USER CODE END 4 */

 /* MPU Configuration */

void MPU_Config(void)
{
 8001374:	b580      	push	{r7, lr}
 8001376:	b084      	sub	sp, #16
 8001378:	af00      	add	r7, sp, #0
  MPU_Region_InitTypeDef MPU_InitStruct = {0};
 800137a:	463b      	mov	r3, r7
 800137c:	2200      	movs	r2, #0
 800137e:	601a      	str	r2, [r3, #0]
 8001380:	605a      	str	r2, [r3, #4]
 8001382:	609a      	str	r2, [r3, #8]
 8001384:	60da      	str	r2, [r3, #12]

  /* Disables the MPU */
  HAL_MPU_Disable();
 8001386:	f000 fc51 	bl	8001c2c <HAL_MPU_Disable>

  /** Initializes and configures the Region and the memory to be protected
  */
  MPU_InitStruct.Enable = MPU_REGION_ENABLE;
 800138a:	2301      	movs	r3, #1
 800138c:	703b      	strb	r3, [r7, #0]
  MPU_InitStruct.Number = MPU_REGION_NUMBER0;
 800138e:	2300      	movs	r3, #0
 8001390:	707b      	strb	r3, [r7, #1]
  MPU_InitStruct.BaseAddress = 0x08000000;
 8001392:	f04f 6300 	mov.w	r3, #134217728	@ 0x8000000
 8001396:	607b      	str	r3, [r7, #4]
  MPU_InitStruct.Size = MPU_REGION_SIZE_64KB;
 8001398:	230f      	movs	r3, #15
 800139a:	723b      	strb	r3, [r7, #8]
  MPU_InitStruct.SubRegionDisable = 0x0;
 800139c:	2300      	movs	r3, #0
 800139e:	727b      	strb	r3, [r7, #9]
  MPU_InitStruct.TypeExtField = MPU_TEX_LEVEL0;
 80013a0:	2300      	movs	r3, #0
 80013a2:	72bb      	strb	r3, [r7, #10]
  MPU_InitStruct.AccessPermission = MPU_REGION_PRIV_RO_URO;
 80013a4:	2306      	movs	r3, #6
 80013a6:	72fb      	strb	r3, [r7, #11]
  MPU_InitStruct.DisableExec = MPU_INSTRUCTION_ACCESS_ENABLE;
 80013a8:	2300      	movs	r3, #0
 80013aa:	733b      	strb	r3, [r7, #12]
  MPU_InitStruct.IsShareable = MPU_ACCESS_NOT_SHAREABLE;
 80013ac:	2300      	movs	r3, #0
 80013ae:	737b      	strb	r3, [r7, #13]
  MPU_InitStruct.IsCacheable = MPU_ACCESS_CACHEABLE;
 80013b0:	2301      	movs	r3, #1
 80013b2:	73bb      	strb	r3, [r7, #14]
  MPU_InitStruct.IsBufferable = MPU_ACCESS_NOT_BUFFERABLE;
 80013b4:	2300      	movs	r3, #0
 80013b6:	73fb      	strb	r3, [r7, #15]

  HAL_MPU_ConfigRegion(&MPU_InitStruct);
 80013b8:	463b      	mov	r3, r7
 80013ba:	4618      	mov	r0, r3
 80013bc:	f000 fc6e 	bl	8001c9c <HAL_MPU_ConfigRegion>

  /** Initializes and configures the Region and the memory to be protected
  */
  MPU_InitStruct.Number = MPU_REGION_NUMBER1;
 80013c0:	2301      	movs	r3, #1
 80013c2:	707b      	strb	r3, [r7, #1]
  MPU_InitStruct.BaseAddress = 0x08010000;
 80013c4:	4b0a      	ldr	r3, [pc, #40]	@ (80013f0 <MPU_Config+0x7c>)
 80013c6:	607b      	str	r3, [r7, #4]
  MPU_InitStruct.Size = MPU_REGION_SIZE_32KB;
 80013c8:	230e      	movs	r3, #14
 80013ca:	723b      	strb	r3, [r7, #8]
  MPU_InitStruct.AccessPermission = MPU_REGION_FULL_ACCESS;
 80013cc:	2303      	movs	r3, #3
 80013ce:	72fb      	strb	r3, [r7, #11]
  MPU_InitStruct.DisableExec = MPU_INSTRUCTION_ACCESS_DISABLE;
 80013d0:	2301      	movs	r3, #1
 80013d2:	733b      	strb	r3, [r7, #12]
  MPU_InitStruct.IsCacheable = MPU_ACCESS_NOT_CACHEABLE;
 80013d4:	2300      	movs	r3, #0
 80013d6:	73bb      	strb	r3, [r7, #14]

  HAL_MPU_ConfigRegion(&MPU_InitStruct);
 80013d8:	463b      	mov	r3, r7
 80013da:	4618      	mov	r0, r3
 80013dc:	f000 fc5e 	bl	8001c9c <HAL_MPU_ConfigRegion>
  /* Enables the MPU */
  HAL_MPU_Enable(MPU_PRIVILEGED_DEFAULT);
 80013e0:	2004      	movs	r0, #4
 80013e2:	f000 fc3b 	bl	8001c5c <HAL_MPU_Enable>

}
 80013e6:	bf00      	nop
 80013e8:	3710      	adds	r7, #16
 80013ea:	46bd      	mov	sp, r7
 80013ec:	bd80      	pop	{r7, pc}
 80013ee:	bf00      	nop
 80013f0:	08010000 	.word	0x08010000

080013f4 <Error_Handler>:
/**
  * @brief  This function is executed in case of error occurrence.
  * @retval None
  */
void Error_Handler(void)
{
 80013f4:	b480      	push	{r7}
 80013f6:	af00      	add	r7, sp, #0
  __ASM volatile ("cpsid i" : : : "memory");
 80013f8:	b672      	cpsid	i
}
 80013fa:	bf00      	nop
  /* USER CODE BEGIN Error_Handler_Debug */
  /* User can add his own implementation to report the HAL error return state */
  __disable_irq();
  while (1)
 80013fc:	bf00      	nop
 80013fe:	e7fd      	b.n	80013fc <Error_Handler+0x8>

08001400 <HAL_MspInit>:
/* USER CODE END 0 */
/**
  * Initializes the Global MSP.
  */
void HAL_MspInit(void)
{
 8001400:	b480      	push	{r7}
 8001402:	b083      	sub	sp, #12
 8001404:	af00      	add	r7, sp, #0

  /* USER CODE BEGIN MspInit 0 */

  /* USER CODE END MspInit 0 */

  __HAL_RCC_PWR_CLK_ENABLE();
 8001406:	4b0f      	ldr	r3, [pc, #60]	@ (8001444 <HAL_MspInit+0x44>)
 8001408:	6c1b      	ldr	r3, [r3, #64]	@ 0x40
 800140a:	4a0e      	ldr	r2, [pc, #56]	@ (8001444 <HAL_MspInit+0x44>)
 800140c:	f043 5380 	orr.w	r3, r3, #268435456	@ 0x10000000
 8001410:	6413      	str	r3, [r2, #64]	@ 0x40
 8001412:	4b0c      	ldr	r3, [pc, #48]	@ (8001444 <HAL_MspInit+0x44>)
 8001414:	6c1b      	ldr	r3, [r3, #64]	@ 0x40
 8001416:	f003 5380 	and.w	r3, r3, #268435456	@ 0x10000000
 800141a:	607b      	str	r3, [r7, #4]
 800141c:	687b      	ldr	r3, [r7, #4]
  __HAL_RCC_SYSCFG_CLK_ENABLE();
 800141e:	4b09      	ldr	r3, [pc, #36]	@ (8001444 <HAL_MspInit+0x44>)
 8001420:	6c5b      	ldr	r3, [r3, #68]	@ 0x44
 8001422:	4a08      	ldr	r2, [pc, #32]	@ (8001444 <HAL_MspInit+0x44>)
 8001424:	f443 4380 	orr.w	r3, r3, #16384	@ 0x4000
 8001428:	6453      	str	r3, [r2, #68]	@ 0x44
 800142a:	4b06      	ldr	r3, [pc, #24]	@ (8001444 <HAL_MspInit+0x44>)
 800142c:	6c5b      	ldr	r3, [r3, #68]	@ 0x44
 800142e:	f403 4380 	and.w	r3, r3, #16384	@ 0x4000
 8001432:	603b      	str	r3, [r7, #0]
 8001434:	683b      	ldr	r3, [r7, #0]
  /* System interrupt init*/

  /* USER CODE BEGIN MspInit 1 */

  /* USER CODE END MspInit 1 */
}
 8001436:	bf00      	nop
 8001438:	370c      	adds	r7, #12
 800143a:	46bd      	mov	sp, r7
 800143c:	f85d 7b04 	ldr.w	r7, [sp], #4
 8001440:	4770      	bx	lr
 8001442:	bf00      	nop
 8001444:	40023800 	.word	0x40023800

08001448 <HAL_UART_MspInit>:
  * This function configures the hardware resources used in this example
  * @param huart: UART handle pointer
  * @retval None
  */
void HAL_UART_MspInit(UART_HandleTypeDef* huart)
{
 8001448:	b580      	push	{r7, lr}
 800144a:	b0ac      	sub	sp, #176	@ 0xb0
 800144c:	af00      	add	r7, sp, #0
 800144e:	6078      	str	r0, [r7, #4]
  GPIO_InitTypeDef GPIO_InitStruct = {0};
 8001450:	f107 039c 	add.w	r3, r7, #156	@ 0x9c
 8001454:	2200      	movs	r2, #0
 8001456:	601a      	str	r2, [r3, #0]
 8001458:	605a      	str	r2, [r3, #4]
 800145a:	609a      	str	r2, [r3, #8]
 800145c:	60da      	str	r2, [r3, #12]
 800145e:	611a      	str	r2, [r3, #16]
  RCC_PeriphCLKInitTypeDef PeriphClkInitStruct = {0};
 8001460:	f107 0318 	add.w	r3, r7, #24
 8001464:	2284      	movs	r2, #132	@ 0x84
 8001466:	2100      	movs	r1, #0
 8001468:	4618      	mov	r0, r3
 800146a:	f005 fe1c 	bl	80070a6 <memset>
  if(huart->Instance==USART1)
 800146e:	687b      	ldr	r3, [r7, #4]
 8001470:	681b      	ldr	r3, [r3, #0]
 8001472:	4a32      	ldr	r2, [pc, #200]	@ (800153c <HAL_UART_MspInit+0xf4>)
 8001474:	4293      	cmp	r3, r2
 8001476:	d15c      	bne.n	8001532 <HAL_UART_MspInit+0xea>

    /* USER CODE END USART1_MspInit 0 */

  /** Initializes the peripherals clock
  */
    PeriphClkInitStruct.PeriphClockSelection = RCC_PERIPHCLK_USART1;
 8001478:	2340      	movs	r3, #64	@ 0x40
 800147a:	61bb      	str	r3, [r7, #24]
    PeriphClkInitStruct.Usart1ClockSelection = RCC_USART1CLKSOURCE_PCLK2;
 800147c:	2300      	movs	r3, #0
 800147e:	65fb      	str	r3, [r7, #92]	@ 0x5c
    if (HAL_RCCEx_PeriphCLKConfig(&PeriphClkInitStruct) != HAL_OK)
 8001480:	f107 0318 	add.w	r3, r7, #24
 8001484:	4618      	mov	r0, r3
 8001486:	f001 fd6f 	bl	8002f68 <HAL_RCCEx_PeriphCLKConfig>
 800148a:	4603      	mov	r3, r0
 800148c:	2b00      	cmp	r3, #0
 800148e:	d001      	beq.n	8001494 <HAL_UART_MspInit+0x4c>
    {
      Error_Handler();
 8001490:	f7ff ffb0 	bl	80013f4 <Error_Handler>
    }

    /* Peripheral clock enable */
    __HAL_RCC_USART1_CLK_ENABLE();
 8001494:	4b2a      	ldr	r3, [pc, #168]	@ (8001540 <HAL_UART_MspInit+0xf8>)
 8001496:	6c5b      	ldr	r3, [r3, #68]	@ 0x44
 8001498:	4a29      	ldr	r2, [pc, #164]	@ (8001540 <HAL_UART_MspInit+0xf8>)
 800149a:	f043 0310 	orr.w	r3, r3, #16
 800149e:	6453      	str	r3, [r2, #68]	@ 0x44
 80014a0:	4b27      	ldr	r3, [pc, #156]	@ (8001540 <HAL_UART_MspInit+0xf8>)
 80014a2:	6c5b      	ldr	r3, [r3, #68]	@ 0x44
 80014a4:	f003 0310 	and.w	r3, r3, #16
 80014a8:	617b      	str	r3, [r7, #20]
 80014aa:	697b      	ldr	r3, [r7, #20]

    __HAL_RCC_GPIOB_CLK_ENABLE();
 80014ac:	4b24      	ldr	r3, [pc, #144]	@ (8001540 <HAL_UART_MspInit+0xf8>)
 80014ae:	6b1b      	ldr	r3, [r3, #48]	@ 0x30
 80014b0:	4a23      	ldr	r2, [pc, #140]	@ (8001540 <HAL_UART_MspInit+0xf8>)
 80014b2:	f043 0302 	orr.w	r3, r3, #2
 80014b6:	6313      	str	r3, [r2, #48]	@ 0x30
 80014b8:	4b21      	ldr	r3, [pc, #132]	@ (8001540 <HAL_UART_MspInit+0xf8>)
 80014ba:	6b1b      	ldr	r3, [r3, #48]	@ 0x30
 80014bc:	f003 0302 	and.w	r3, r3, #2
 80014c0:	613b      	str	r3, [r7, #16]
 80014c2:	693b      	ldr	r3, [r7, #16]
    __HAL_RCC_GPIOA_CLK_ENABLE();
 80014c4:	4b1e      	ldr	r3, [pc, #120]	@ (8001540 <HAL_UART_MspInit+0xf8>)
 80014c6:	6b1b      	ldr	r3, [r3, #48]	@ 0x30
 80014c8:	4a1d      	ldr	r2, [pc, #116]	@ (8001540 <HAL_UART_MspInit+0xf8>)
 80014ca:	f043 0301 	orr.w	r3, r3, #1
 80014ce:	6313      	str	r3, [r2, #48]	@ 0x30
 80014d0:	4b1b      	ldr	r3, [pc, #108]	@ (8001540 <HAL_UART_MspInit+0xf8>)
 80014d2:	6b1b      	ldr	r3, [r3, #48]	@ 0x30
 80014d4:	f003 0301 	and.w	r3, r3, #1
 80014d8:	60fb      	str	r3, [r7, #12]
 80014da:	68fb      	ldr	r3, [r7, #12]
    /**USART1 GPIO Configuration
    PB7     ------> USART1_RX
    PA9     ------> USART1_TX
    */
    GPIO_InitStruct.Pin = GPIO_PIN_7;
 80014dc:	2380      	movs	r3, #128	@ 0x80
 80014de:	f8c7 309c 	str.w	r3, [r7, #156]	@ 0x9c
    GPIO_InitStruct.Mode = GPIO_MODE_AF_PP;
 80014e2:	2302      	movs	r3, #2
 80014e4:	f8c7 30a0 	str.w	r3, [r7, #160]	@ 0xa0
    GPIO_InitStruct.Pull = GPIO_NOPULL;
 80014e8:	2300      	movs	r3, #0
 80014ea:	f8c7 30a4 	str.w	r3, [r7, #164]	@ 0xa4
    GPIO_InitStruct.Speed = GPIO_SPEED_FREQ_VERY_HIGH;
 80014ee:	2303      	movs	r3, #3
 80014f0:	f8c7 30a8 	str.w	r3, [r7, #168]	@ 0xa8
    GPIO_InitStruct.Alternate = GPIO_AF7_USART1;
 80014f4:	2307      	movs	r3, #7
 80014f6:	f8c7 30ac 	str.w	r3, [r7, #172]	@ 0xac
    HAL_GPIO_Init(GPIOB, &GPIO_InitStruct);
 80014fa:	f107 039c 	add.w	r3, r7, #156	@ 0x9c
 80014fe:	4619      	mov	r1, r3
 8001500:	4810      	ldr	r0, [pc, #64]	@ (8001544 <HAL_UART_MspInit+0xfc>)
 8001502:	f000 feaf 	bl	8002264 <HAL_GPIO_Init>

    GPIO_InitStruct.Pin = GPIO_PIN_9;
 8001506:	f44f 7300 	mov.w	r3, #512	@ 0x200
 800150a:	f8c7 309c 	str.w	r3, [r7, #156]	@ 0x9c
    GPIO_InitStruct.Mode = GPIO_MODE_AF_PP;
 800150e:	2302      	movs	r3, #2
 8001510:	f8c7 30a0 	str.w	r3, [r7, #160]	@ 0xa0
    GPIO_InitStruct.Pull = GPIO_NOPULL;
 8001514:	2300      	movs	r3, #0
 8001516:	f8c7 30a4 	str.w	r3, [r7, #164]	@ 0xa4
    GPIO_InitStruct.Speed = GPIO_SPEED_FREQ_VERY_HIGH;
 800151a:	2303      	movs	r3, #3
 800151c:	f8c7 30a8 	str.w	r3, [r7, #168]	@ 0xa8
    GPIO_InitStruct.Alternate = GPIO_AF7_USART1;
 8001520:	2307      	movs	r3, #7
 8001522:	f8c7 30ac 	str.w	r3, [r7, #172]	@ 0xac
    HAL_GPIO_Init(GPIOA, &GPIO_InitStruct);
 8001526:	f107 039c 	add.w	r3, r7, #156	@ 0x9c
 800152a:	4619      	mov	r1, r3
 800152c:	4806      	ldr	r0, [pc, #24]	@ (8001548 <HAL_UART_MspInit+0x100>)
 800152e:	f000 fe99 	bl	8002264 <HAL_GPIO_Init>

    /* USER CODE END USART1_MspInit 1 */

  }

}
 8001532:	bf00      	nop
 8001534:	37b0      	adds	r7, #176	@ 0xb0
 8001536:	46bd      	mov	sp, r7
 8001538:	bd80      	pop	{r7, pc}
 800153a:	bf00      	nop
 800153c:	40011000 	.word	0x40011000
 8001540:	40023800 	.word	0x40023800
 8001544:	40020400 	.word	0x40020400
 8001548:	40020000 	.word	0x40020000

0800154c <NMI_Handler>:
/******************************************************************************/
/**
  * @brief This function handles Non maskable interrupt.
  */
void NMI_Handler(void)
{
 800154c:	b480      	push	{r7}
 800154e:	af00      	add	r7, sp, #0
  /* USER CODE BEGIN NonMaskableInt_IRQn 0 */

  /* USER CODE END NonMaskableInt_IRQn 0 */
  /* USER CODE BEGIN NonMaskableInt_IRQn 1 */
   while (1)
 8001550:	bf00      	nop
 8001552:	e7fd      	b.n	8001550 <NMI_Handler+0x4>

08001554 <HardFault_Handler>:

/**
  * @brief This function handles Hard fault interrupt.
  */
void HardFault_Handler(void)
{
 8001554:	b480      	push	{r7}
 8001556:	af00      	add	r7, sp, #0
  /* USER CODE BEGIN HardFault_IRQn 0 */

  /* USER CODE END HardFault_IRQn 0 */
  while (1)
 8001558:	bf00      	nop
 800155a:	e7fd      	b.n	8001558 <HardFault_Handler+0x4>

0800155c <MemManage_Handler>:

/**
  * @brief This function handles Memory management fault.
  */
void MemManage_Handler(void)
{
 800155c:	b480      	push	{r7}
 800155e:	af00      	add	r7, sp, #0
  /* USER CODE BEGIN MemoryManagement_IRQn 0 */

  /* USER CODE END MemoryManagement_IRQn 0 */
  while (1)
 8001560:	bf00      	nop
 8001562:	e7fd      	b.n	8001560 <MemManage_Handler+0x4>

08001564 <BusFault_Handler>:

/**
  * @brief This function handles Pre-fetch fault, memory access fault.
  */
void BusFault_Handler(void)
{
 8001564:	b480      	push	{r7}
 8001566:	af00      	add	r7, sp, #0
  /* USER CODE BEGIN BusFault_IRQn 0 */

  /* USER CODE END BusFault_IRQn 0 */
  while (1)
 8001568:	bf00      	nop
 800156a:	e7fd      	b.n	8001568 <BusFault_Handler+0x4>

0800156c <UsageFault_Handler>:

/**
  * @brief This function handles Undefined instruction or illegal state.
  */
void UsageFault_Handler(void)
{
 800156c:	b480      	push	{r7}
 800156e:	af00      	add	r7, sp, #0
  /* USER CODE BEGIN UsageFault_IRQn 0 */

  /* USER CODE END UsageFault_IRQn 0 */
  while (1)
 8001570:	bf00      	nop
 8001572:	e7fd      	b.n	8001570 <UsageFault_Handler+0x4>

08001574 <SVC_Handler>:

/**
  * @brief This function handles System service call via SWI instruction.
  */
void SVC_Handler(void)
{
 8001574:	b480      	push	{r7}
 8001576:	af00      	add	r7, sp, #0

  /* USER CODE END SVCall_IRQn 0 */
  /* USER CODE BEGIN SVCall_IRQn 1 */

  /* USER CODE END SVCall_IRQn 1 */
}
 8001578:	bf00      	nop
 800157a:	46bd      	mov	sp, r7
 800157c:	f85d 7b04 	ldr.w	r7, [sp], #4
 8001580:	4770      	bx	lr

08001582 <DebugMon_Handler>:

/**
  * @brief This function handles Debug monitor.
  */
void DebugMon_Handler(void)
{
 8001582:	b480      	push	{r7}
 8001584:	af00      	add	r7, sp, #0

  /* USER CODE END DebugMonitor_IRQn 0 */
  /* USER CODE BEGIN DebugMonitor_IRQn 1 */

  /* USER CODE END DebugMonitor_IRQn 1 */
}
 8001586:	bf00      	nop
 8001588:	46bd      	mov	sp, r7
 800158a:	f85d 7b04 	ldr.w	r7, [sp], #4
 800158e:	4770      	bx	lr

08001590 <PendSV_Handler>:

/**
  * @brief This function handles Pendable request for system service.
  */
void PendSV_Handler(void)
{
 8001590:	b480      	push	{r7}
 8001592:	af00      	add	r7, sp, #0

  /* USER CODE END PendSV_IRQn 0 */
  /* USER CODE BEGIN PendSV_IRQn 1 */

  /* USER CODE END PendSV_IRQn 1 */
}
 8001594:	bf00      	nop
 8001596:	46bd      	mov	sp, r7
 8001598:	f85d 7b04 	ldr.w	r7, [sp], #4
 800159c:	4770      	bx	lr

0800159e <SysTick_Handler>:

/**
  * @brief This function handles System tick timer.
  */
void SysTick_Handler(void)
{
 800159e:	b580      	push	{r7, lr}
 80015a0:	af00      	add	r7, sp, #0
  /* USER CODE BEGIN SysTick_IRQn 0 */

  /* USER CODE END SysTick_IRQn 0 */
  HAL_IncTick();
 80015a2:	f000 f9ff 	bl	80019a4 <HAL_IncTick>
  /* USER CODE BEGIN SysTick_IRQn 1 */

  /* USER CODE END SysTick_IRQn 1 */
}
 80015a6:	bf00      	nop
 80015a8:	bd80      	pop	{r7, pc}
	...

080015ac <SystemInit>:
  *         SystemFrequency variable.
  * @param  None
  * @retval None
  */
void SystemInit(void)
{
 80015ac:	b480      	push	{r7}
 80015ae:	af00      	add	r7, sp, #0
  /* FPU settings ------------------------------------------------------------*/
#if (__FPU_PRESENT == 1) && (__FPU_USED == 1)
  SCB->CPACR |= ((3UL << 10*2)|(3UL << 11*2));  /* set CP10 and CP11 Full Access */
 80015b0:	4b06      	ldr	r3, [pc, #24]	@ (80015cc <SystemInit+0x20>)
 80015b2:	f8d3 3088 	ldr.w	r3, [r3, #136]	@ 0x88
 80015b6:	4a05      	ldr	r2, [pc, #20]	@ (80015cc <SystemInit+0x20>)
 80015b8:	f443 0370 	orr.w	r3, r3, #15728640	@ 0xf00000
 80015bc:	f8c2 3088 	str.w	r3, [r2, #136]	@ 0x88

  /* Configure the Vector Table location -------------------------------------*/
#if defined(USER_VECT_TAB_ADDRESS)
  SCB->VTOR = VECT_TAB_BASE_ADDRESS | VECT_TAB_OFFSET; /* Vector Table Relocation in Internal SRAM */
#endif /* USER_VECT_TAB_ADDRESS */
}
 80015c0:	bf00      	nop
 80015c2:	46bd      	mov	sp, r7
 80015c4:	f85d 7b04 	ldr.w	r7, [sp], #4
 80015c8:	4770      	bx	lr
 80015ca:	bf00      	nop
 80015cc:	e000ed00 	.word	0xe000ed00

080015d0 <tfp_init>:
#include "tiny_printf.h"
#include "stm32f7xx_hal.h" // Change this if using a different series

static UART_HandleTypeDef *g_uart_handle = NULL;

void tfp_init(void* handle) {
 80015d0:	b480      	push	{r7}
 80015d2:	b083      	sub	sp, #12
 80015d4:	af00      	add	r7, sp, #0
 80015d6:	6078      	str	r0, [r7, #4]
    g_uart_handle = (UART_HandleTypeDef*)handle;
 80015d8:	4a04      	ldr	r2, [pc, #16]	@ (80015ec <tfp_init+0x1c>)
 80015da:	687b      	ldr	r3, [r7, #4]
 80015dc:	6013      	str	r3, [r2, #0]
}
 80015de:	bf00      	nop
 80015e0:	370c      	adds	r7, #12
 80015e2:	46bd      	mov	sp, r7
 80015e4:	f85d 7b04 	ldr.w	r7, [sp], #4
 80015e8:	4770      	bx	lr
 80015ea:	bf00      	nop
 80015ec:	200000bc 	.word	0x200000bc

080015f0 <_tfp_putc>:

static void _tfp_putc(char c) {
 80015f0:	b580      	push	{r7, lr}
 80015f2:	b082      	sub	sp, #8
 80015f4:	af00      	add	r7, sp, #0
 80015f6:	4603      	mov	r3, r0
 80015f8:	71fb      	strb	r3, [r7, #7]
    if (g_uart_handle) {
 80015fa:	4b07      	ldr	r3, [pc, #28]	@ (8001618 <_tfp_putc+0x28>)
 80015fc:	681b      	ldr	r3, [r3, #0]
 80015fe:	2b00      	cmp	r3, #0
 8001600:	d006      	beq.n	8001610 <_tfp_putc+0x20>
        HAL_UART_Transmit(g_uart_handle, (uint8_t*)&c, 1, 100);
 8001602:	4b05      	ldr	r3, [pc, #20]	@ (8001618 <_tfp_putc+0x28>)
 8001604:	6818      	ldr	r0, [r3, #0]
 8001606:	1df9      	adds	r1, r7, #7
 8001608:	2364      	movs	r3, #100	@ 0x64
 800160a:	2201      	movs	r2, #1
 800160c:	f002 f8ea 	bl	80037e4 <HAL_UART_Transmit>
    }
}
 8001610:	bf00      	nop
 8001612:	3708      	adds	r7, #8
 8001614:	46bd      	mov	sp, r7
 8001616:	bd80      	pop	{r7, pc}
 8001618:	200000bc 	.word	0x200000bc

0800161c <_tfp_puts>:

static void _tfp_puts(char *s) {
 800161c:	b580      	push	{r7, lr}
 800161e:	b082      	sub	sp, #8
 8001620:	af00      	add	r7, sp, #0
 8001622:	6078      	str	r0, [r7, #4]
    while (*s) _tfp_putc(*s++);
 8001624:	e006      	b.n	8001634 <_tfp_puts+0x18>
 8001626:	687b      	ldr	r3, [r7, #4]
 8001628:	1c5a      	adds	r2, r3, #1
 800162a:	607a      	str	r2, [r7, #4]
 800162c:	781b      	ldrb	r3, [r3, #0]
 800162e:	4618      	mov	r0, r3
 8001630:	f7ff ffde 	bl	80015f0 <_tfp_putc>
 8001634:	687b      	ldr	r3, [r7, #4]
 8001636:	781b      	ldrb	r3, [r3, #0]
 8001638:	2b00      	cmp	r3, #0
 800163a:	d1f4      	bne.n	8001626 <_tfp_puts+0xa>
}
 800163c:	bf00      	nop
 800163e:	bf00      	nop
 8001640:	3708      	adds	r7, #8
 8001642:	46bd      	mov	sp, r7
 8001644:	bd80      	pop	{r7, pc}
	...

08001648 <_tfp_print_unsigned>:

static void _tfp_print_unsigned(uint32_t i, int base) {
 8001648:	b5b0      	push	{r4, r5, r7, lr}
 800164a:	b090      	sub	sp, #64	@ 0x40
 800164c:	af00      	add	r7, sp, #0
 800164e:	6078      	str	r0, [r7, #4]
 8001650:	6039      	str	r1, [r7, #0]
    const char hex[] = "0123456789ABCDEF";
 8001652:	4b1e      	ldr	r3, [pc, #120]	@ (80016cc <_tfp_print_unsigned+0x84>)
 8001654:	f107 0428 	add.w	r4, r7, #40	@ 0x28
 8001658:	461d      	mov	r5, r3
 800165a:	cd0f      	ldmia	r5!, {r0, r1, r2, r3}
 800165c:	c40f      	stmia	r4!, {r0, r1, r2, r3}
 800165e:	682b      	ldr	r3, [r5, #0]
 8001660:	7023      	strb	r3, [r4, #0]
    char buf[32];
    int pos = 0;
 8001662:	2300      	movs	r3, #0
 8001664:	63fb      	str	r3, [r7, #60]	@ 0x3c
    if (i == 0) {
 8001666:	687b      	ldr	r3, [r7, #4]
 8001668:	2b00      	cmp	r3, #0
 800166a:	d11a      	bne.n	80016a2 <_tfp_print_unsigned+0x5a>
        _tfp_putc('0');
 800166c:	2030      	movs	r0, #48	@ 0x30
 800166e:	f7ff ffbf 	bl	80015f0 <_tfp_putc>
 8001672:	e028      	b.n	80016c6 <_tfp_print_unsigned+0x7e>
        return;
    }
    while (i > 0) {
        buf[pos++] = hex[i % base];
 8001674:	683a      	ldr	r2, [r7, #0]
 8001676:	687b      	ldr	r3, [r7, #4]
 8001678:	fbb3 f1f2 	udiv	r1, r3, r2
 800167c:	fb01 f202 	mul.w	r2, r1, r2
 8001680:	1a9a      	subs	r2, r3, r2
 8001682:	6bfb      	ldr	r3, [r7, #60]	@ 0x3c
 8001684:	1c59      	adds	r1, r3, #1
 8001686:	63f9      	str	r1, [r7, #60]	@ 0x3c
 8001688:	3240      	adds	r2, #64	@ 0x40
 800168a:	443a      	add	r2, r7
 800168c:	f812 2c18 	ldrb.w	r2, [r2, #-24]
 8001690:	3340      	adds	r3, #64	@ 0x40
 8001692:	443b      	add	r3, r7
 8001694:	f803 2c38 	strb.w	r2, [r3, #-56]
        i /= base;
 8001698:	683b      	ldr	r3, [r7, #0]
 800169a:	687a      	ldr	r2, [r7, #4]
 800169c:	fbb2 f3f3 	udiv	r3, r2, r3
 80016a0:	607b      	str	r3, [r7, #4]
    while (i > 0) {
 80016a2:	687b      	ldr	r3, [r7, #4]
 80016a4:	2b00      	cmp	r3, #0
 80016a6:	d1e5      	bne.n	8001674 <_tfp_print_unsigned+0x2c>
    }
    while (pos > 0) _tfp_putc(buf[--pos]);
 80016a8:	e00a      	b.n	80016c0 <_tfp_print_unsigned+0x78>
 80016aa:	6bfb      	ldr	r3, [r7, #60]	@ 0x3c
 80016ac:	3b01      	subs	r3, #1
 80016ae:	63fb      	str	r3, [r7, #60]	@ 0x3c
 80016b0:	f107 0208 	add.w	r2, r7, #8
 80016b4:	6bfb      	ldr	r3, [r7, #60]	@ 0x3c
 80016b6:	4413      	add	r3, r2
 80016b8:	781b      	ldrb	r3, [r3, #0]
 80016ba:	4618      	mov	r0, r3
 80016bc:	f7ff ff98 	bl	80015f0 <_tfp_putc>
 80016c0:	6bfb      	ldr	r3, [r7, #60]	@ 0x3c
 80016c2:	2b00      	cmp	r3, #0
 80016c4:	dcf1      	bgt.n	80016aa <_tfp_print_unsigned+0x62>
}
 80016c6:	3740      	adds	r7, #64	@ 0x40
 80016c8:	46bd      	mov	sp, r7
 80016ca:	bdb0      	pop	{r4, r5, r7, pc}
 80016cc:	08007aa0 	.word	0x08007aa0

080016d0 <_tfp_print_signed>:

static void _tfp_print_signed(int32_t i) {
 80016d0:	b580      	push	{r7, lr}
 80016d2:	b082      	sub	sp, #8
 80016d4:	af00      	add	r7, sp, #0
 80016d6:	6078      	str	r0, [r7, #4]
    if (i < 0) {
 80016d8:	687b      	ldr	r3, [r7, #4]
 80016da:	2b00      	cmp	r3, #0
 80016dc:	da05      	bge.n	80016ea <_tfp_print_signed+0x1a>
        _tfp_putc('-');
 80016de:	202d      	movs	r0, #45	@ 0x2d
 80016e0:	f7ff ff86 	bl	80015f0 <_tfp_putc>
        i = -i;
 80016e4:	687b      	ldr	r3, [r7, #4]
 80016e6:	425b      	negs	r3, r3
 80016e8:	607b      	str	r3, [r7, #4]
    }
    _tfp_print_unsigned((uint32_t)i, 10);
 80016ea:	687b      	ldr	r3, [r7, #4]
 80016ec:	210a      	movs	r1, #10
 80016ee:	4618      	mov	r0, r3
 80016f0:	f7ff ffaa 	bl	8001648 <_tfp_print_unsigned>
}
 80016f4:	bf00      	nop
 80016f6:	3708      	adds	r7, #8
 80016f8:	46bd      	mov	sp, r7
 80016fa:	bd80      	pop	{r7, pc}

080016fc <tfp_printf>:

void tfp_printf(const char *fmt, ...) {
 80016fc:	b40f      	push	{r0, r1, r2, r3}
 80016fe:	b580      	push	{r7, lr}
 8001700:	b082      	sub	sp, #8
 8001702:	af00      	add	r7, sp, #0
    va_list va;
    va_start(va, fmt);
 8001704:	f107 0314 	add.w	r3, r7, #20
 8001708:	603b      	str	r3, [r7, #0]
    char ch;

    while ((ch = *fmt++) != 0) {
 800170a:	e09d      	b.n	8001848 <tfp_printf+0x14c>
        if (ch != '%') {
 800170c:	79fb      	ldrb	r3, [r7, #7]
 800170e:	2b25      	cmp	r3, #37	@ 0x25
 8001710:	d004      	beq.n	800171c <tfp_printf+0x20>
            _tfp_putc(ch);
 8001712:	79fb      	ldrb	r3, [r7, #7]
 8001714:	4618      	mov	r0, r3
 8001716:	f7ff ff6b 	bl	80015f0 <_tfp_putc>
            continue;
 800171a:	e095      	b.n	8001848 <tfp_printf+0x14c>
        }
        ch = *fmt++;
 800171c:	693b      	ldr	r3, [r7, #16]
 800171e:	1c5a      	adds	r2, r3, #1
 8001720:	613a      	str	r2, [r7, #16]
 8001722:	781b      	ldrb	r3, [r3, #0]
 8001724:	71fb      	strb	r3, [r7, #7]
        switch (ch) {
 8001726:	79fb      	ldrb	r3, [r7, #7]
 8001728:	2b00      	cmp	r3, #0
 800172a:	f000 8097 	beq.w	800185c <tfp_printf+0x160>
 800172e:	2b00      	cmp	r3, #0
 8001730:	f2c0 8085 	blt.w	800183e <tfp_printf+0x142>
 8001734:	2b78      	cmp	r3, #120	@ 0x78
 8001736:	f300 8082 	bgt.w	800183e <tfp_printf+0x142>
 800173a:	2b58      	cmp	r3, #88	@ 0x58
 800173c:	db7f      	blt.n	800183e <tfp_printf+0x142>
 800173e:	3b58      	subs	r3, #88	@ 0x58
 8001740:	2b20      	cmp	r3, #32
 8001742:	d87c      	bhi.n	800183e <tfp_printf+0x142>
 8001744:	a201      	add	r2, pc, #4	@ (adr r2, 800174c <tfp_printf+0x50>)
 8001746:	f852 f023 	ldr.w	pc, [r2, r3, lsl #2]
 800174a:	bf00      	nop
 800174c:	08001815 	.word	0x08001815
 8001750:	0800183f 	.word	0x0800183f
 8001754:	0800183f 	.word	0x0800183f
 8001758:	0800183f 	.word	0x0800183f
 800175c:	0800183f 	.word	0x0800183f
 8001760:	0800183f 	.word	0x0800183f
 8001764:	0800183f 	.word	0x0800183f
 8001768:	0800183f 	.word	0x0800183f
 800176c:	0800183f 	.word	0x0800183f
 8001770:	0800183f 	.word	0x0800183f
 8001774:	0800183f 	.word	0x0800183f
 8001778:	080017d1 	.word	0x080017d1
 800177c:	080017f3 	.word	0x080017f3
 8001780:	0800183f 	.word	0x0800183f
 8001784:	0800183f 	.word	0x0800183f
 8001788:	0800183f 	.word	0x0800183f
 800178c:	0800183f 	.word	0x0800183f
 8001790:	0800183f 	.word	0x0800183f
 8001794:	0800183f 	.word	0x0800183f
 8001798:	0800183f 	.word	0x0800183f
 800179c:	0800183f 	.word	0x0800183f
 80017a0:	0800183f 	.word	0x0800183f
 80017a4:	0800183f 	.word	0x0800183f
 80017a8:	0800183f 	.word	0x0800183f
 80017ac:	08001827 	.word	0x08001827
 80017b0:	0800183f 	.word	0x0800183f
 80017b4:	0800183f 	.word	0x0800183f
 80017b8:	080017e3 	.word	0x080017e3
 80017bc:	0800183f 	.word	0x0800183f
 80017c0:	08001803 	.word	0x08001803
 80017c4:	0800183f 	.word	0x0800183f
 80017c8:	0800183f 	.word	0x0800183f
 80017cc:	08001815 	.word	0x08001815
            case 0: goto end;
            case 'c': _tfp_putc((char)va_arg(va, int)); break;
 80017d0:	683b      	ldr	r3, [r7, #0]
 80017d2:	1d1a      	adds	r2, r3, #4
 80017d4:	603a      	str	r2, [r7, #0]
 80017d6:	681b      	ldr	r3, [r3, #0]
 80017d8:	b2db      	uxtb	r3, r3
 80017da:	4618      	mov	r0, r3
 80017dc:	f7ff ff08 	bl	80015f0 <_tfp_putc>
 80017e0:	e032      	b.n	8001848 <tfp_printf+0x14c>
            case 's': _tfp_puts(va_arg(va, char*)); break;
 80017e2:	683b      	ldr	r3, [r7, #0]
 80017e4:	1d1a      	adds	r2, r3, #4
 80017e6:	603a      	str	r2, [r7, #0]
 80017e8:	681b      	ldr	r3, [r3, #0]
 80017ea:	4618      	mov	r0, r3
 80017ec:	f7ff ff16 	bl	800161c <_tfp_puts>
 80017f0:	e02a      	b.n	8001848 <tfp_printf+0x14c>
            case 'd': _tfp_print_signed(va_arg(va, int)); break;
 80017f2:	683b      	ldr	r3, [r7, #0]
 80017f4:	1d1a      	adds	r2, r3, #4
 80017f6:	603a      	str	r2, [r7, #0]
 80017f8:	681b      	ldr	r3, [r3, #0]
 80017fa:	4618      	mov	r0, r3
 80017fc:	f7ff ff68 	bl	80016d0 <_tfp_print_signed>
 8001800:	e022      	b.n	8001848 <tfp_printf+0x14c>
            case 'u': _tfp_print_unsigned(va_arg(va, uint32_t), 10); break;
 8001802:	683b      	ldr	r3, [r7, #0]
 8001804:	1d1a      	adds	r2, r3, #4
 8001806:	603a      	str	r2, [r7, #0]
 8001808:	681b      	ldr	r3, [r3, #0]
 800180a:	210a      	movs	r1, #10
 800180c:	4618      	mov	r0, r3
 800180e:	f7ff ff1b 	bl	8001648 <_tfp_print_unsigned>
 8001812:	e019      	b.n	8001848 <tfp_printf+0x14c>
            case 'x':
            case 'X': _tfp_print_unsigned(va_arg(va, uint32_t), 16); break;
 8001814:	683b      	ldr	r3, [r7, #0]
 8001816:	1d1a      	adds	r2, r3, #4
 8001818:	603a      	str	r2, [r7, #0]
 800181a:	681b      	ldr	r3, [r3, #0]
 800181c:	2110      	movs	r1, #16
 800181e:	4618      	mov	r0, r3
 8001820:	f7ff ff12 	bl	8001648 <_tfp_print_unsigned>
 8001824:	e010      	b.n	8001848 <tfp_printf+0x14c>
            case 'p':
                _tfp_puts("0x");
 8001826:	4811      	ldr	r0, [pc, #68]	@ (800186c <tfp_printf+0x170>)
 8001828:	f7ff fef8 	bl	800161c <_tfp_puts>
                _tfp_print_unsigned((uintptr_t)va_arg(va, void*), 16);
 800182c:	683b      	ldr	r3, [r7, #0]
 800182e:	1d1a      	adds	r2, r3, #4
 8001830:	603a      	str	r2, [r7, #0]
 8001832:	681b      	ldr	r3, [r3, #0]
 8001834:	2110      	movs	r1, #16
 8001836:	4618      	mov	r0, r3
 8001838:	f7ff ff06 	bl	8001648 <_tfp_print_unsigned>
                break;
 800183c:	e004      	b.n	8001848 <tfp_printf+0x14c>
            default: _tfp_putc(ch); break;
 800183e:	79fb      	ldrb	r3, [r7, #7]
 8001840:	4618      	mov	r0, r3
 8001842:	f7ff fed5 	bl	80015f0 <_tfp_putc>
 8001846:	bf00      	nop
    while ((ch = *fmt++) != 0) {
 8001848:	693b      	ldr	r3, [r7, #16]
 800184a:	1c5a      	adds	r2, r3, #1
 800184c:	613a      	str	r2, [r7, #16]
 800184e:	781b      	ldrb	r3, [r3, #0]
 8001850:	71fb      	strb	r3, [r7, #7]
 8001852:	79fb      	ldrb	r3, [r7, #7]
 8001854:	2b00      	cmp	r3, #0
 8001856:	f47f af59 	bne.w	800170c <tfp_printf+0x10>
        }
    }
end:
 800185a:	e000      	b.n	800185e <tfp_printf+0x162>
            case 0: goto end;
 800185c:	bf00      	nop
    va_end(va);
}
 800185e:	bf00      	nop
 8001860:	3708      	adds	r7, #8
 8001862:	46bd      	mov	sp, r7
 8001864:	e8bd 4080 	ldmia.w	sp!, {r7, lr}
 8001868:	b004      	add	sp, #16
 800186a:	4770      	bx	lr
 800186c:	08007ab4 	.word	0x08007ab4

08001870 <Reset_Handler>:

    .section  .text.Reset_Handler
  .weak  Reset_Handler
  .type  Reset_Handler, %function
Reset_Handler:  
  ldr   sp, =_estack      /* set stack pointer */
 8001870:	f8df d034 	ldr.w	sp, [pc, #52]	@ 80018a8 <LoopFillZerobss+0xe>
  
/* Call the clock system initialization function.*/
  bl  SystemInit   
 8001874:	f7ff fe9a 	bl	80015ac <SystemInit>

/* Copy the data segment initializers from flash to SRAM */  
  ldr r0, =_sdata
 8001878:	480c      	ldr	r0, [pc, #48]	@ (80018ac <LoopFillZerobss+0x12>)
  ldr r1, =_edata
 800187a:	490d      	ldr	r1, [pc, #52]	@ (80018b0 <LoopFillZerobss+0x16>)
  ldr r2, =_sidata
 800187c:	4a0d      	ldr	r2, [pc, #52]	@ (80018b4 <LoopFillZerobss+0x1a>)
  movs r3, #0
 800187e:	2300      	movs	r3, #0
  b LoopCopyDataInit
 8001880:	e002      	b.n	8001888 <LoopCopyDataInit>

08001882 <CopyDataInit>:

CopyDataInit:
  ldr r4, [r2, r3]
 8001882:	58d4      	ldr	r4, [r2, r3]
  str r4, [r0, r3]
 8001884:	50c4      	str	r4, [r0, r3]
  adds r3, r3, #4
 8001886:	3304      	adds	r3, #4

08001888 <LoopCopyDataInit>:

LoopCopyDataInit:
  adds r4, r0, r3
 8001888:	18c4      	adds	r4, r0, r3
  cmp r4, r1
 800188a:	428c      	cmp	r4, r1
  bcc CopyDataInit
 800188c:	d3f9      	bcc.n	8001882 <CopyDataInit>
  
/* Zero fill the bss segment. */
  ldr r2, =_sbss
 800188e:	4a0a      	ldr	r2, [pc, #40]	@ (80018b8 <LoopFillZerobss+0x1e>)
  ldr r4, =_ebss
 8001890:	4c0a      	ldr	r4, [pc, #40]	@ (80018bc <LoopFillZerobss+0x22>)
  movs r3, #0
 8001892:	2300      	movs	r3, #0
  b LoopFillZerobss
 8001894:	e001      	b.n	800189a <LoopFillZerobss>

08001896 <FillZerobss>:

FillZerobss:
  str  r3, [r2]
 8001896:	6013      	str	r3, [r2, #0]
  adds r2, r2, #4
 8001898:	3204      	adds	r2, #4

0800189a <LoopFillZerobss>:

LoopFillZerobss:
  cmp r2, r4
 800189a:	42a2      	cmp	r2, r4
  bcc FillZerobss
 800189c:	d3fb      	bcc.n	8001896 <FillZerobss>
  
/* Call static constructors */
    bl __libc_init_array
 800189e:	f005 fc0b 	bl	80070b8 <__libc_init_array>
/* Call the application's entry point.*/
  bl  main
 80018a2:	f7ff fb9d 	bl	8000fe0 <main>
  bx  lr    
 80018a6:	4770      	bx	lr
  ldr   sp, =_estack      /* set stack pointer */
 80018a8:	20050000 	.word	0x20050000
  ldr r0, =_sdata
 80018ac:	20000000 	.word	0x20000000
  ldr r1, =_edata
 80018b0:	2000000c 	.word	0x2000000c
  ldr r2, =_sidata
 80018b4:	08007f0c 	.word	0x08007f0c
  ldr r2, =_sbss
 80018b8:	2000000c 	.word	0x2000000c
  ldr r4, =_ebss
 80018bc:	200000e0 	.word	0x200000e0

080018c0 <ADC_IRQHandler>:
 * @retval None       
*/
    .section  .text.Default_Handler,"ax",%progbits
Default_Handler:
Infinite_Loop:
  b  Infinite_Loop
 80018c0:	e7fe      	b.n	80018c0 <ADC_IRQHandler>

080018c2 <HAL_Init>:
  *         need to ensure that the SysTick time base is always set to 1 millisecond
  *         to have correct HAL operation.
  * @retval HAL status
  */
HAL_StatusTypeDef HAL_Init(void)
{
 80018c2:	b580      	push	{r7, lr}
 80018c4:	af00      	add	r7, sp, #0
#if (PREFETCH_ENABLE != 0U)
  __HAL_FLASH_PREFETCH_BUFFER_ENABLE();
#endif /* PREFETCH_ENABLE */

  /* Set Interrupt Group Priority */
  HAL_NVIC_SetPriorityGrouping(NVIC_PRIORITYGROUP_4);
 80018c6:	2003      	movs	r0, #3
 80018c8:	f000 f978 	bl	8001bbc <HAL_NVIC_SetPriorityGrouping>

  /* Use systick as time base source and configure 1ms tick (default clock after Reset is HSI) */
  HAL_InitTick(TICK_INT_PRIORITY);
 80018cc:	2000      	movs	r0, #0
 80018ce:	f000 f839 	bl	8001944 <HAL_InitTick>

  /* Init the low level hardware */
  HAL_MspInit();
 80018d2:	f7ff fd95 	bl	8001400 <HAL_MspInit>

  /* Return function status */
  return HAL_OK;
 80018d6:	2300      	movs	r3, #0
}
 80018d8:	4618      	mov	r0, r3
 80018da:	bd80      	pop	{r7, pc}

080018dc <HAL_DeInit>:
  * @brief  This function de-Initializes common part of the HAL and stops the systick.
  *         This function is optional.   
  * @retval HAL status
  */
HAL_StatusTypeDef HAL_DeInit(void)
{
 80018dc:	b580      	push	{r7, lr}
 80018de:	af00      	add	r7, sp, #0
  /* Reset of all peripherals */
  __HAL_RCC_APB1_FORCE_RESET();
 80018e0:	4b13      	ldr	r3, [pc, #76]	@ (8001930 <HAL_DeInit+0x54>)
 80018e2:	f04f 32ff 	mov.w	r2, #4294967295
 80018e6:	621a      	str	r2, [r3, #32]
  __HAL_RCC_APB1_RELEASE_RESET();
 80018e8:	4b11      	ldr	r3, [pc, #68]	@ (8001930 <HAL_DeInit+0x54>)
 80018ea:	2200      	movs	r2, #0
 80018ec:	621a      	str	r2, [r3, #32]

  __HAL_RCC_APB2_FORCE_RESET();
 80018ee:	4b10      	ldr	r3, [pc, #64]	@ (8001930 <HAL_DeInit+0x54>)
 80018f0:	f04f 32ff 	mov.w	r2, #4294967295
 80018f4:	625a      	str	r2, [r3, #36]	@ 0x24
  __HAL_RCC_APB2_RELEASE_RESET();
 80018f6:	4b0e      	ldr	r3, [pc, #56]	@ (8001930 <HAL_DeInit+0x54>)
 80018f8:	2200      	movs	r2, #0
 80018fa:	625a      	str	r2, [r3, #36]	@ 0x24

  __HAL_RCC_AHB1_FORCE_RESET();
 80018fc:	4b0c      	ldr	r3, [pc, #48]	@ (8001930 <HAL_DeInit+0x54>)
 80018fe:	f04f 32ff 	mov.w	r2, #4294967295
 8001902:	611a      	str	r2, [r3, #16]
  __HAL_RCC_AHB1_RELEASE_RESET();
 8001904:	4b0a      	ldr	r3, [pc, #40]	@ (8001930 <HAL_DeInit+0x54>)
 8001906:	2200      	movs	r2, #0
 8001908:	611a      	str	r2, [r3, #16]

  __HAL_RCC_AHB2_FORCE_RESET();
 800190a:	4b09      	ldr	r3, [pc, #36]	@ (8001930 <HAL_DeInit+0x54>)
 800190c:	f04f 32ff 	mov.w	r2, #4294967295
 8001910:	615a      	str	r2, [r3, #20]
  __HAL_RCC_AHB2_RELEASE_RESET();
 8001912:	4b07      	ldr	r3, [pc, #28]	@ (8001930 <HAL_DeInit+0x54>)
 8001914:	2200      	movs	r2, #0
 8001916:	615a      	str	r2, [r3, #20]

  __HAL_RCC_AHB3_FORCE_RESET();
 8001918:	4b05      	ldr	r3, [pc, #20]	@ (8001930 <HAL_DeInit+0x54>)
 800191a:	f04f 32ff 	mov.w	r2, #4294967295
 800191e:	619a      	str	r2, [r3, #24]
  __HAL_RCC_AHB3_RELEASE_RESET();
 8001920:	4b03      	ldr	r3, [pc, #12]	@ (8001930 <HAL_DeInit+0x54>)
 8001922:	2200      	movs	r2, #0
 8001924:	619a      	str	r2, [r3, #24]

  /* De-Init the low level hardware */
  HAL_MspDeInit();
 8001926:	f000 f805 	bl	8001934 <HAL_MspDeInit>

  /* Return function status */
  return HAL_OK;
 800192a:	2300      	movs	r3, #0
}
 800192c:	4618      	mov	r0, r3
 800192e:	bd80      	pop	{r7, pc}
 8001930:	40023800 	.word	0x40023800

08001934 <HAL_MspDeInit>:
/**
  * @brief  DeInitializes the MSP.
  * @retval None
  */
__weak void HAL_MspDeInit(void)
{
 8001934:	b480      	push	{r7}
 8001936:	af00      	add	r7, sp, #0
  /* NOTE : This function should not be modified, when the callback is needed,
            the HAL_MspDeInit could be implemented in the user file
   */ 
}
 8001938:	bf00      	nop
 800193a:	46bd      	mov	sp, r7
 800193c:	f85d 7b04 	ldr.w	r7, [sp], #4
 8001940:	4770      	bx	lr
	...

08001944 <HAL_InitTick>:
  *       implementation  in user file.
  * @param TickPriority Tick interrupt priority.
  * @retval HAL status
  */
__weak HAL_StatusTypeDef HAL_InitTick(uint32_t TickPriority)
{
 8001944:	b580      	push	{r7, lr}
 8001946:	b082      	sub	sp, #8
 8001948:	af00      	add	r7, sp, #0
 800194a:	6078      	str	r0, [r7, #4]
  /* Configure the SysTick to have interrupt in 1ms time basis*/
  if (HAL_SYSTICK_Config(SystemCoreClock / (1000U / uwTickFreq)) > 0U)
 800194c:	4b12      	ldr	r3, [pc, #72]	@ (8001998 <HAL_InitTick+0x54>)
 800194e:	681a      	ldr	r2, [r3, #0]
 8001950:	4b12      	ldr	r3, [pc, #72]	@ (800199c <HAL_InitTick+0x58>)
 8001952:	781b      	ldrb	r3, [r3, #0]
 8001954:	4619      	mov	r1, r3
 8001956:	f44f 737a 	mov.w	r3, #1000	@ 0x3e8
 800195a:	fbb3 f3f1 	udiv	r3, r3, r1
 800195e:	fbb2 f3f3 	udiv	r3, r2, r3
 8001962:	4618      	mov	r0, r3
 8001964:	f000 f955 	bl	8001c12 <HAL_SYSTICK_Config>
 8001968:	4603      	mov	r3, r0
 800196a:	2b00      	cmp	r3, #0
 800196c:	d001      	beq.n	8001972 <HAL_InitTick+0x2e>
  {
    return HAL_ERROR;
 800196e:	2301      	movs	r3, #1
 8001970:	e00e      	b.n	8001990 <HAL_InitTick+0x4c>
  }

  /* Configure the SysTick IRQ priority */
  if (TickPriority < (1UL << __NVIC_PRIO_BITS))
 8001972:	687b      	ldr	r3, [r7, #4]
 8001974:	2b0f      	cmp	r3, #15
 8001976:	d80a      	bhi.n	800198e <HAL_InitTick+0x4a>
  {
    HAL_NVIC_SetPriority(SysTick_IRQn, TickPriority, 0U);
 8001978:	2200      	movs	r2, #0
 800197a:	6879      	ldr	r1, [r7, #4]
 800197c:	f04f 30ff 	mov.w	r0, #4294967295
 8001980:	f000 f927 	bl	8001bd2 <HAL_NVIC_SetPriority>
    uwTickPrio = TickPriority;
 8001984:	4a06      	ldr	r2, [pc, #24]	@ (80019a0 <HAL_InitTick+0x5c>)
 8001986:	687b      	ldr	r3, [r7, #4]
 8001988:	6013      	str	r3, [r2, #0]
  {
    return HAL_ERROR;
  }

  /* Return function status */
  return HAL_OK;
 800198a:	2300      	movs	r3, #0
 800198c:	e000      	b.n	8001990 <HAL_InitTick+0x4c>
    return HAL_ERROR;
 800198e:	2301      	movs	r3, #1
}
 8001990:	4618      	mov	r0, r3
 8001992:	3708      	adds	r7, #8
 8001994:	46bd      	mov	sp, r7
 8001996:	bd80      	pop	{r7, pc}
 8001998:	20000000 	.word	0x20000000
 800199c:	20000008 	.word	0x20000008
 80019a0:	20000004 	.word	0x20000004

080019a4 <HAL_IncTick>:
 * @note This function is declared as __weak to be overwritten in case of other 
  *      implementations in user file.
  * @retval None
  */
__weak void HAL_IncTick(void)
{
 80019a4:	b480      	push	{r7}
 80019a6:	af00      	add	r7, sp, #0
  uwTick += uwTickFreq;
 80019a8:	4b06      	ldr	r3, [pc, #24]	@ (80019c4 <HAL_IncTick+0x20>)
 80019aa:	781b      	ldrb	r3, [r3, #0]
 80019ac:	461a      	mov	r2, r3
 80019ae:	4b06      	ldr	r3, [pc, #24]	@ (80019c8 <HAL_IncTick+0x24>)
 80019b0:	681b      	ldr	r3, [r3, #0]
 80019b2:	4413      	add	r3, r2
 80019b4:	4a04      	ldr	r2, [pc, #16]	@ (80019c8 <HAL_IncTick+0x24>)
 80019b6:	6013      	str	r3, [r2, #0]
}
 80019b8:	bf00      	nop
 80019ba:	46bd      	mov	sp, r7
 80019bc:	f85d 7b04 	ldr.w	r7, [sp], #4
 80019c0:	4770      	bx	lr
 80019c2:	bf00      	nop
 80019c4:	20000008 	.word	0x20000008
 80019c8:	200000c0 	.word	0x200000c0

080019cc <HAL_GetTick>:
  * @note This function is declared as __weak to be overwritten in case of other 
  *       implementations in user file.
  * @retval tick value
  */
__weak uint32_t HAL_GetTick(void)
{
 80019cc:	b480      	push	{r7}
 80019ce:	af00      	add	r7, sp, #0
  return uwTick;
 80019d0:	4b03      	ldr	r3, [pc, #12]	@ (80019e0 <HAL_GetTick+0x14>)
 80019d2:	681b      	ldr	r3, [r3, #0]
}
 80019d4:	4618      	mov	r0, r3
 80019d6:	46bd      	mov	sp, r7
 80019d8:	f85d 7b04 	ldr.w	r7, [sp], #4
 80019dc:	4770      	bx	lr
 80019de:	bf00      	nop
 80019e0:	200000c0 	.word	0x200000c0

080019e4 <HAL_Delay>:
  *       implementations in user file.
  * @param Delay  specifies the delay time length, in milliseconds.
  * @retval None
  */
__weak void HAL_Delay(uint32_t Delay)
{
 80019e4:	b580      	push	{r7, lr}
 80019e6:	b084      	sub	sp, #16
 80019e8:	af00      	add	r7, sp, #0
 80019ea:	6078      	str	r0, [r7, #4]
  uint32_t tickstart = HAL_GetTick();
 80019ec:	f7ff ffee 	bl	80019cc <HAL_GetTick>
 80019f0:	60b8      	str	r0, [r7, #8]
  uint32_t wait = Delay;
 80019f2:	687b      	ldr	r3, [r7, #4]
 80019f4:	60fb      	str	r3, [r7, #12]

  /* Add a freq to guarantee minimum wait */
  if (wait < HAL_MAX_DELAY)
 80019f6:	68fb      	ldr	r3, [r7, #12]
 80019f8:	f1b3 3fff 	cmp.w	r3, #4294967295
 80019fc:	d005      	beq.n	8001a0a <HAL_Delay+0x26>
  {
    wait += (uint32_t)(uwTickFreq);
 80019fe:	4b0a      	ldr	r3, [pc, #40]	@ (8001a28 <HAL_Delay+0x44>)
 8001a00:	781b      	ldrb	r3, [r3, #0]
 8001a02:	461a      	mov	r2, r3
 8001a04:	68fb      	ldr	r3, [r7, #12]
 8001a06:	4413      	add	r3, r2
 8001a08:	60fb      	str	r3, [r7, #12]
  }

  while ((HAL_GetTick() - tickstart) < wait)
 8001a0a:	bf00      	nop
 8001a0c:	f7ff ffde 	bl	80019cc <HAL_GetTick>
 8001a10:	4602      	mov	r2, r0
 8001a12:	68bb      	ldr	r3, [r7, #8]
 8001a14:	1ad3      	subs	r3, r2, r3
 8001a16:	68fa      	ldr	r2, [r7, #12]
 8001a18:	429a      	cmp	r2, r3
 8001a1a:	d8f7      	bhi.n	8001a0c <HAL_Delay+0x28>
  {
  }
}
 8001a1c:	bf00      	nop
 8001a1e:	bf00      	nop
 8001a20:	3710      	adds	r7, #16
 8001a22:	46bd      	mov	sp, r7
 8001a24:	bd80      	pop	{r7, pc}
 8001a26:	bf00      	nop
 8001a28:	20000008 	.word	0x20000008

08001a2c <__NVIC_SetPriorityGrouping>:
           In case of a conflict between priority grouping and available
           priority bits (__NVIC_PRIO_BITS), the smallest possible priority group is set.
  \param [in]      PriorityGroup  Priority grouping field.
 */
__STATIC_INLINE void __NVIC_SetPriorityGrouping(uint32_t PriorityGroup)
{
 8001a2c:	b480      	push	{r7}
 8001a2e:	b085      	sub	sp, #20
 8001a30:	af00      	add	r7, sp, #0
 8001a32:	6078      	str	r0, [r7, #4]
  uint32_t reg_value;
  uint32_t PriorityGroupTmp = (PriorityGroup & (uint32_t)0x07UL);             /* only values 0..7 are used          */
 8001a34:	687b      	ldr	r3, [r7, #4]
 8001a36:	f003 0307 	and.w	r3, r3, #7
 8001a3a:	60fb      	str	r3, [r7, #12]

  reg_value  =  SCB->AIRCR;                                                   /* read old register configuration    */
 8001a3c:	4b0b      	ldr	r3, [pc, #44]	@ (8001a6c <__NVIC_SetPriorityGrouping+0x40>)
 8001a3e:	68db      	ldr	r3, [r3, #12]
 8001a40:	60bb      	str	r3, [r7, #8]
  reg_value &= ~((uint32_t)(SCB_AIRCR_VECTKEY_Msk | SCB_AIRCR_PRIGROUP_Msk)); /* clear bits to change               */
 8001a42:	68ba      	ldr	r2, [r7, #8]
 8001a44:	f64f 03ff 	movw	r3, #63743	@ 0xf8ff
 8001a48:	4013      	ands	r3, r2
 8001a4a:	60bb      	str	r3, [r7, #8]
  reg_value  =  (reg_value                                   |
                ((uint32_t)0x5FAUL << SCB_AIRCR_VECTKEY_Pos) |
                (PriorityGroupTmp << SCB_AIRCR_PRIGROUP_Pos)  );              /* Insert write key and priority group */
 8001a4c:	68fb      	ldr	r3, [r7, #12]
 8001a4e:	021a      	lsls	r2, r3, #8
                ((uint32_t)0x5FAUL << SCB_AIRCR_VECTKEY_Pos) |
 8001a50:	68bb      	ldr	r3, [r7, #8]
 8001a52:	431a      	orrs	r2, r3
  reg_value  =  (reg_value                                   |
 8001a54:	4b06      	ldr	r3, [pc, #24]	@ (8001a70 <__NVIC_SetPriorityGrouping+0x44>)
 8001a56:	4313      	orrs	r3, r2
 8001a58:	60bb      	str	r3, [r7, #8]
  SCB->AIRCR =  reg_value;
 8001a5a:	4a04      	ldr	r2, [pc, #16]	@ (8001a6c <__NVIC_SetPriorityGrouping+0x40>)
 8001a5c:	68bb      	ldr	r3, [r7, #8]
 8001a5e:	60d3      	str	r3, [r2, #12]
}
 8001a60:	bf00      	nop
 8001a62:	3714      	adds	r7, #20
 8001a64:	46bd      	mov	sp, r7
 8001a66:	f85d 7b04 	ldr.w	r7, [sp], #4
 8001a6a:	4770      	bx	lr
 8001a6c:	e000ed00 	.word	0xe000ed00
 8001a70:	05fa0000 	.word	0x05fa0000

08001a74 <__NVIC_GetPriorityGrouping>:
  \brief   Get Priority Grouping
  \details Reads the priority grouping field from the NVIC Interrupt Controller.
  \return                Priority grouping field (SCB->AIRCR [10:8] PRIGROUP field).
 */
__STATIC_INLINE uint32_t __NVIC_GetPriorityGrouping(void)
{
 8001a74:	b480      	push	{r7}
 8001a76:	af00      	add	r7, sp, #0
  return ((uint32_t)((SCB->AIRCR & SCB_AIRCR_PRIGROUP_Msk) >> SCB_AIRCR_PRIGROUP_Pos));
 8001a78:	4b04      	ldr	r3, [pc, #16]	@ (8001a8c <__NVIC_GetPriorityGrouping+0x18>)
 8001a7a:	68db      	ldr	r3, [r3, #12]
 8001a7c:	0a1b      	lsrs	r3, r3, #8
 8001a7e:	f003 0307 	and.w	r3, r3, #7
}
 8001a82:	4618      	mov	r0, r3
 8001a84:	46bd      	mov	sp, r7
 8001a86:	f85d 7b04 	ldr.w	r7, [sp], #4
 8001a8a:	4770      	bx	lr
 8001a8c:	e000ed00 	.word	0xe000ed00

08001a90 <__NVIC_SetPriority>:
  \param [in]      IRQn  Interrupt number.
  \param [in]  priority  Priority to set.
  \note    The priority cannot be set for every processor exception.
 */
__STATIC_INLINE void __NVIC_SetPriority(IRQn_Type IRQn, uint32_t priority)
{
 8001a90:	b480      	push	{r7}
 8001a92:	b083      	sub	sp, #12
 8001a94:	af00      	add	r7, sp, #0
 8001a96:	4603      	mov	r3, r0
 8001a98:	6039      	str	r1, [r7, #0]
 8001a9a:	71fb      	strb	r3, [r7, #7]
  if ((int32_t)(IRQn) >= 0)
 8001a9c:	f997 3007 	ldrsb.w	r3, [r7, #7]
 8001aa0:	2b00      	cmp	r3, #0
 8001aa2:	db0a      	blt.n	8001aba <__NVIC_SetPriority+0x2a>
  {
    NVIC->IP[((uint32_t)IRQn)]                = (uint8_t)((priority << (8U - __NVIC_PRIO_BITS)) & (uint32_t)0xFFUL);
 8001aa4:	683b      	ldr	r3, [r7, #0]
 8001aa6:	b2da      	uxtb	r2, r3
 8001aa8:	490c      	ldr	r1, [pc, #48]	@ (8001adc <__NVIC_SetPriority+0x4c>)
 8001aaa:	f997 3007 	ldrsb.w	r3, [r7, #7]
 8001aae:	0112      	lsls	r2, r2, #4
 8001ab0:	b2d2      	uxtb	r2, r2
 8001ab2:	440b      	add	r3, r1
 8001ab4:	f883 2300 	strb.w	r2, [r3, #768]	@ 0x300
  }
  else
  {
    SCB->SHPR[(((uint32_t)IRQn) & 0xFUL)-4UL] = (uint8_t)((priority << (8U - __NVIC_PRIO_BITS)) & (uint32_t)0xFFUL);
  }
}
 8001ab8:	e00a      	b.n	8001ad0 <__NVIC_SetPriority+0x40>
    SCB->SHPR[(((uint32_t)IRQn) & 0xFUL)-4UL] = (uint8_t)((priority << (8U - __NVIC_PRIO_BITS)) & (uint32_t)0xFFUL);
 8001aba:	683b      	ldr	r3, [r7, #0]
 8001abc:	b2da      	uxtb	r2, r3
 8001abe:	4908      	ldr	r1, [pc, #32]	@ (8001ae0 <__NVIC_SetPriority+0x50>)
 8001ac0:	79fb      	ldrb	r3, [r7, #7]
 8001ac2:	f003 030f 	and.w	r3, r3, #15
 8001ac6:	3b04      	subs	r3, #4
 8001ac8:	0112      	lsls	r2, r2, #4
 8001aca:	b2d2      	uxtb	r2, r2
 8001acc:	440b      	add	r3, r1
 8001ace:	761a      	strb	r2, [r3, #24]
}
 8001ad0:	bf00      	nop
 8001ad2:	370c      	adds	r7, #12
 8001ad4:	46bd      	mov	sp, r7
 8001ad6:	f85d 7b04 	ldr.w	r7, [sp], #4
 8001ada:	4770      	bx	lr
 8001adc:	e000e100 	.word	0xe000e100
 8001ae0:	e000ed00 	.word	0xe000ed00

08001ae4 <NVIC_EncodePriority>:
  \param [in]   PreemptPriority  Preemptive priority value (starting from 0).
  \param [in]       SubPriority  Subpriority value (starting from 0).
  \return                        Encoded priority. Value can be used in the function \ref NVIC_SetPriority().
 */
__STATIC_INLINE uint32_t NVIC_EncodePriority (uint32_t PriorityGroup, uint32_t PreemptPriority, uint32_t SubPriority)
{
 8001ae4:	b480      	push	{r7}
 8001ae6:	b089      	sub	sp, #36	@ 0x24
 8001ae8:	af00      	add	r7, sp, #0
 8001aea:	60f8      	str	r0, [r7, #12]
 8001aec:	60b9      	str	r1, [r7, #8]
 8001aee:	607a      	str	r2, [r7, #4]
  uint32_t PriorityGroupTmp = (PriorityGroup & (uint32_t)0x07UL);   /* only values 0..7 are used          */
 8001af0:	68fb      	ldr	r3, [r7, #12]
 8001af2:	f003 0307 	and.w	r3, r3, #7
 8001af6:	61fb      	str	r3, [r7, #28]
  uint32_t PreemptPriorityBits;
  uint32_t SubPriorityBits;

  PreemptPriorityBits = ((7UL - PriorityGroupTmp) > (uint32_t)(__NVIC_PRIO_BITS)) ? (uint32_t)(__NVIC_PRIO_BITS) : (uint32_t)(7UL - PriorityGroupTmp);
 8001af8:	69fb      	ldr	r3, [r7, #28]
 8001afa:	f1c3 0307 	rsb	r3, r3, #7
 8001afe:	2b04      	cmp	r3, #4
 8001b00:	bf28      	it	cs
 8001b02:	2304      	movcs	r3, #4
 8001b04:	61bb      	str	r3, [r7, #24]
  SubPriorityBits     = ((PriorityGroupTmp + (uint32_t)(__NVIC_PRIO_BITS)) < (uint32_t)7UL) ? (uint32_t)0UL : (uint32_t)((PriorityGroupTmp - 7UL) + (uint32_t)(__NVIC_PRIO_BITS));
 8001b06:	69fb      	ldr	r3, [r7, #28]
 8001b08:	3304      	adds	r3, #4
 8001b0a:	2b06      	cmp	r3, #6
 8001b0c:	d902      	bls.n	8001b14 <NVIC_EncodePriority+0x30>
 8001b0e:	69fb      	ldr	r3, [r7, #28]
 8001b10:	3b03      	subs	r3, #3
 8001b12:	e000      	b.n	8001b16 <NVIC_EncodePriority+0x32>
 8001b14:	2300      	movs	r3, #0
 8001b16:	617b      	str	r3, [r7, #20]

  return (
           ((PreemptPriority & (uint32_t)((1UL << (PreemptPriorityBits)) - 1UL)) << SubPriorityBits) |
 8001b18:	f04f 32ff 	mov.w	r2, #4294967295
 8001b1c:	69bb      	ldr	r3, [r7, #24]
 8001b1e:	fa02 f303 	lsl.w	r3, r2, r3
 8001b22:	43da      	mvns	r2, r3
 8001b24:	68bb      	ldr	r3, [r7, #8]
 8001b26:	401a      	ands	r2, r3
 8001b28:	697b      	ldr	r3, [r7, #20]
 8001b2a:	409a      	lsls	r2, r3
           ((SubPriority     & (uint32_t)((1UL << (SubPriorityBits    )) - 1UL)))
 8001b2c:	f04f 31ff 	mov.w	r1, #4294967295
 8001b30:	697b      	ldr	r3, [r7, #20]
 8001b32:	fa01 f303 	lsl.w	r3, r1, r3
 8001b36:	43d9      	mvns	r1, r3
 8001b38:	687b      	ldr	r3, [r7, #4]
 8001b3a:	400b      	ands	r3, r1
           ((PreemptPriority & (uint32_t)((1UL << (PreemptPriorityBits)) - 1UL)) << SubPriorityBits) |
 8001b3c:	4313      	orrs	r3, r2
         );
}
 8001b3e:	4618      	mov	r0, r3
 8001b40:	3724      	adds	r7, #36	@ 0x24
 8001b42:	46bd      	mov	sp, r7
 8001b44:	f85d 7b04 	ldr.w	r7, [sp], #4
 8001b48:	4770      	bx	lr
	...

08001b4c <__NVIC_SystemReset>:
/**
  \brief   System Reset
  \details Initiates a system reset request to reset the MCU.
 */
__NO_RETURN __STATIC_INLINE void __NVIC_SystemReset(void)
{
 8001b4c:	b480      	push	{r7}
 8001b4e:	af00      	add	r7, sp, #0
  \details Acts as a special kind of Data Memory Barrier.
           It completes when all explicit memory accesses before this instruction complete.
 */
__STATIC_FORCEINLINE void __DSB(void)
{
  __ASM volatile ("dsb 0xF":::"memory");
 8001b50:	f3bf 8f4f 	dsb	sy
}
 8001b54:	bf00      	nop
  __DSB();                                                          /* Ensure all outstanding memory accesses included
                                                                       buffered write are completed before reset */
  SCB->AIRCR  = (uint32_t)((0x5FAUL << SCB_AIRCR_VECTKEY_Pos)    |
                           (SCB->AIRCR & SCB_AIRCR_PRIGROUP_Msk) |
 8001b56:	4b06      	ldr	r3, [pc, #24]	@ (8001b70 <__NVIC_SystemReset+0x24>)
 8001b58:	68db      	ldr	r3, [r3, #12]
 8001b5a:	f403 62e0 	and.w	r2, r3, #1792	@ 0x700
  SCB->AIRCR  = (uint32_t)((0x5FAUL << SCB_AIRCR_VECTKEY_Pos)    |
 8001b5e:	4904      	ldr	r1, [pc, #16]	@ (8001b70 <__NVIC_SystemReset+0x24>)
 8001b60:	4b04      	ldr	r3, [pc, #16]	@ (8001b74 <__NVIC_SystemReset+0x28>)
 8001b62:	4313      	orrs	r3, r2
 8001b64:	60cb      	str	r3, [r1, #12]
  __ASM volatile ("dsb 0xF":::"memory");
 8001b66:	f3bf 8f4f 	dsb	sy
}
 8001b6a:	bf00      	nop
                            SCB_AIRCR_SYSRESETREQ_Msk    );         /* Keep priority group unchanged */
  __DSB();                                                          /* Ensure completion of memory access */

  for(;;)                                                           /* wait until reset */
  {
    __NOP();
 8001b6c:	bf00      	nop
 8001b6e:	e7fd      	b.n	8001b6c <__NVIC_SystemReset+0x20>
 8001b70:	e000ed00 	.word	0xe000ed00
 8001b74:	05fa0004 	.word	0x05fa0004

08001b78 <SysTick_Config>:
  \note    When the variable <b>__Vendor_SysTickConfig</b> is set to 1, then the
           function <b>SysTick_Config</b> is not included. In this case, the file <b><i>device</i>.h</b>
           must contain a vendor-specific implementation of this function.
 */
__STATIC_INLINE uint32_t SysTick_Config(uint32_t ticks)
{
 8001b78:	b580      	push	{r7, lr}
 8001b7a:	b082      	sub	sp, #8
 8001b7c:	af00      	add	r7, sp, #0
 8001b7e:	6078      	str	r0, [r7, #4]
  if ((ticks - 1UL) > SysTick_LOAD_RELOAD_Msk)
 8001b80:	687b      	ldr	r3, [r7, #4]
 8001b82:	3b01      	subs	r3, #1
 8001b84:	f1b3 7f80 	cmp.w	r3, #16777216	@ 0x1000000
 8001b88:	d301      	bcc.n	8001b8e <SysTick_Config+0x16>
  {
    return (1UL);                                                   /* Reload value impossible */
 8001b8a:	2301      	movs	r3, #1
 8001b8c:	e00f      	b.n	8001bae <SysTick_Config+0x36>
  }

  SysTick->LOAD  = (uint32_t)(ticks - 1UL);                         /* set reload register */
 8001b8e:	4a0a      	ldr	r2, [pc, #40]	@ (8001bb8 <SysTick_Config+0x40>)
 8001b90:	687b      	ldr	r3, [r7, #4]
 8001b92:	3b01      	subs	r3, #1
 8001b94:	6053      	str	r3, [r2, #4]
  NVIC_SetPriority (SysTick_IRQn, (1UL << __NVIC_PRIO_BITS) - 1UL); /* set Priority for Systick Interrupt */
 8001b96:	210f      	movs	r1, #15
 8001b98:	f04f 30ff 	mov.w	r0, #4294967295
 8001b9c:	f7ff ff78 	bl	8001a90 <__NVIC_SetPriority>
  SysTick->VAL   = 0UL;                                             /* Load the SysTick Counter Value */
 8001ba0:	4b05      	ldr	r3, [pc, #20]	@ (8001bb8 <SysTick_Config+0x40>)
 8001ba2:	2200      	movs	r2, #0
 8001ba4:	609a      	str	r2, [r3, #8]
  SysTick->CTRL  = SysTick_CTRL_CLKSOURCE_Msk |
 8001ba6:	4b04      	ldr	r3, [pc, #16]	@ (8001bb8 <SysTick_Config+0x40>)
 8001ba8:	2207      	movs	r2, #7
 8001baa:	601a      	str	r2, [r3, #0]
                   SysTick_CTRL_TICKINT_Msk   |
                   SysTick_CTRL_ENABLE_Msk;                         /* Enable SysTick IRQ and SysTick Timer */
  return (0UL);                                                     /* Function successful */
 8001bac:	2300      	movs	r3, #0
}
 8001bae:	4618      	mov	r0, r3
 8001bb0:	3708      	adds	r7, #8
 8001bb2:	46bd      	mov	sp, r7
 8001bb4:	bd80      	pop	{r7, pc}
 8001bb6:	bf00      	nop
 8001bb8:	e000e010 	.word	0xe000e010

08001bbc <HAL_NVIC_SetPriorityGrouping>:
  * @note   When the NVIC_PriorityGroup_0 is selected, IRQ preemption is no more possible. 
  *         The pending IRQ priority will be managed only by the subpriority. 
  * @retval None
  */
void HAL_NVIC_SetPriorityGrouping(uint32_t PriorityGroup)
{
 8001bbc:	b580      	push	{r7, lr}
 8001bbe:	b082      	sub	sp, #8
 8001bc0:	af00      	add	r7, sp, #0
 8001bc2:	6078      	str	r0, [r7, #4]
  /* Check the parameters */
  assert_param(IS_NVIC_PRIORITY_GROUP(PriorityGroup));
  
  /* Set the PRIGROUP[10:8] bits according to the PriorityGroup parameter value */
  NVIC_SetPriorityGrouping(PriorityGroup);
 8001bc4:	6878      	ldr	r0, [r7, #4]
 8001bc6:	f7ff ff31 	bl	8001a2c <__NVIC_SetPriorityGrouping>
}
 8001bca:	bf00      	nop
 8001bcc:	3708      	adds	r7, #8
 8001bce:	46bd      	mov	sp, r7
 8001bd0:	bd80      	pop	{r7, pc}

08001bd2 <HAL_NVIC_SetPriority>:
  *         This parameter can be a value between 0 and 15
  *         A lower priority value indicates a higher priority.          
  * @retval None
  */
void HAL_NVIC_SetPriority(IRQn_Type IRQn, uint32_t PreemptPriority, uint32_t SubPriority)
{ 
 8001bd2:	b580      	push	{r7, lr}
 8001bd4:	b086      	sub	sp, #24
 8001bd6:	af00      	add	r7, sp, #0
 8001bd8:	4603      	mov	r3, r0
 8001bda:	60b9      	str	r1, [r7, #8]
 8001bdc:	607a      	str	r2, [r7, #4]
 8001bde:	73fb      	strb	r3, [r7, #15]
  uint32_t prioritygroup = 0x00;
 8001be0:	2300      	movs	r3, #0
 8001be2:	617b      	str	r3, [r7, #20]
  
  /* Check the parameters */
  assert_param(IS_NVIC_SUB_PRIORITY(SubPriority));
  assert_param(IS_NVIC_PREEMPTION_PRIORITY(PreemptPriority));
  
  prioritygroup = NVIC_GetPriorityGrouping();
 8001be4:	f7ff ff46 	bl	8001a74 <__NVIC_GetPriorityGrouping>
 8001be8:	6178      	str	r0, [r7, #20]
  
  NVIC_SetPriority(IRQn, NVIC_EncodePriority(prioritygroup, PreemptPriority, SubPriority));
 8001bea:	687a      	ldr	r2, [r7, #4]
 8001bec:	68b9      	ldr	r1, [r7, #8]
 8001bee:	6978      	ldr	r0, [r7, #20]
 8001bf0:	f7ff ff78 	bl	8001ae4 <NVIC_EncodePriority>
 8001bf4:	4602      	mov	r2, r0
 8001bf6:	f997 300f 	ldrsb.w	r3, [r7, #15]
 8001bfa:	4611      	mov	r1, r2
 8001bfc:	4618      	mov	r0, r3
 8001bfe:	f7ff ff47 	bl	8001a90 <__NVIC_SetPriority>
}
 8001c02:	bf00      	nop
 8001c04:	3718      	adds	r7, #24
 8001c06:	46bd      	mov	sp, r7
 8001c08:	bd80      	pop	{r7, pc}

08001c0a <HAL_NVIC_SystemReset>:
/**
  * @brief  Initiates a system reset request to reset the MCU.
  * @retval None
  */
void HAL_NVIC_SystemReset(void)
{
 8001c0a:	b580      	push	{r7, lr}
 8001c0c:	af00      	add	r7, sp, #0
  /* System Reset */
  NVIC_SystemReset();
 8001c0e:	f7ff ff9d 	bl	8001b4c <__NVIC_SystemReset>

08001c12 <HAL_SYSTICK_Config>:
  * @param  TicksNumb Specifies the ticks Number of ticks between two interrupts.
  * @retval status:  - 0  Function succeeded.
  *                  - 1  Function failed.
  */
uint32_t HAL_SYSTICK_Config(uint32_t TicksNumb)
{
 8001c12:	b580      	push	{r7, lr}
 8001c14:	b082      	sub	sp, #8
 8001c16:	af00      	add	r7, sp, #0
 8001c18:	6078      	str	r0, [r7, #4]
   return SysTick_Config(TicksNumb);
 8001c1a:	6878      	ldr	r0, [r7, #4]
 8001c1c:	f7ff ffac 	bl	8001b78 <SysTick_Config>
 8001c20:	4603      	mov	r3, r0
}
 8001c22:	4618      	mov	r0, r3
 8001c24:	3708      	adds	r7, #8
 8001c26:	46bd      	mov	sp, r7
 8001c28:	bd80      	pop	{r7, pc}
	...

08001c2c <HAL_MPU_Disable>:
/**
  * @brief  Disables the MPU
  * @retval None
  */
void HAL_MPU_Disable(void)
{
 8001c2c:	b480      	push	{r7}
 8001c2e:	af00      	add	r7, sp, #0
  \details Ensures the apparent order of the explicit memory operations before
           and after the instruction, without ensuring their completion.
 */
__STATIC_FORCEINLINE void __DMB(void)
{
  __ASM volatile ("dmb 0xF":::"memory");
 8001c30:	f3bf 8f5f 	dmb	sy
}
 8001c34:	bf00      	nop
  /* Make sure outstanding transfers are done */
  __DMB();

  /* Disable fault exceptions */
  SCB->SHCSR &= ~SCB_SHCSR_MEMFAULTENA_Msk;
 8001c36:	4b07      	ldr	r3, [pc, #28]	@ (8001c54 <HAL_MPU_Disable+0x28>)
 8001c38:	6a5b      	ldr	r3, [r3, #36]	@ 0x24
 8001c3a:	4a06      	ldr	r2, [pc, #24]	@ (8001c54 <HAL_MPU_Disable+0x28>)
 8001c3c:	f423 3380 	bic.w	r3, r3, #65536	@ 0x10000
 8001c40:	6253      	str	r3, [r2, #36]	@ 0x24
  
  /* Disable the MPU and clear the control register*/
  MPU->CTRL = 0;
 8001c42:	4b05      	ldr	r3, [pc, #20]	@ (8001c58 <HAL_MPU_Disable+0x2c>)
 8001c44:	2200      	movs	r2, #0
 8001c46:	605a      	str	r2, [r3, #4]
}
 8001c48:	bf00      	nop
 8001c4a:	46bd      	mov	sp, r7
 8001c4c:	f85d 7b04 	ldr.w	r7, [sp], #4
 8001c50:	4770      	bx	lr
 8001c52:	bf00      	nop
 8001c54:	e000ed00 	.word	0xe000ed00
 8001c58:	e000ed90 	.word	0xe000ed90

08001c5c <HAL_MPU_Enable>:
  *            @arg MPU_PRIVILEGED_DEFAULT
  *            @arg MPU_HFNMI_PRIVDEF
  * @retval None
  */
void HAL_MPU_Enable(uint32_t MPU_Control)
{
 8001c5c:	b480      	push	{r7}
 8001c5e:	b083      	sub	sp, #12
 8001c60:	af00      	add	r7, sp, #0
 8001c62:	6078      	str	r0, [r7, #4]
  /* Enable the MPU */
  MPU->CTRL = MPU_Control | MPU_CTRL_ENABLE_Msk;
 8001c64:	4a0b      	ldr	r2, [pc, #44]	@ (8001c94 <HAL_MPU_Enable+0x38>)
 8001c66:	687b      	ldr	r3, [r7, #4]
 8001c68:	f043 0301 	orr.w	r3, r3, #1
 8001c6c:	6053      	str	r3, [r2, #4]
  
  /* Enable fault exceptions */
  SCB->SHCSR |= SCB_SHCSR_MEMFAULTENA_Msk;
 8001c6e:	4b0a      	ldr	r3, [pc, #40]	@ (8001c98 <HAL_MPU_Enable+0x3c>)
 8001c70:	6a5b      	ldr	r3, [r3, #36]	@ 0x24
 8001c72:	4a09      	ldr	r2, [pc, #36]	@ (8001c98 <HAL_MPU_Enable+0x3c>)
 8001c74:	f443 3380 	orr.w	r3, r3, #65536	@ 0x10000
 8001c78:	6253      	str	r3, [r2, #36]	@ 0x24
  __ASM volatile ("dsb 0xF":::"memory");
 8001c7a:	f3bf 8f4f 	dsb	sy
}
 8001c7e:	bf00      	nop
  __ASM volatile ("isb 0xF":::"memory");
 8001c80:	f3bf 8f6f 	isb	sy
}
 8001c84:	bf00      	nop
  
  /* Ensure MPU setting take effects */
  __DSB();
  __ISB();
}
 8001c86:	bf00      	nop
 8001c88:	370c      	adds	r7, #12
 8001c8a:	46bd      	mov	sp, r7
 8001c8c:	f85d 7b04 	ldr.w	r7, [sp], #4
 8001c90:	4770      	bx	lr
 8001c92:	bf00      	nop
 8001c94:	e000ed90 	.word	0xe000ed90
 8001c98:	e000ed00 	.word	0xe000ed00

08001c9c <HAL_MPU_ConfigRegion>:
  * @param MPU_Init Pointer to a MPU_Region_InitTypeDef structure that contains
  *                the initialization and configuration information.
  * @retval None
  */
void HAL_MPU_ConfigRegion(MPU_Region_InitTypeDef *MPU_Init)
{
 8001c9c:	b480      	push	{r7}
 8001c9e:	b083      	sub	sp, #12
 8001ca0:	af00      	add	r7, sp, #0
 8001ca2:	6078      	str	r0, [r7, #4]
  assert_param(IS_MPU_ACCESS_BUFFERABLE(MPU_Init->IsBufferable));
  assert_param(IS_MPU_SUB_REGION_DISABLE(MPU_Init->SubRegionDisable));
  assert_param(IS_MPU_REGION_SIZE(MPU_Init->Size));

  /* Set the Region number */
  MPU->RNR = MPU_Init->Number;
 8001ca4:	687b      	ldr	r3, [r7, #4]
 8001ca6:	785a      	ldrb	r2, [r3, #1]
 8001ca8:	4b1b      	ldr	r3, [pc, #108]	@ (8001d18 <HAL_MPU_ConfigRegion+0x7c>)
 8001caa:	609a      	str	r2, [r3, #8]

  /* Disable the Region */
  CLEAR_BIT(MPU->RASR, MPU_RASR_ENABLE_Msk);
 8001cac:	4b1a      	ldr	r3, [pc, #104]	@ (8001d18 <HAL_MPU_ConfigRegion+0x7c>)
 8001cae:	691b      	ldr	r3, [r3, #16]
 8001cb0:	4a19      	ldr	r2, [pc, #100]	@ (8001d18 <HAL_MPU_ConfigRegion+0x7c>)
 8001cb2:	f023 0301 	bic.w	r3, r3, #1
 8001cb6:	6113      	str	r3, [r2, #16]

  /* Apply configuration */
  MPU->RBAR = MPU_Init->BaseAddress;
 8001cb8:	4a17      	ldr	r2, [pc, #92]	@ (8001d18 <HAL_MPU_ConfigRegion+0x7c>)
 8001cba:	687b      	ldr	r3, [r7, #4]
 8001cbc:	685b      	ldr	r3, [r3, #4]
 8001cbe:	60d3      	str	r3, [r2, #12]
  MPU->RASR = ((uint32_t)MPU_Init->DisableExec             << MPU_RASR_XN_Pos)   |
 8001cc0:	687b      	ldr	r3, [r7, #4]
 8001cc2:	7b1b      	ldrb	r3, [r3, #12]
 8001cc4:	071a      	lsls	r2, r3, #28
              ((uint32_t)MPU_Init->AccessPermission        << MPU_RASR_AP_Pos)   |
 8001cc6:	687b      	ldr	r3, [r7, #4]
 8001cc8:	7adb      	ldrb	r3, [r3, #11]
 8001cca:	061b      	lsls	r3, r3, #24
  MPU->RASR = ((uint32_t)MPU_Init->DisableExec             << MPU_RASR_XN_Pos)   |
 8001ccc:	431a      	orrs	r2, r3
              ((uint32_t)MPU_Init->TypeExtField            << MPU_RASR_TEX_Pos)  |
 8001cce:	687b      	ldr	r3, [r7, #4]
 8001cd0:	7a9b      	ldrb	r3, [r3, #10]
 8001cd2:	04db      	lsls	r3, r3, #19
              ((uint32_t)MPU_Init->AccessPermission        << MPU_RASR_AP_Pos)   |
 8001cd4:	431a      	orrs	r2, r3
              ((uint32_t)MPU_Init->IsShareable             << MPU_RASR_S_Pos)    |
 8001cd6:	687b      	ldr	r3, [r7, #4]
 8001cd8:	7b5b      	ldrb	r3, [r3, #13]
 8001cda:	049b      	lsls	r3, r3, #18
              ((uint32_t)MPU_Init->TypeExtField            << MPU_RASR_TEX_Pos)  |
 8001cdc:	431a      	orrs	r2, r3
              ((uint32_t)MPU_Init->IsCacheable             << MPU_RASR_C_Pos)    |
 8001cde:	687b      	ldr	r3, [r7, #4]
 8001ce0:	7b9b      	ldrb	r3, [r3, #14]
 8001ce2:	045b      	lsls	r3, r3, #17
              ((uint32_t)MPU_Init->IsShareable             << MPU_RASR_S_Pos)    |
 8001ce4:	431a      	orrs	r2, r3
              ((uint32_t)MPU_Init->IsBufferable            << MPU_RASR_B_Pos)    |
 8001ce6:	687b      	ldr	r3, [r7, #4]
 8001ce8:	7bdb      	ldrb	r3, [r3, #15]
 8001cea:	041b      	lsls	r3, r3, #16
              ((uint32_t)MPU_Init->IsCacheable             << MPU_RASR_C_Pos)    |
 8001cec:	431a      	orrs	r2, r3
              ((uint32_t)MPU_Init->SubRegionDisable        << MPU_RASR_SRD_Pos)  |
 8001cee:	687b      	ldr	r3, [r7, #4]
 8001cf0:	7a5b      	ldrb	r3, [r3, #9]
 8001cf2:	021b      	lsls	r3, r3, #8
              ((uint32_t)MPU_Init->IsBufferable            << MPU_RASR_B_Pos)    |
 8001cf4:	431a      	orrs	r2, r3
              ((uint32_t)MPU_Init->Size                    << MPU_RASR_SIZE_Pos) |
 8001cf6:	687b      	ldr	r3, [r7, #4]
 8001cf8:	7a1b      	ldrb	r3, [r3, #8]
 8001cfa:	005b      	lsls	r3, r3, #1
              ((uint32_t)MPU_Init->SubRegionDisable        << MPU_RASR_SRD_Pos)  |
 8001cfc:	4313      	orrs	r3, r2
              ((uint32_t)MPU_Init->Enable                  << MPU_RASR_ENABLE_Pos);
 8001cfe:	687a      	ldr	r2, [r7, #4]
 8001d00:	7812      	ldrb	r2, [r2, #0]
 8001d02:	4611      	mov	r1, r2
  MPU->RASR = ((uint32_t)MPU_Init->DisableExec             << MPU_RASR_XN_Pos)   |
 8001d04:	4a04      	ldr	r2, [pc, #16]	@ (8001d18 <HAL_MPU_ConfigRegion+0x7c>)
              ((uint32_t)MPU_Init->Size                    << MPU_RASR_SIZE_Pos) |
 8001d06:	430b      	orrs	r3, r1
  MPU->RASR = ((uint32_t)MPU_Init->DisableExec             << MPU_RASR_XN_Pos)   |
 8001d08:	6113      	str	r3, [r2, #16]
}
 8001d0a:	bf00      	nop
 8001d0c:	370c      	adds	r7, #12
 8001d0e:	46bd      	mov	sp, r7
 8001d10:	f85d 7b04 	ldr.w	r7, [sp], #4
 8001d14:	4770      	bx	lr
 8001d16:	bf00      	nop
 8001d18:	e000ed90 	.word	0xe000ed90

08001d1c <HAL_FLASH_Program>:
  * @param  Data specifies the data to be programmed
  * 
  * @retval HAL_StatusTypeDef HAL Status
  */
HAL_StatusTypeDef HAL_FLASH_Program(uint32_t TypeProgram, uint32_t Address, uint64_t Data)
{
 8001d1c:	b580      	push	{r7, lr}
 8001d1e:	b086      	sub	sp, #24
 8001d20:	af00      	add	r7, sp, #0
 8001d22:	60f8      	str	r0, [r7, #12]
 8001d24:	60b9      	str	r1, [r7, #8]
 8001d26:	e9c7 2300 	strd	r2, r3, [r7]
  HAL_StatusTypeDef status;
  
  /* Process Locked */
  __HAL_LOCK(&pFlash);
 8001d2a:	4b27      	ldr	r3, [pc, #156]	@ (8001dc8 <HAL_FLASH_Program+0xac>)
 8001d2c:	7d1b      	ldrb	r3, [r3, #20]
 8001d2e:	2b01      	cmp	r3, #1
 8001d30:	d101      	bne.n	8001d36 <HAL_FLASH_Program+0x1a>
 8001d32:	2302      	movs	r3, #2
 8001d34:	e043      	b.n	8001dbe <HAL_FLASH_Program+0xa2>
 8001d36:	4b24      	ldr	r3, [pc, #144]	@ (8001dc8 <HAL_FLASH_Program+0xac>)
 8001d38:	2201      	movs	r2, #1
 8001d3a:	751a      	strb	r2, [r3, #20]

  /* Check the parameters */
  assert_param(IS_FLASH_TYPEPROGRAM(TypeProgram));

  /* Wait for last operation to be completed */
  status = FLASH_WaitForLastOperation((uint32_t)FLASH_TIMEOUT_VALUE);
 8001d3c:	f24c 3050 	movw	r0, #50000	@ 0xc350
 8001d40:	f000 f884 	bl	8001e4c <FLASH_WaitForLastOperation>
 8001d44:	4603      	mov	r3, r0
 8001d46:	75fb      	strb	r3, [r7, #23]
  
  if(status == HAL_OK)
 8001d48:	7dfb      	ldrb	r3, [r7, #23]
 8001d4a:	2b00      	cmp	r3, #0
 8001d4c:	d133      	bne.n	8001db6 <HAL_FLASH_Program+0x9a>
  {
    switch(TypeProgram)
 8001d4e:	68fb      	ldr	r3, [r7, #12]
 8001d50:	2b03      	cmp	r3, #3
 8001d52:	d823      	bhi.n	8001d9c <HAL_FLASH_Program+0x80>
 8001d54:	a201      	add	r2, pc, #4	@ (adr r2, 8001d5c <HAL_FLASH_Program+0x40>)
 8001d56:	f852 f023 	ldr.w	pc, [r2, r3, lsl #2]
 8001d5a:	bf00      	nop
 8001d5c:	08001d6d 	.word	0x08001d6d
 8001d60:	08001d79 	.word	0x08001d79
 8001d64:	08001d85 	.word	0x08001d85
 8001d68:	08001d91 	.word	0x08001d91
    {
      case FLASH_TYPEPROGRAM_BYTE :
      {
        /*Program byte (8-bit) at a specified address.*/
        FLASH_Program_Byte(Address, (uint8_t) Data);
 8001d6c:	783b      	ldrb	r3, [r7, #0]
 8001d6e:	4619      	mov	r1, r3
 8001d70:	68b8      	ldr	r0, [r7, #8]
 8001d72:	f000 f92d 	bl	8001fd0 <FLASH_Program_Byte>
        break;
 8001d76:	e012      	b.n	8001d9e <HAL_FLASH_Program+0x82>
      }
      
      case FLASH_TYPEPROGRAM_HALFWORD :
      {
        /*Program halfword (16-bit) at a specified address.*/
        FLASH_Program_HalfWord(Address, (uint16_t) Data);
 8001d78:	883b      	ldrh	r3, [r7, #0]
 8001d7a:	4619      	mov	r1, r3
 8001d7c:	68b8      	ldr	r0, [r7, #8]
 8001d7e:	f000 f901 	bl	8001f84 <FLASH_Program_HalfWord>
        break;
 8001d82:	e00c      	b.n	8001d9e <HAL_FLASH_Program+0x82>
      }
      
      case FLASH_TYPEPROGRAM_WORD :
      {
        /*Program word (32-bit) at a specified address.*/
        FLASH_Program_Word(Address, (uint32_t) Data);
 8001d84:	683b      	ldr	r3, [r7, #0]
 8001d86:	4619      	mov	r1, r3
 8001d88:	68b8      	ldr	r0, [r7, #8]
 8001d8a:	f000 f8d5 	bl	8001f38 <FLASH_Program_Word>
        break;
 8001d8e:	e006      	b.n	8001d9e <HAL_FLASH_Program+0x82>
      }
      
      case FLASH_TYPEPROGRAM_DOUBLEWORD :
      {
        /*Program double word (64-bit) at a specified address.*/
        FLASH_Program_DoubleWord(Address, Data);
 8001d90:	e9d7 2300 	ldrd	r2, r3, [r7]
 8001d94:	68b8      	ldr	r0, [r7, #8]
 8001d96:	f000 f899 	bl	8001ecc <FLASH_Program_DoubleWord>
        break;
 8001d9a:	e000      	b.n	8001d9e <HAL_FLASH_Program+0x82>
      }
      default :
        break;
 8001d9c:	bf00      	nop
    }
    /* Wait for last operation to be completed */
    status = FLASH_WaitForLastOperation((uint32_t)FLASH_TIMEOUT_VALUE);
 8001d9e:	f24c 3050 	movw	r0, #50000	@ 0xc350
 8001da2:	f000 f853 	bl	8001e4c <FLASH_WaitForLastOperation>
 8001da6:	4603      	mov	r3, r0
 8001da8:	75fb      	strb	r3, [r7, #23]
    
    /* If the program operation is completed, disable the PG Bit */
    FLASH->CR &= (~FLASH_CR_PG);
 8001daa:	4b08      	ldr	r3, [pc, #32]	@ (8001dcc <HAL_FLASH_Program+0xb0>)
 8001dac:	691b      	ldr	r3, [r3, #16]
 8001dae:	4a07      	ldr	r2, [pc, #28]	@ (8001dcc <HAL_FLASH_Program+0xb0>)
 8001db0:	f023 0301 	bic.w	r3, r3, #1
 8001db4:	6113      	str	r3, [r2, #16]
  }

  /* Process Unlocked */
  __HAL_UNLOCK(&pFlash);
 8001db6:	4b04      	ldr	r3, [pc, #16]	@ (8001dc8 <HAL_FLASH_Program+0xac>)
 8001db8:	2200      	movs	r2, #0
 8001dba:	751a      	strb	r2, [r3, #20]

  return status;
 8001dbc:	7dfb      	ldrb	r3, [r7, #23]
}
 8001dbe:	4618      	mov	r0, r3
 8001dc0:	3718      	adds	r7, #24
 8001dc2:	46bd      	mov	sp, r7
 8001dc4:	bd80      	pop	{r7, pc}
 8001dc6:	bf00      	nop
 8001dc8:	200000c4 	.word	0x200000c4
 8001dcc:	40023c00 	.word	0x40023c00

08001dd0 <HAL_FLASH_Unlock>:
/**
  * @brief  Unlock the FLASH control register access
  * @retval HAL Status
  */
HAL_StatusTypeDef HAL_FLASH_Unlock(void)
{
 8001dd0:	b480      	push	{r7}
 8001dd2:	b083      	sub	sp, #12
 8001dd4:	af00      	add	r7, sp, #0
  HAL_StatusTypeDef status = HAL_OK;
 8001dd6:	2300      	movs	r3, #0
 8001dd8:	71fb      	strb	r3, [r7, #7]

  if(READ_BIT(FLASH->CR, FLASH_CR_LOCK) != RESET)
 8001dda:	4b0b      	ldr	r3, [pc, #44]	@ (8001e08 <HAL_FLASH_Unlock+0x38>)
 8001ddc:	691b      	ldr	r3, [r3, #16]
 8001dde:	2b00      	cmp	r3, #0
 8001de0:	da0b      	bge.n	8001dfa <HAL_FLASH_Unlock+0x2a>
  {
    /* Authorize the FLASH Registers access */
    WRITE_REG(FLASH->KEYR, FLASH_KEY1);
 8001de2:	4b09      	ldr	r3, [pc, #36]	@ (8001e08 <HAL_FLASH_Unlock+0x38>)
 8001de4:	4a09      	ldr	r2, [pc, #36]	@ (8001e0c <HAL_FLASH_Unlock+0x3c>)
 8001de6:	605a      	str	r2, [r3, #4]
    WRITE_REG(FLASH->KEYR, FLASH_KEY2);
 8001de8:	4b07      	ldr	r3, [pc, #28]	@ (8001e08 <HAL_FLASH_Unlock+0x38>)
 8001dea:	4a09      	ldr	r2, [pc, #36]	@ (8001e10 <HAL_FLASH_Unlock+0x40>)
 8001dec:	605a      	str	r2, [r3, #4]

    /* Verify Flash is unlocked */
    if(READ_BIT(FLASH->CR, FLASH_CR_LOCK) != RESET)
 8001dee:	4b06      	ldr	r3, [pc, #24]	@ (8001e08 <HAL_FLASH_Unlock+0x38>)
 8001df0:	691b      	ldr	r3, [r3, #16]
 8001df2:	2b00      	cmp	r3, #0
 8001df4:	da01      	bge.n	8001dfa <HAL_FLASH_Unlock+0x2a>
    {
      status = HAL_ERROR;
 8001df6:	2301      	movs	r3, #1
 8001df8:	71fb      	strb	r3, [r7, #7]
    }
  }

  return status;
 8001dfa:	79fb      	ldrb	r3, [r7, #7]
}
 8001dfc:	4618      	mov	r0, r3
 8001dfe:	370c      	adds	r7, #12
 8001e00:	46bd      	mov	sp, r7
 8001e02:	f85d 7b04 	ldr.w	r7, [sp], #4
 8001e06:	4770      	bx	lr
 8001e08:	40023c00 	.word	0x40023c00
 8001e0c:	45670123 	.word	0x45670123
 8001e10:	cdef89ab 	.word	0xcdef89ab

08001e14 <HAL_FLASH_Lock>:
/**
  * @brief  Locks the FLASH control register access
  * @retval HAL Status
  */
HAL_StatusTypeDef HAL_FLASH_Lock(void)
{
 8001e14:	b480      	push	{r7}
 8001e16:	af00      	add	r7, sp, #0
  /* Set the LOCK Bit to lock the FLASH Registers access */
  FLASH->CR |= FLASH_CR_LOCK;
 8001e18:	4b05      	ldr	r3, [pc, #20]	@ (8001e30 <HAL_FLASH_Lock+0x1c>)
 8001e1a:	691b      	ldr	r3, [r3, #16]
 8001e1c:	4a04      	ldr	r2, [pc, #16]	@ (8001e30 <HAL_FLASH_Lock+0x1c>)
 8001e1e:	f043 4300 	orr.w	r3, r3, #2147483648	@ 0x80000000
 8001e22:	6113      	str	r3, [r2, #16]
  
  return HAL_OK;  
 8001e24:	2300      	movs	r3, #0
}
 8001e26:	4618      	mov	r0, r3
 8001e28:	46bd      	mov	sp, r7
 8001e2a:	f85d 7b04 	ldr.w	r7, [sp], #4
 8001e2e:	4770      	bx	lr
 8001e30:	40023c00 	.word	0x40023c00

08001e34 <HAL_FLASH_GetError>:
  *            @arg FLASH_ERROR_PGA: FLASH Programming Alignment error flag
  *            @arg FLASH_ERROR_WRP: FLASH Write protected error flag
  *            @arg FLASH_ERROR_OPERATION: FLASH operation Error flag 
  */
uint32_t HAL_FLASH_GetError(void)
{ 
 8001e34:	b480      	push	{r7}
 8001e36:	af00      	add	r7, sp, #0
   return pFlash.ErrorCode;
 8001e38:	4b03      	ldr	r3, [pc, #12]	@ (8001e48 <HAL_FLASH_GetError+0x14>)
 8001e3a:	699b      	ldr	r3, [r3, #24]
}  
 8001e3c:	4618      	mov	r0, r3
 8001e3e:	46bd      	mov	sp, r7
 8001e40:	f85d 7b04 	ldr.w	r7, [sp], #4
 8001e44:	4770      	bx	lr
 8001e46:	bf00      	nop
 8001e48:	200000c4 	.word	0x200000c4

08001e4c <FLASH_WaitForLastOperation>:
  * @brief  Wait for a FLASH operation to complete.
  * @param  Timeout maximum flash operationtimeout
  * @retval HAL Status
  */
HAL_StatusTypeDef FLASH_WaitForLastOperation(uint32_t Timeout)
{ 
 8001e4c:	b580      	push	{r7, lr}
 8001e4e:	b084      	sub	sp, #16
 8001e50:	af00      	add	r7, sp, #0
 8001e52:	6078      	str	r0, [r7, #4]
  uint32_t tickstart = 0;
 8001e54:	2300      	movs	r3, #0
 8001e56:	60fb      	str	r3, [r7, #12]
  
  /* Clear Error Code */
  pFlash.ErrorCode = HAL_FLASH_ERROR_NONE;
 8001e58:	4b1a      	ldr	r3, [pc, #104]	@ (8001ec4 <FLASH_WaitForLastOperation+0x78>)
 8001e5a:	2200      	movs	r2, #0
 8001e5c:	619a      	str	r2, [r3, #24]
  
  /* Wait for the FLASH operation to complete by polling on BUSY flag to be reset.
     Even if the FLASH operation fails, the BUSY flag will be reset and an error
     flag will be set */
  /* Get tick */
  tickstart = HAL_GetTick();
 8001e5e:	f7ff fdb5 	bl	80019cc <HAL_GetTick>
 8001e62:	60f8      	str	r0, [r7, #12]

  while(__HAL_FLASH_GET_FLAG(FLASH_FLAG_BSY) != RESET) 
 8001e64:	e010      	b.n	8001e88 <FLASH_WaitForLastOperation+0x3c>
  { 
    if(Timeout != HAL_MAX_DELAY)
 8001e66:	687b      	ldr	r3, [r7, #4]
 8001e68:	f1b3 3fff 	cmp.w	r3, #4294967295
 8001e6c:	d00c      	beq.n	8001e88 <FLASH_WaitForLastOperation+0x3c>
    {
      if((Timeout == 0)||((HAL_GetTick() - tickstart ) > Timeout))
 8001e6e:	687b      	ldr	r3, [r7, #4]
 8001e70:	2b00      	cmp	r3, #0
 8001e72:	d007      	beq.n	8001e84 <FLASH_WaitForLastOperation+0x38>
 8001e74:	f7ff fdaa 	bl	80019cc <HAL_GetTick>
 8001e78:	4602      	mov	r2, r0
 8001e7a:	68fb      	ldr	r3, [r7, #12]
 8001e7c:	1ad3      	subs	r3, r2, r3
 8001e7e:	687a      	ldr	r2, [r7, #4]
 8001e80:	429a      	cmp	r2, r3
 8001e82:	d201      	bcs.n	8001e88 <FLASH_WaitForLastOperation+0x3c>
      {
        return HAL_TIMEOUT;
 8001e84:	2303      	movs	r3, #3
 8001e86:	e019      	b.n	8001ebc <FLASH_WaitForLastOperation+0x70>
  while(__HAL_FLASH_GET_FLAG(FLASH_FLAG_BSY) != RESET) 
 8001e88:	4b0f      	ldr	r3, [pc, #60]	@ (8001ec8 <FLASH_WaitForLastOperation+0x7c>)
 8001e8a:	68db      	ldr	r3, [r3, #12]
 8001e8c:	f403 3380 	and.w	r3, r3, #65536	@ 0x10000
 8001e90:	2b00      	cmp	r3, #0
 8001e92:	d1e8      	bne.n	8001e66 <FLASH_WaitForLastOperation+0x1a>
      }
    } 
  }
  
  if(__HAL_FLASH_GET_FLAG(FLASH_FLAG_ALL_ERRORS) != RESET)
 8001e94:	4b0c      	ldr	r3, [pc, #48]	@ (8001ec8 <FLASH_WaitForLastOperation+0x7c>)
 8001e96:	68db      	ldr	r3, [r3, #12]
 8001e98:	f003 03f2 	and.w	r3, r3, #242	@ 0xf2
 8001e9c:	2b00      	cmp	r3, #0
 8001e9e:	d003      	beq.n	8001ea8 <FLASH_WaitForLastOperation+0x5c>
  {
    /*Save the error code*/
    FLASH_SetErrorCode();
 8001ea0:	f000 f8ba 	bl	8002018 <FLASH_SetErrorCode>
    return HAL_ERROR;
 8001ea4:	2301      	movs	r3, #1
 8001ea6:	e009      	b.n	8001ebc <FLASH_WaitForLastOperation+0x70>
  }
  
  /* Check FLASH End of Operation flag  */
  if (__HAL_FLASH_GET_FLAG(FLASH_FLAG_EOP) != RESET)
 8001ea8:	4b07      	ldr	r3, [pc, #28]	@ (8001ec8 <FLASH_WaitForLastOperation+0x7c>)
 8001eaa:	68db      	ldr	r3, [r3, #12]
 8001eac:	f003 0301 	and.w	r3, r3, #1
 8001eb0:	2b00      	cmp	r3, #0
 8001eb2:	d002      	beq.n	8001eba <FLASH_WaitForLastOperation+0x6e>
  {
    /* Clear FLASH End of Operation pending bit */
    __HAL_FLASH_CLEAR_FLAG(FLASH_FLAG_EOP);
 8001eb4:	4b04      	ldr	r3, [pc, #16]	@ (8001ec8 <FLASH_WaitForLastOperation+0x7c>)
 8001eb6:	2201      	movs	r2, #1
 8001eb8:	60da      	str	r2, [r3, #12]
  }

  /* If there is an error flag set */
  return HAL_OK;
 8001eba:	2300      	movs	r3, #0
  
}  
 8001ebc:	4618      	mov	r0, r3
 8001ebe:	3710      	adds	r7, #16
 8001ec0:	46bd      	mov	sp, r7
 8001ec2:	bd80      	pop	{r7, pc}
 8001ec4:	200000c4 	.word	0x200000c4
 8001ec8:	40023c00 	.word	0x40023c00

08001ecc <FLASH_Program_DoubleWord>:
  * @param  Address specifies the address to be programmed.
  * @param  Data specifies the data to be programmed.
  * @retval None
  */
static void FLASH_Program_DoubleWord(uint32_t Address, uint64_t Data)
{
 8001ecc:	b480      	push	{r7}
 8001ece:	b085      	sub	sp, #20
 8001ed0:	af00      	add	r7, sp, #0
 8001ed2:	60f8      	str	r0, [r7, #12]
 8001ed4:	e9c7 2300 	strd	r2, r3, [r7]
  /* Check the parameters */
  assert_param(IS_FLASH_ADDRESS(Address));
  
  /* If the previous operation is completed, proceed to program the new data */
  FLASH->CR &= CR_PSIZE_MASK;
 8001ed8:	4b16      	ldr	r3, [pc, #88]	@ (8001f34 <FLASH_Program_DoubleWord+0x68>)
 8001eda:	691b      	ldr	r3, [r3, #16]
 8001edc:	4a15      	ldr	r2, [pc, #84]	@ (8001f34 <FLASH_Program_DoubleWord+0x68>)
 8001ede:	f423 7340 	bic.w	r3, r3, #768	@ 0x300
 8001ee2:	6113      	str	r3, [r2, #16]
  FLASH->CR |= FLASH_PSIZE_DOUBLE_WORD;
 8001ee4:	4b13      	ldr	r3, [pc, #76]	@ (8001f34 <FLASH_Program_DoubleWord+0x68>)
 8001ee6:	691b      	ldr	r3, [r3, #16]
 8001ee8:	4a12      	ldr	r2, [pc, #72]	@ (8001f34 <FLASH_Program_DoubleWord+0x68>)
 8001eea:	f443 7340 	orr.w	r3, r3, #768	@ 0x300
 8001eee:	6113      	str	r3, [r2, #16]
  FLASH->CR |= FLASH_CR_PG;
 8001ef0:	4b10      	ldr	r3, [pc, #64]	@ (8001f34 <FLASH_Program_DoubleWord+0x68>)
 8001ef2:	691b      	ldr	r3, [r3, #16]
 8001ef4:	4a0f      	ldr	r2, [pc, #60]	@ (8001f34 <FLASH_Program_DoubleWord+0x68>)
 8001ef6:	f043 0301 	orr.w	r3, r3, #1
 8001efa:	6113      	str	r3, [r2, #16]

  /* Program first word */
  *(__IO uint32_t*)Address = (uint32_t)Data;
 8001efc:	68fb      	ldr	r3, [r7, #12]
 8001efe:	683a      	ldr	r2, [r7, #0]
 8001f00:	601a      	str	r2, [r3, #0]
  __ASM volatile ("isb 0xF":::"memory");
 8001f02:	f3bf 8f6f 	isb	sy
}
 8001f06:	bf00      	nop
  /* Barrier to ensure programming is performed in 2 steps, in right order
    (independently of compiler optimization behavior) */
  __ISB();

  /* Program second word */
  *(__IO uint32_t*)(Address+4) = (uint32_t)(Data >> 32);
 8001f08:	e9d7 0100 	ldrd	r0, r1, [r7]
 8001f0c:	f04f 0200 	mov.w	r2, #0
 8001f10:	f04f 0300 	mov.w	r3, #0
 8001f14:	000a      	movs	r2, r1
 8001f16:	2300      	movs	r3, #0
 8001f18:	68f9      	ldr	r1, [r7, #12]
 8001f1a:	3104      	adds	r1, #4
 8001f1c:	4613      	mov	r3, r2
 8001f1e:	600b      	str	r3, [r1, #0]
  __ASM volatile ("dsb 0xF":::"memory");
 8001f20:	f3bf 8f4f 	dsb	sy
}
 8001f24:	bf00      	nop

  /* Data synchronous Barrier (DSB) Just after the write operation
     This will force the CPU to respect the sequence of instruction (no optimization).*/
  __DSB();
}
 8001f26:	bf00      	nop
 8001f28:	3714      	adds	r7, #20
 8001f2a:	46bd      	mov	sp, r7
 8001f2c:	f85d 7b04 	ldr.w	r7, [sp], #4
 8001f30:	4770      	bx	lr
 8001f32:	bf00      	nop
 8001f34:	40023c00 	.word	0x40023c00

08001f38 <FLASH_Program_Word>:
  * @param  Address specifies the address to be programmed.
  * @param  Data specifies the data to be programmed.
  * @retval None
  */
static void FLASH_Program_Word(uint32_t Address, uint32_t Data)
{
 8001f38:	b480      	push	{r7}
 8001f3a:	b083      	sub	sp, #12
 8001f3c:	af00      	add	r7, sp, #0
 8001f3e:	6078      	str	r0, [r7, #4]
 8001f40:	6039      	str	r1, [r7, #0]
  /* Check the parameters */
  assert_param(IS_FLASH_ADDRESS(Address));
  
  /* If the previous operation is completed, proceed to program the new data */
  FLASH->CR &= CR_PSIZE_MASK;
 8001f42:	4b0f      	ldr	r3, [pc, #60]	@ (8001f80 <FLASH_Program_Word+0x48>)
 8001f44:	691b      	ldr	r3, [r3, #16]
 8001f46:	4a0e      	ldr	r2, [pc, #56]	@ (8001f80 <FLASH_Program_Word+0x48>)
 8001f48:	f423 7340 	bic.w	r3, r3, #768	@ 0x300
 8001f4c:	6113      	str	r3, [r2, #16]
  FLASH->CR |= FLASH_PSIZE_WORD;
 8001f4e:	4b0c      	ldr	r3, [pc, #48]	@ (8001f80 <FLASH_Program_Word+0x48>)
 8001f50:	691b      	ldr	r3, [r3, #16]
 8001f52:	4a0b      	ldr	r2, [pc, #44]	@ (8001f80 <FLASH_Program_Word+0x48>)
 8001f54:	f443 7300 	orr.w	r3, r3, #512	@ 0x200
 8001f58:	6113      	str	r3, [r2, #16]
  FLASH->CR |= FLASH_CR_PG;
 8001f5a:	4b09      	ldr	r3, [pc, #36]	@ (8001f80 <FLASH_Program_Word+0x48>)
 8001f5c:	691b      	ldr	r3, [r3, #16]
 8001f5e:	4a08      	ldr	r2, [pc, #32]	@ (8001f80 <FLASH_Program_Word+0x48>)
 8001f60:	f043 0301 	orr.w	r3, r3, #1
 8001f64:	6113      	str	r3, [r2, #16]

  *(__IO uint32_t*)Address = Data;
 8001f66:	687b      	ldr	r3, [r7, #4]
 8001f68:	683a      	ldr	r2, [r7, #0]
 8001f6a:	601a      	str	r2, [r3, #0]
  __ASM volatile ("dsb 0xF":::"memory");
 8001f6c:	f3bf 8f4f 	dsb	sy
}
 8001f70:	bf00      	nop
  
  /* Data synchronous Barrier (DSB) Just after the write operation
     This will force the CPU to respect the sequence of instruction (no optimization).*/
  __DSB();
}
 8001f72:	bf00      	nop
 8001f74:	370c      	adds	r7, #12
 8001f76:	46bd      	mov	sp, r7
 8001f78:	f85d 7b04 	ldr.w	r7, [sp], #4
 8001f7c:	4770      	bx	lr
 8001f7e:	bf00      	nop
 8001f80:	40023c00 	.word	0x40023c00

08001f84 <FLASH_Program_HalfWord>:
  * @param  Address specifies the address to be programmed.
  * @param  Data specifies the data to be programmed.
  * @retval None
  */
static void FLASH_Program_HalfWord(uint32_t Address, uint16_t Data)
{
 8001f84:	b480      	push	{r7}
 8001f86:	b083      	sub	sp, #12
 8001f88:	af00      	add	r7, sp, #0
 8001f8a:	6078      	str	r0, [r7, #4]
 8001f8c:	460b      	mov	r3, r1
 8001f8e:	807b      	strh	r3, [r7, #2]
  /* Check the parameters */
  assert_param(IS_FLASH_ADDRESS(Address));
  
  /* If the previous operation is completed, proceed to program the new data */
  FLASH->CR &= CR_PSIZE_MASK;
 8001f90:	4b0e      	ldr	r3, [pc, #56]	@ (8001fcc <FLASH_Program_HalfWord+0x48>)
 8001f92:	691b      	ldr	r3, [r3, #16]
 8001f94:	4a0d      	ldr	r2, [pc, #52]	@ (8001fcc <FLASH_Program_HalfWord+0x48>)
 8001f96:	f423 7340 	bic.w	r3, r3, #768	@ 0x300
 8001f9a:	6113      	str	r3, [r2, #16]
  FLASH->CR |= FLASH_PSIZE_HALF_WORD;
 8001f9c:	4b0b      	ldr	r3, [pc, #44]	@ (8001fcc <FLASH_Program_HalfWord+0x48>)
 8001f9e:	691b      	ldr	r3, [r3, #16]
 8001fa0:	4a0a      	ldr	r2, [pc, #40]	@ (8001fcc <FLASH_Program_HalfWord+0x48>)
 8001fa2:	f443 7380 	orr.w	r3, r3, #256	@ 0x100
 8001fa6:	6113      	str	r3, [r2, #16]
  FLASH->CR |= FLASH_CR_PG;
 8001fa8:	4b08      	ldr	r3, [pc, #32]	@ (8001fcc <FLASH_Program_HalfWord+0x48>)
 8001faa:	691b      	ldr	r3, [r3, #16]
 8001fac:	4a07      	ldr	r2, [pc, #28]	@ (8001fcc <FLASH_Program_HalfWord+0x48>)
 8001fae:	f043 0301 	orr.w	r3, r3, #1
 8001fb2:	6113      	str	r3, [r2, #16]

  *(__IO uint16_t*)Address = Data;
 8001fb4:	687b      	ldr	r3, [r7, #4]
 8001fb6:	887a      	ldrh	r2, [r7, #2]
 8001fb8:	801a      	strh	r2, [r3, #0]
  __ASM volatile ("dsb 0xF":::"memory");
 8001fba:	f3bf 8f4f 	dsb	sy
}
 8001fbe:	bf00      	nop

  /* Data synchronous Barrier (DSB) Just after the write operation
     This will force the CPU to respect the sequence of instruction (no optimization).*/
  __DSB();
  
}
 8001fc0:	bf00      	nop
 8001fc2:	370c      	adds	r7, #12
 8001fc4:	46bd      	mov	sp, r7
 8001fc6:	f85d 7b04 	ldr.w	r7, [sp], #4
 8001fca:	4770      	bx	lr
 8001fcc:	40023c00 	.word	0x40023c00

08001fd0 <FLASH_Program_Byte>:
  * @param  Address specifies the address to be programmed.
  * @param  Data specifies the data to be programmed.
  * @retval None
  */
static void FLASH_Program_Byte(uint32_t Address, uint8_t Data)
{
 8001fd0:	b480      	push	{r7}
 8001fd2:	b083      	sub	sp, #12
 8001fd4:	af00      	add	r7, sp, #0
 8001fd6:	6078      	str	r0, [r7, #4]
 8001fd8:	460b      	mov	r3, r1
 8001fda:	70fb      	strb	r3, [r7, #3]
  /* Check the parameters */
  assert_param(IS_FLASH_ADDRESS(Address));
  
  /* If the previous operation is completed, proceed to program the new data */
  FLASH->CR &= CR_PSIZE_MASK;
 8001fdc:	4b0d      	ldr	r3, [pc, #52]	@ (8002014 <FLASH_Program_Byte+0x44>)
 8001fde:	691b      	ldr	r3, [r3, #16]
 8001fe0:	4a0c      	ldr	r2, [pc, #48]	@ (8002014 <FLASH_Program_Byte+0x44>)
 8001fe2:	f423 7340 	bic.w	r3, r3, #768	@ 0x300
 8001fe6:	6113      	str	r3, [r2, #16]
  FLASH->CR |= FLASH_PSIZE_BYTE;
 8001fe8:	4b0a      	ldr	r3, [pc, #40]	@ (8002014 <FLASH_Program_Byte+0x44>)
 8001fea:	4a0a      	ldr	r2, [pc, #40]	@ (8002014 <FLASH_Program_Byte+0x44>)
 8001fec:	691b      	ldr	r3, [r3, #16]
 8001fee:	6113      	str	r3, [r2, #16]
  FLASH->CR |= FLASH_CR_PG;
 8001ff0:	4b08      	ldr	r3, [pc, #32]	@ (8002014 <FLASH_Program_Byte+0x44>)
 8001ff2:	691b      	ldr	r3, [r3, #16]
 8001ff4:	4a07      	ldr	r2, [pc, #28]	@ (8002014 <FLASH_Program_Byte+0x44>)
 8001ff6:	f043 0301 	orr.w	r3, r3, #1
 8001ffa:	6113      	str	r3, [r2, #16]

  *(__IO uint8_t*)Address = Data;
 8001ffc:	687b      	ldr	r3, [r7, #4]
 8001ffe:	78fa      	ldrb	r2, [r7, #3]
 8002000:	701a      	strb	r2, [r3, #0]
  __ASM volatile ("dsb 0xF":::"memory");
 8002002:	f3bf 8f4f 	dsb	sy
}
 8002006:	bf00      	nop

  /* Data synchronous Barrier (DSB) Just after the write operation
     This will force the CPU to respect the sequence of instruction (no optimization).*/
  __DSB();
}
 8002008:	bf00      	nop
 800200a:	370c      	adds	r7, #12
 800200c:	46bd      	mov	sp, r7
 800200e:	f85d 7b04 	ldr.w	r7, [sp], #4
 8002012:	4770      	bx	lr
 8002014:	40023c00 	.word	0x40023c00

08002018 <FLASH_SetErrorCode>:
/**
  * @brief  Set the specific FLASH error flag.
  * @retval None
  */
static void FLASH_SetErrorCode(void)
{
 8002018:	b480      	push	{r7}
 800201a:	af00      	add	r7, sp, #0
  if(__HAL_FLASH_GET_FLAG(FLASH_FLAG_OPERR) != RESET)
 800201c:	4b21      	ldr	r3, [pc, #132]	@ (80020a4 <FLASH_SetErrorCode+0x8c>)
 800201e:	68db      	ldr	r3, [r3, #12]
 8002020:	f003 0302 	and.w	r3, r3, #2
 8002024:	2b00      	cmp	r3, #0
 8002026:	d005      	beq.n	8002034 <FLASH_SetErrorCode+0x1c>
  {
    pFlash.ErrorCode |= HAL_FLASH_ERROR_OPERATION;
 8002028:	4b1f      	ldr	r3, [pc, #124]	@ (80020a8 <FLASH_SetErrorCode+0x90>)
 800202a:	699b      	ldr	r3, [r3, #24]
 800202c:	f043 0320 	orr.w	r3, r3, #32
 8002030:	4a1d      	ldr	r2, [pc, #116]	@ (80020a8 <FLASH_SetErrorCode+0x90>)
 8002032:	6193      	str	r3, [r2, #24]
  }
  
  if(__HAL_FLASH_GET_FLAG(FLASH_FLAG_WRPERR) != RESET)
 8002034:	4b1b      	ldr	r3, [pc, #108]	@ (80020a4 <FLASH_SetErrorCode+0x8c>)
 8002036:	68db      	ldr	r3, [r3, #12]
 8002038:	f003 0310 	and.w	r3, r3, #16
 800203c:	2b00      	cmp	r3, #0
 800203e:	d005      	beq.n	800204c <FLASH_SetErrorCode+0x34>
  {
   pFlash.ErrorCode |= HAL_FLASH_ERROR_WRP;
 8002040:	4b19      	ldr	r3, [pc, #100]	@ (80020a8 <FLASH_SetErrorCode+0x90>)
 8002042:	699b      	ldr	r3, [r3, #24]
 8002044:	f043 0310 	orr.w	r3, r3, #16
 8002048:	4a17      	ldr	r2, [pc, #92]	@ (80020a8 <FLASH_SetErrorCode+0x90>)
 800204a:	6193      	str	r3, [r2, #24]
  }
  
  if(__HAL_FLASH_GET_FLAG(FLASH_FLAG_PGAERR) != RESET)
 800204c:	4b15      	ldr	r3, [pc, #84]	@ (80020a4 <FLASH_SetErrorCode+0x8c>)
 800204e:	68db      	ldr	r3, [r3, #12]
 8002050:	f003 0320 	and.w	r3, r3, #32
 8002054:	2b00      	cmp	r3, #0
 8002056:	d005      	beq.n	8002064 <FLASH_SetErrorCode+0x4c>
  {
   pFlash.ErrorCode |= HAL_FLASH_ERROR_PGA;
 8002058:	4b13      	ldr	r3, [pc, #76]	@ (80020a8 <FLASH_SetErrorCode+0x90>)
 800205a:	699b      	ldr	r3, [r3, #24]
 800205c:	f043 0308 	orr.w	r3, r3, #8
 8002060:	4a11      	ldr	r2, [pc, #68]	@ (80020a8 <FLASH_SetErrorCode+0x90>)
 8002062:	6193      	str	r3, [r2, #24]
  }
  
  if(__HAL_FLASH_GET_FLAG(FLASH_FLAG_PGPERR) != RESET)
 8002064:	4b0f      	ldr	r3, [pc, #60]	@ (80020a4 <FLASH_SetErrorCode+0x8c>)
 8002066:	68db      	ldr	r3, [r3, #12]
 8002068:	f003 0340 	and.w	r3, r3, #64	@ 0x40
 800206c:	2b00      	cmp	r3, #0
 800206e:	d005      	beq.n	800207c <FLASH_SetErrorCode+0x64>
  {
    pFlash.ErrorCode |= HAL_FLASH_ERROR_PGP;
 8002070:	4b0d      	ldr	r3, [pc, #52]	@ (80020a8 <FLASH_SetErrorCode+0x90>)
 8002072:	699b      	ldr	r3, [r3, #24]
 8002074:	f043 0304 	orr.w	r3, r3, #4
 8002078:	4a0b      	ldr	r2, [pc, #44]	@ (80020a8 <FLASH_SetErrorCode+0x90>)
 800207a:	6193      	str	r3, [r2, #24]
  }
  
  if(__HAL_FLASH_GET_FLAG(FLASH_FLAG_ERSERR) != RESET)
 800207c:	4b09      	ldr	r3, [pc, #36]	@ (80020a4 <FLASH_SetErrorCode+0x8c>)
 800207e:	68db      	ldr	r3, [r3, #12]
 8002080:	f003 0380 	and.w	r3, r3, #128	@ 0x80
 8002084:	2b00      	cmp	r3, #0
 8002086:	d005      	beq.n	8002094 <FLASH_SetErrorCode+0x7c>
  {
    pFlash.ErrorCode |= HAL_FLASH_ERROR_ERS;
 8002088:	4b07      	ldr	r3, [pc, #28]	@ (80020a8 <FLASH_SetErrorCode+0x90>)
 800208a:	699b      	ldr	r3, [r3, #24]
 800208c:	f043 0302 	orr.w	r3, r3, #2
 8002090:	4a05      	ldr	r2, [pc, #20]	@ (80020a8 <FLASH_SetErrorCode+0x90>)
 8002092:	6193      	str	r3, [r2, #24]
   pFlash.ErrorCode |= HAL_FLASH_ERROR_RD;
  }  
#endif /* FLASH_OPTCR2_PCROP */
  
  /* Clear error programming flags */
  __HAL_FLASH_CLEAR_FLAG(FLASH_FLAG_ALL_ERRORS);
 8002094:	4b03      	ldr	r3, [pc, #12]	@ (80020a4 <FLASH_SetErrorCode+0x8c>)
 8002096:	22f2      	movs	r2, #242	@ 0xf2
 8002098:	60da      	str	r2, [r3, #12]
}
 800209a:	bf00      	nop
 800209c:	46bd      	mov	sp, r7
 800209e:	f85d 7b04 	ldr.w	r7, [sp], #4
 80020a2:	4770      	bx	lr
 80020a4:	40023c00 	.word	0x40023c00
 80020a8:	200000c4 	.word	0x200000c4

080020ac <HAL_FLASHEx_Erase>:
  *         (0xFFFFFFFF means that all the sectors have been correctly erased)
  * 
  * @retval HAL Status
  */
HAL_StatusTypeDef HAL_FLASHEx_Erase(FLASH_EraseInitTypeDef *pEraseInit, uint32_t *SectorError)
{
 80020ac:	b580      	push	{r7, lr}
 80020ae:	b084      	sub	sp, #16
 80020b0:	af00      	add	r7, sp, #0
 80020b2:	6078      	str	r0, [r7, #4]
 80020b4:	6039      	str	r1, [r7, #0]
  HAL_StatusTypeDef status;
  uint32_t index = 0;
 80020b6:	2300      	movs	r3, #0
 80020b8:	60bb      	str	r3, [r7, #8]
  
  /* Process Locked */
  __HAL_LOCK(&pFlash);
 80020ba:	4b2f      	ldr	r3, [pc, #188]	@ (8002178 <HAL_FLASHEx_Erase+0xcc>)
 80020bc:	7d1b      	ldrb	r3, [r3, #20]
 80020be:	2b01      	cmp	r3, #1
 80020c0:	d101      	bne.n	80020c6 <HAL_FLASHEx_Erase+0x1a>
 80020c2:	2302      	movs	r3, #2
 80020c4:	e053      	b.n	800216e <HAL_FLASHEx_Erase+0xc2>
 80020c6:	4b2c      	ldr	r3, [pc, #176]	@ (8002178 <HAL_FLASHEx_Erase+0xcc>)
 80020c8:	2201      	movs	r2, #1
 80020ca:	751a      	strb	r2, [r3, #20]

  /* Check the parameters */
  assert_param(IS_FLASH_TYPEERASE(pEraseInit->TypeErase));

  /* Wait for last operation to be completed */
  status = FLASH_WaitForLastOperation((uint32_t)FLASH_TIMEOUT_VALUE);
 80020cc:	f24c 3050 	movw	r0, #50000	@ 0xc350
 80020d0:	f7ff febc 	bl	8001e4c <FLASH_WaitForLastOperation>
 80020d4:	4603      	mov	r3, r0
 80020d6:	73fb      	strb	r3, [r7, #15]

  if(status == HAL_OK)
 80020d8:	7bfb      	ldrb	r3, [r7, #15]
 80020da:	2b00      	cmp	r3, #0
 80020dc:	d143      	bne.n	8002166 <HAL_FLASHEx_Erase+0xba>
  {
    /*Initialization of SectorError variable*/
    *SectorError = 0xFFFFFFFFU;
 80020de:	683b      	ldr	r3, [r7, #0]
 80020e0:	f04f 32ff 	mov.w	r2, #4294967295
 80020e4:	601a      	str	r2, [r3, #0]
    
    if(pEraseInit->TypeErase == FLASH_TYPEERASE_MASSERASE)
 80020e6:	687b      	ldr	r3, [r7, #4]
 80020e8:	681b      	ldr	r3, [r3, #0]
 80020ea:	2b01      	cmp	r3, #1
 80020ec:	d112      	bne.n	8002114 <HAL_FLASHEx_Erase+0x68>
    {
      /*Mass erase to be done*/
#if defined (FLASH_OPTCR_nDBANK)      
      FLASH_MassErase((uint8_t) pEraseInit->VoltageRange, pEraseInit->Banks);
#else
      FLASH_MassErase((uint8_t) pEraseInit->VoltageRange);      
 80020ee:	687b      	ldr	r3, [r7, #4]
 80020f0:	68db      	ldr	r3, [r3, #12]
 80020f2:	b2db      	uxtb	r3, r3
 80020f4:	4618      	mov	r0, r3
 80020f6:	f000 f843 	bl	8002180 <FLASH_MassErase>
#endif /* FLASH_OPTCR_nDBANK */
                      
      /* Wait for last operation to be completed */
      status = FLASH_WaitForLastOperation((uint32_t)FLASH_TIMEOUT_VALUE);
 80020fa:	f24c 3050 	movw	r0, #50000	@ 0xc350
 80020fe:	f7ff fea5 	bl	8001e4c <FLASH_WaitForLastOperation>
 8002102:	4603      	mov	r3, r0
 8002104:	73fb      	strb	r3, [r7, #15]
      
      /* if the erase operation is completed, disable the MER Bit */
      FLASH->CR &= (~FLASH_MER_BIT);
 8002106:	4b1d      	ldr	r3, [pc, #116]	@ (800217c <HAL_FLASHEx_Erase+0xd0>)
 8002108:	691b      	ldr	r3, [r3, #16]
 800210a:	4a1c      	ldr	r2, [pc, #112]	@ (800217c <HAL_FLASHEx_Erase+0xd0>)
 800210c:	f023 0304 	bic.w	r3, r3, #4
 8002110:	6113      	str	r3, [r2, #16]
 8002112:	e028      	b.n	8002166 <HAL_FLASHEx_Erase+0xba>
    {
      /* Check the parameters */
      assert_param(IS_FLASH_NBSECTORS(pEraseInit->NbSectors + pEraseInit->Sector));

      /* Erase by sector by sector to be done*/
      for(index = pEraseInit->Sector; index < (pEraseInit->NbSectors + pEraseInit->Sector); index++)
 8002114:	687b      	ldr	r3, [r7, #4]
 8002116:	685b      	ldr	r3, [r3, #4]
 8002118:	60bb      	str	r3, [r7, #8]
 800211a:	e01c      	b.n	8002156 <HAL_FLASHEx_Erase+0xaa>
      {
        FLASH_Erase_Sector(index, (uint8_t) pEraseInit->VoltageRange);
 800211c:	687b      	ldr	r3, [r7, #4]
 800211e:	68db      	ldr	r3, [r3, #12]
 8002120:	b2db      	uxtb	r3, r3
 8002122:	4619      	mov	r1, r3
 8002124:	68b8      	ldr	r0, [r7, #8]
 8002126:	f000 f851 	bl	80021cc <FLASH_Erase_Sector>

        /* Wait for last operation to be completed */
        status = FLASH_WaitForLastOperation((uint32_t)FLASH_TIMEOUT_VALUE);
 800212a:	f24c 3050 	movw	r0, #50000	@ 0xc350
 800212e:	f7ff fe8d 	bl	8001e4c <FLASH_WaitForLastOperation>
 8002132:	4603      	mov	r3, r0
 8002134:	73fb      	strb	r3, [r7, #15]
        
        /* If the erase operation is completed, disable the SER Bit and SNB Bits */
        CLEAR_BIT(FLASH->CR, (FLASH_CR_SER | FLASH_CR_SNB)); 
 8002136:	4b11      	ldr	r3, [pc, #68]	@ (800217c <HAL_FLASHEx_Erase+0xd0>)
 8002138:	691b      	ldr	r3, [r3, #16]
 800213a:	4a10      	ldr	r2, [pc, #64]	@ (800217c <HAL_FLASHEx_Erase+0xd0>)
 800213c:	f023 037a 	bic.w	r3, r3, #122	@ 0x7a
 8002140:	6113      	str	r3, [r2, #16]

        if(status != HAL_OK) 
 8002142:	7bfb      	ldrb	r3, [r7, #15]
 8002144:	2b00      	cmp	r3, #0
 8002146:	d003      	beq.n	8002150 <HAL_FLASHEx_Erase+0xa4>
        {
          /* In case of error, stop erase procedure and return the faulty sector*/
          *SectorError = index;
 8002148:	683b      	ldr	r3, [r7, #0]
 800214a:	68ba      	ldr	r2, [r7, #8]
 800214c:	601a      	str	r2, [r3, #0]
          break;
 800214e:	e00a      	b.n	8002166 <HAL_FLASHEx_Erase+0xba>
      for(index = pEraseInit->Sector; index < (pEraseInit->NbSectors + pEraseInit->Sector); index++)
 8002150:	68bb      	ldr	r3, [r7, #8]
 8002152:	3301      	adds	r3, #1
 8002154:	60bb      	str	r3, [r7, #8]
 8002156:	687b      	ldr	r3, [r7, #4]
 8002158:	689a      	ldr	r2, [r3, #8]
 800215a:	687b      	ldr	r3, [r7, #4]
 800215c:	685b      	ldr	r3, [r3, #4]
 800215e:	4413      	add	r3, r2
 8002160:	68ba      	ldr	r2, [r7, #8]
 8002162:	429a      	cmp	r2, r3
 8002164:	d3da      	bcc.n	800211c <HAL_FLASHEx_Erase+0x70>
      }
    }
  }

  /* Process Unlocked */
  __HAL_UNLOCK(&pFlash);
 8002166:	4b04      	ldr	r3, [pc, #16]	@ (8002178 <HAL_FLASHEx_Erase+0xcc>)
 8002168:	2200      	movs	r2, #0
 800216a:	751a      	strb	r2, [r3, #20]

  return status;
 800216c:	7bfb      	ldrb	r3, [r7, #15]
}
 800216e:	4618      	mov	r0, r3
 8002170:	3710      	adds	r7, #16
 8002172:	46bd      	mov	sp, r7
 8002174:	bd80      	pop	{r7, pc}
 8002176:	bf00      	nop
 8002178:	200000c4 	.word	0x200000c4
 800217c:	40023c00 	.word	0x40023c00

08002180 <FLASH_MassErase>:
  *                                  the operation will be done by double word (64-bit)
  *
  * @retval HAL Status
  */
static void FLASH_MassErase(uint8_t VoltageRange)
{
 8002180:	b480      	push	{r7}
 8002182:	b083      	sub	sp, #12
 8002184:	af00      	add	r7, sp, #0
 8002186:	4603      	mov	r3, r0
 8002188:	71fb      	strb	r3, [r7, #7]
  /* Check the parameters */
  assert_param(IS_VOLTAGERANGE(VoltageRange));

  /* if the previous operation is completed, proceed to erase all sectors */
  FLASH->CR &= CR_PSIZE_MASK;
 800218a:	4b0f      	ldr	r3, [pc, #60]	@ (80021c8 <FLASH_MassErase+0x48>)
 800218c:	691b      	ldr	r3, [r3, #16]
 800218e:	4a0e      	ldr	r2, [pc, #56]	@ (80021c8 <FLASH_MassErase+0x48>)
 8002190:	f423 7340 	bic.w	r3, r3, #768	@ 0x300
 8002194:	6113      	str	r3, [r2, #16]
  FLASH->CR |= FLASH_CR_MER;
 8002196:	4b0c      	ldr	r3, [pc, #48]	@ (80021c8 <FLASH_MassErase+0x48>)
 8002198:	691b      	ldr	r3, [r3, #16]
 800219a:	4a0b      	ldr	r2, [pc, #44]	@ (80021c8 <FLASH_MassErase+0x48>)
 800219c:	f043 0304 	orr.w	r3, r3, #4
 80021a0:	6113      	str	r3, [r2, #16]
  FLASH->CR |= FLASH_CR_STRT | ((uint32_t)VoltageRange <<8);
 80021a2:	4b09      	ldr	r3, [pc, #36]	@ (80021c8 <FLASH_MassErase+0x48>)
 80021a4:	691a      	ldr	r2, [r3, #16]
 80021a6:	79fb      	ldrb	r3, [r7, #7]
 80021a8:	021b      	lsls	r3, r3, #8
 80021aa:	4313      	orrs	r3, r2
 80021ac:	4a06      	ldr	r2, [pc, #24]	@ (80021c8 <FLASH_MassErase+0x48>)
 80021ae:	f443 3380 	orr.w	r3, r3, #65536	@ 0x10000
 80021b2:	6113      	str	r3, [r2, #16]
  __ASM volatile ("dsb 0xF":::"memory");
 80021b4:	f3bf 8f4f 	dsb	sy
}
 80021b8:	bf00      	nop
  /* Data synchronous Barrier (DSB) Just after the write operation
     This will force the CPU to respect the sequence of instruction (no optimization).*/
  __DSB();
}
 80021ba:	bf00      	nop
 80021bc:	370c      	adds	r7, #12
 80021be:	46bd      	mov	sp, r7
 80021c0:	f85d 7b04 	ldr.w	r7, [sp], #4
 80021c4:	4770      	bx	lr
 80021c6:	bf00      	nop
 80021c8:	40023c00 	.word	0x40023c00

080021cc <FLASH_Erase_Sector>:
  *                                  the operation will be done by double word (64-bit)
  * 
  * @retval None
  */
void FLASH_Erase_Sector(uint32_t Sector, uint8_t VoltageRange)
{
 80021cc:	b480      	push	{r7}
 80021ce:	b085      	sub	sp, #20
 80021d0:	af00      	add	r7, sp, #0
 80021d2:	6078      	str	r0, [r7, #4]
 80021d4:	460b      	mov	r3, r1
 80021d6:	70fb      	strb	r3, [r7, #3]
  uint32_t tmp_psize = 0;
 80021d8:	2300      	movs	r3, #0
 80021da:	60fb      	str	r3, [r7, #12]

  /* Check the parameters */
  assert_param(IS_FLASH_SECTOR(Sector));
  assert_param(IS_VOLTAGERANGE(VoltageRange));
  
  if(VoltageRange == FLASH_VOLTAGE_RANGE_1)
 80021dc:	78fb      	ldrb	r3, [r7, #3]
 80021de:	2b00      	cmp	r3, #0
 80021e0:	d102      	bne.n	80021e8 <FLASH_Erase_Sector+0x1c>
  {
     tmp_psize = FLASH_PSIZE_BYTE;
 80021e2:	2300      	movs	r3, #0
 80021e4:	60fb      	str	r3, [r7, #12]
 80021e6:	e010      	b.n	800220a <FLASH_Erase_Sector+0x3e>
  }
  else if(VoltageRange == FLASH_VOLTAGE_RANGE_2)
 80021e8:	78fb      	ldrb	r3, [r7, #3]
 80021ea:	2b01      	cmp	r3, #1
 80021ec:	d103      	bne.n	80021f6 <FLASH_Erase_Sector+0x2a>
  {
    tmp_psize = FLASH_PSIZE_HALF_WORD;
 80021ee:	f44f 7380 	mov.w	r3, #256	@ 0x100
 80021f2:	60fb      	str	r3, [r7, #12]
 80021f4:	e009      	b.n	800220a <FLASH_Erase_Sector+0x3e>
  }
  else if(VoltageRange == FLASH_VOLTAGE_RANGE_3)
 80021f6:	78fb      	ldrb	r3, [r7, #3]
 80021f8:	2b02      	cmp	r3, #2
 80021fa:	d103      	bne.n	8002204 <FLASH_Erase_Sector+0x38>
  {
    tmp_psize = FLASH_PSIZE_WORD;
 80021fc:	f44f 7300 	mov.w	r3, #512	@ 0x200
 8002200:	60fb      	str	r3, [r7, #12]
 8002202:	e002      	b.n	800220a <FLASH_Erase_Sector+0x3e>
  }
  else
  {
    tmp_psize = FLASH_PSIZE_DOUBLE_WORD;
 8002204:	f44f 7340 	mov.w	r3, #768	@ 0x300
 8002208:	60fb      	str	r3, [r7, #12]
  }

  /* If the previous operation is completed, proceed to erase the sector */
  FLASH->CR &= CR_PSIZE_MASK;
 800220a:	4b15      	ldr	r3, [pc, #84]	@ (8002260 <FLASH_Erase_Sector+0x94>)
 800220c:	691b      	ldr	r3, [r3, #16]
 800220e:	4a14      	ldr	r2, [pc, #80]	@ (8002260 <FLASH_Erase_Sector+0x94>)
 8002210:	f423 7340 	bic.w	r3, r3, #768	@ 0x300
 8002214:	6113      	str	r3, [r2, #16]
  FLASH->CR |= tmp_psize;
 8002216:	4b12      	ldr	r3, [pc, #72]	@ (8002260 <FLASH_Erase_Sector+0x94>)
 8002218:	691a      	ldr	r2, [r3, #16]
 800221a:	4911      	ldr	r1, [pc, #68]	@ (8002260 <FLASH_Erase_Sector+0x94>)
 800221c:	68fb      	ldr	r3, [r7, #12]
 800221e:	4313      	orrs	r3, r2
 8002220:	610b      	str	r3, [r1, #16]
  FLASH->CR &= SECTOR_MASK;
 8002222:	4b0f      	ldr	r3, [pc, #60]	@ (8002260 <FLASH_Erase_Sector+0x94>)
 8002224:	691b      	ldr	r3, [r3, #16]
 8002226:	4a0e      	ldr	r2, [pc, #56]	@ (8002260 <FLASH_Erase_Sector+0x94>)
 8002228:	f023 03f8 	bic.w	r3, r3, #248	@ 0xf8
 800222c:	6113      	str	r3, [r2, #16]
  FLASH->CR |= FLASH_CR_SER | (Sector << FLASH_CR_SNB_Pos);
 800222e:	4b0c      	ldr	r3, [pc, #48]	@ (8002260 <FLASH_Erase_Sector+0x94>)
 8002230:	691a      	ldr	r2, [r3, #16]
 8002232:	687b      	ldr	r3, [r7, #4]
 8002234:	00db      	lsls	r3, r3, #3
 8002236:	4313      	orrs	r3, r2
 8002238:	4a09      	ldr	r2, [pc, #36]	@ (8002260 <FLASH_Erase_Sector+0x94>)
 800223a:	f043 0302 	orr.w	r3, r3, #2
 800223e:	6113      	str	r3, [r2, #16]
  FLASH->CR |= FLASH_CR_STRT;
 8002240:	4b07      	ldr	r3, [pc, #28]	@ (8002260 <FLASH_Erase_Sector+0x94>)
 8002242:	691b      	ldr	r3, [r3, #16]
 8002244:	4a06      	ldr	r2, [pc, #24]	@ (8002260 <FLASH_Erase_Sector+0x94>)
 8002246:	f443 3380 	orr.w	r3, r3, #65536	@ 0x10000
 800224a:	6113      	str	r3, [r2, #16]
  __ASM volatile ("dsb 0xF":::"memory");
 800224c:	f3bf 8f4f 	dsb	sy
}
 8002250:	bf00      	nop
  
  /* Data synchronous Barrier (DSB) Just after the write operation
     This will force the CPU to respect the sequence of instruction (no optimization).*/
  __DSB();
}
 8002252:	bf00      	nop
 8002254:	3714      	adds	r7, #20
 8002256:	46bd      	mov	sp, r7
 8002258:	f85d 7b04 	ldr.w	r7, [sp], #4
 800225c:	4770      	bx	lr
 800225e:	bf00      	nop
 8002260:	40023c00 	.word	0x40023c00

08002264 <HAL_GPIO_Init>:
  * @param  GPIO_Init pointer to a GPIO_InitTypeDef structure that contains
  *         the configuration information for the specified GPIO peripheral.
  * @retval None
  */
void HAL_GPIO_Init(GPIO_TypeDef  *GPIOx, GPIO_InitTypeDef *GPIO_Init)
{
 8002264:	b480      	push	{r7}
 8002266:	b089      	sub	sp, #36	@ 0x24
 8002268:	af00      	add	r7, sp, #0
 800226a:	6078      	str	r0, [r7, #4]
 800226c:	6039      	str	r1, [r7, #0]
  uint32_t position = 0x00;
 800226e:	2300      	movs	r3, #0
 8002270:	61fb      	str	r3, [r7, #28]
  uint32_t ioposition = 0x00;
 8002272:	2300      	movs	r3, #0
 8002274:	617b      	str	r3, [r7, #20]
  uint32_t iocurrent = 0x00;
 8002276:	2300      	movs	r3, #0
 8002278:	613b      	str	r3, [r7, #16]
  uint32_t temp = 0x00;
 800227a:	2300      	movs	r3, #0
 800227c:	61bb      	str	r3, [r7, #24]
  assert_param(IS_GPIO_ALL_INSTANCE(GPIOx));
  assert_param(IS_GPIO_PIN(GPIO_Init->Pin));
  assert_param(IS_GPIO_MODE(GPIO_Init->Mode));

  /* Configure the port pins */
  for (position = 0; position < GPIO_NUMBER; position++)
 800227e:	2300      	movs	r3, #0
 8002280:	61fb      	str	r3, [r7, #28]
 8002282:	e175      	b.n	8002570 <HAL_GPIO_Init+0x30c>
  {
    /* Get the IO position */
    ioposition = ((uint32_t)0x01) << position;
 8002284:	2201      	movs	r2, #1
 8002286:	69fb      	ldr	r3, [r7, #28]
 8002288:	fa02 f303 	lsl.w	r3, r2, r3
 800228c:	617b      	str	r3, [r7, #20]
    /* Get the current IO position */
    iocurrent = (uint32_t)(GPIO_Init->Pin) & ioposition;
 800228e:	683b      	ldr	r3, [r7, #0]
 8002290:	681b      	ldr	r3, [r3, #0]
 8002292:	697a      	ldr	r2, [r7, #20]
 8002294:	4013      	ands	r3, r2
 8002296:	613b      	str	r3, [r7, #16]

    if (iocurrent == ioposition)
 8002298:	693a      	ldr	r2, [r7, #16]
 800229a:	697b      	ldr	r3, [r7, #20]
 800229c:	429a      	cmp	r2, r3
 800229e:	f040 8164 	bne.w	800256a <HAL_GPIO_Init+0x306>
    {
      /*--------------------- GPIO Mode Configuration ------------------------*/
      /* In case of Output or Alternate function mode selection */
      if (((GPIO_Init->Mode & GPIO_MODE) == MODE_OUTPUT) || ((GPIO_Init->Mode & GPIO_MODE) == MODE_AF))
 80022a2:	683b      	ldr	r3, [r7, #0]
 80022a4:	685b      	ldr	r3, [r3, #4]
 80022a6:	f003 0303 	and.w	r3, r3, #3
 80022aa:	2b01      	cmp	r3, #1
 80022ac:	d005      	beq.n	80022ba <HAL_GPIO_Init+0x56>
 80022ae:	683b      	ldr	r3, [r7, #0]
 80022b0:	685b      	ldr	r3, [r3, #4]
 80022b2:	f003 0303 	and.w	r3, r3, #3
 80022b6:	2b02      	cmp	r3, #2
 80022b8:	d130      	bne.n	800231c <HAL_GPIO_Init+0xb8>
      {
        /* Check the Speed parameter */
        assert_param(IS_GPIO_SPEED(GPIO_Init->Speed));
        /* Configure the IO Speed */
        temp = GPIOx->OSPEEDR;
 80022ba:	687b      	ldr	r3, [r7, #4]
 80022bc:	689b      	ldr	r3, [r3, #8]
 80022be:	61bb      	str	r3, [r7, #24]
        temp &= ~(GPIO_OSPEEDER_OSPEEDR0 << (position * 2));
 80022c0:	69fb      	ldr	r3, [r7, #28]
 80022c2:	005b      	lsls	r3, r3, #1
 80022c4:	2203      	movs	r2, #3
 80022c6:	fa02 f303 	lsl.w	r3, r2, r3
 80022ca:	43db      	mvns	r3, r3
 80022cc:	69ba      	ldr	r2, [r7, #24]
 80022ce:	4013      	ands	r3, r2
 80022d0:	61bb      	str	r3, [r7, #24]
        temp |= (GPIO_Init->Speed << (position * 2));
 80022d2:	683b      	ldr	r3, [r7, #0]
 80022d4:	68da      	ldr	r2, [r3, #12]
 80022d6:	69fb      	ldr	r3, [r7, #28]
 80022d8:	005b      	lsls	r3, r3, #1
 80022da:	fa02 f303 	lsl.w	r3, r2, r3
 80022de:	69ba      	ldr	r2, [r7, #24]
 80022e0:	4313      	orrs	r3, r2
 80022e2:	61bb      	str	r3, [r7, #24]
        GPIOx->OSPEEDR = temp;
 80022e4:	687b      	ldr	r3, [r7, #4]
 80022e6:	69ba      	ldr	r2, [r7, #24]
 80022e8:	609a      	str	r2, [r3, #8]

        /* Configure the IO Output Type */
        temp = GPIOx->OTYPER;
 80022ea:	687b      	ldr	r3, [r7, #4]
 80022ec:	685b      	ldr	r3, [r3, #4]
 80022ee:	61bb      	str	r3, [r7, #24]
        temp &= ~(GPIO_OTYPER_OT_0 << position) ;
 80022f0:	2201      	movs	r2, #1
 80022f2:	69fb      	ldr	r3, [r7, #28]
 80022f4:	fa02 f303 	lsl.w	r3, r2, r3
 80022f8:	43db      	mvns	r3, r3
 80022fa:	69ba      	ldr	r2, [r7, #24]
 80022fc:	4013      	ands	r3, r2
 80022fe:	61bb      	str	r3, [r7, #24]
        temp |= (((GPIO_Init->Mode & OUTPUT_TYPE) >> OUTPUT_TYPE_Pos) << position);
 8002300:	683b      	ldr	r3, [r7, #0]
 8002302:	685b      	ldr	r3, [r3, #4]
 8002304:	091b      	lsrs	r3, r3, #4
 8002306:	f003 0201 	and.w	r2, r3, #1
 800230a:	69fb      	ldr	r3, [r7, #28]
 800230c:	fa02 f303 	lsl.w	r3, r2, r3
 8002310:	69ba      	ldr	r2, [r7, #24]
 8002312:	4313      	orrs	r3, r2
 8002314:	61bb      	str	r3, [r7, #24]
        GPIOx->OTYPER = temp;
 8002316:	687b      	ldr	r3, [r7, #4]
 8002318:	69ba      	ldr	r2, [r7, #24]
 800231a:	605a      	str	r2, [r3, #4]
      }

      if ((GPIO_Init->Mode & GPIO_MODE) != MODE_ANALOG)
 800231c:	683b      	ldr	r3, [r7, #0]
 800231e:	685b      	ldr	r3, [r3, #4]
 8002320:	f003 0303 	and.w	r3, r3, #3
 8002324:	2b03      	cmp	r3, #3
 8002326:	d017      	beq.n	8002358 <HAL_GPIO_Init+0xf4>
      {
        /* Check the Pull parameter */
        assert_param(IS_GPIO_PULL(GPIO_Init->Pull));

        /* Activate the Pull-up or Pull down resistor for the current IO */
        temp = GPIOx->PUPDR;
 8002328:	687b      	ldr	r3, [r7, #4]
 800232a:	68db      	ldr	r3, [r3, #12]
 800232c:	61bb      	str	r3, [r7, #24]
        temp &= ~(GPIO_PUPDR_PUPDR0 << (position * 2));
 800232e:	69fb      	ldr	r3, [r7, #28]
 8002330:	005b      	lsls	r3, r3, #1
 8002332:	2203      	movs	r2, #3
 8002334:	fa02 f303 	lsl.w	r3, r2, r3
 8002338:	43db      	mvns	r3, r3
 800233a:	69ba      	ldr	r2, [r7, #24]
 800233c:	4013      	ands	r3, r2
 800233e:	61bb      	str	r3, [r7, #24]
        temp |= ((GPIO_Init->Pull) << (position * 2));
 8002340:	683b      	ldr	r3, [r7, #0]
 8002342:	689a      	ldr	r2, [r3, #8]
 8002344:	69fb      	ldr	r3, [r7, #28]
 8002346:	005b      	lsls	r3, r3, #1
 8002348:	fa02 f303 	lsl.w	r3, r2, r3
 800234c:	69ba      	ldr	r2, [r7, #24]
 800234e:	4313      	orrs	r3, r2
 8002350:	61bb      	str	r3, [r7, #24]
        GPIOx->PUPDR = temp;
 8002352:	687b      	ldr	r3, [r7, #4]
 8002354:	69ba      	ldr	r2, [r7, #24]
 8002356:	60da      	str	r2, [r3, #12]
      }

      /* In case of Alternate function mode selection */
      if ((GPIO_Init->Mode & GPIO_MODE) == MODE_AF)
 8002358:	683b      	ldr	r3, [r7, #0]
 800235a:	685b      	ldr	r3, [r3, #4]
 800235c:	f003 0303 	and.w	r3, r3, #3
 8002360:	2b02      	cmp	r3, #2
 8002362:	d123      	bne.n	80023ac <HAL_GPIO_Init+0x148>
      {
        /* Check the Alternate function parameter */
        assert_param(IS_GPIO_AF(GPIO_Init->Alternate));

        /* Configure Alternate function mapped with the current IO */
        temp = GPIOx->AFR[position >> 3];
 8002364:	69fb      	ldr	r3, [r7, #28]
 8002366:	08da      	lsrs	r2, r3, #3
 8002368:	687b      	ldr	r3, [r7, #4]
 800236a:	3208      	adds	r2, #8
 800236c:	f853 3022 	ldr.w	r3, [r3, r2, lsl #2]
 8002370:	61bb      	str	r3, [r7, #24]
        temp &= ~((uint32_t)0xF << ((uint32_t)(position & (uint32_t)0x07) * 4)) ;
 8002372:	69fb      	ldr	r3, [r7, #28]
 8002374:	f003 0307 	and.w	r3, r3, #7
 8002378:	009b      	lsls	r3, r3, #2
 800237a:	220f      	movs	r2, #15
 800237c:	fa02 f303 	lsl.w	r3, r2, r3
 8002380:	43db      	mvns	r3, r3
 8002382:	69ba      	ldr	r2, [r7, #24]
 8002384:	4013      	ands	r3, r2
 8002386:	61bb      	str	r3, [r7, #24]
        temp |= ((uint32_t)(GPIO_Init->Alternate) << (((uint32_t)position & (uint32_t)0x07) * 4));
 8002388:	683b      	ldr	r3, [r7, #0]
 800238a:	691a      	ldr	r2, [r3, #16]
 800238c:	69fb      	ldr	r3, [r7, #28]
 800238e:	f003 0307 	and.w	r3, r3, #7
 8002392:	009b      	lsls	r3, r3, #2
 8002394:	fa02 f303 	lsl.w	r3, r2, r3
 8002398:	69ba      	ldr	r2, [r7, #24]
 800239a:	4313      	orrs	r3, r2
 800239c:	61bb      	str	r3, [r7, #24]
        GPIOx->AFR[position >> 3] = temp;
 800239e:	69fb      	ldr	r3, [r7, #28]
 80023a0:	08da      	lsrs	r2, r3, #3
 80023a2:	687b      	ldr	r3, [r7, #4]
 80023a4:	3208      	adds	r2, #8
 80023a6:	69b9      	ldr	r1, [r7, #24]
 80023a8:	f843 1022 	str.w	r1, [r3, r2, lsl #2]
      }

      /* Configure IO Direction mode (Input, Output, Alternate or Analog) */
      temp = GPIOx->MODER;
 80023ac:	687b      	ldr	r3, [r7, #4]
 80023ae:	681b      	ldr	r3, [r3, #0]
 80023b0:	61bb      	str	r3, [r7, #24]
      temp &= ~(GPIO_MODER_MODER0 << (position * 2));
 80023b2:	69fb      	ldr	r3, [r7, #28]
 80023b4:	005b      	lsls	r3, r3, #1
 80023b6:	2203      	movs	r2, #3
 80023b8:	fa02 f303 	lsl.w	r3, r2, r3
 80023bc:	43db      	mvns	r3, r3
 80023be:	69ba      	ldr	r2, [r7, #24]
 80023c0:	4013      	ands	r3, r2
 80023c2:	61bb      	str	r3, [r7, #24]
      temp |= ((GPIO_Init->Mode & GPIO_MODE) << (position * 2));
 80023c4:	683b      	ldr	r3, [r7, #0]
 80023c6:	685b      	ldr	r3, [r3, #4]
 80023c8:	f003 0203 	and.w	r2, r3, #3
 80023cc:	69fb      	ldr	r3, [r7, #28]
 80023ce:	005b      	lsls	r3, r3, #1
 80023d0:	fa02 f303 	lsl.w	r3, r2, r3
 80023d4:	69ba      	ldr	r2, [r7, #24]
 80023d6:	4313      	orrs	r3, r2
 80023d8:	61bb      	str	r3, [r7, #24]
      GPIOx->MODER = temp;
 80023da:	687b      	ldr	r3, [r7, #4]
 80023dc:	69ba      	ldr	r2, [r7, #24]
 80023de:	601a      	str	r2, [r3, #0]

      /*--------------------- EXTI Mode Configuration ------------------------*/
      /* Configure the External Interrupt or event for the current IO */
      if ((GPIO_Init->Mode & EXTI_MODE) != 0x00u)
 80023e0:	683b      	ldr	r3, [r7, #0]
 80023e2:	685b      	ldr	r3, [r3, #4]
 80023e4:	f403 3340 	and.w	r3, r3, #196608	@ 0x30000
 80023e8:	2b00      	cmp	r3, #0
 80023ea:	f000 80be 	beq.w	800256a <HAL_GPIO_Init+0x306>
      {
        /* Enable SYSCFG Clock */
        __HAL_RCC_SYSCFG_CLK_ENABLE();
 80023ee:	4b66      	ldr	r3, [pc, #408]	@ (8002588 <HAL_GPIO_Init+0x324>)
 80023f0:	6c5b      	ldr	r3, [r3, #68]	@ 0x44
 80023f2:	4a65      	ldr	r2, [pc, #404]	@ (8002588 <HAL_GPIO_Init+0x324>)
 80023f4:	f443 4380 	orr.w	r3, r3, #16384	@ 0x4000
 80023f8:	6453      	str	r3, [r2, #68]	@ 0x44
 80023fa:	4b63      	ldr	r3, [pc, #396]	@ (8002588 <HAL_GPIO_Init+0x324>)
 80023fc:	6c5b      	ldr	r3, [r3, #68]	@ 0x44
 80023fe:	f403 4380 	and.w	r3, r3, #16384	@ 0x4000
 8002402:	60fb      	str	r3, [r7, #12]
 8002404:	68fb      	ldr	r3, [r7, #12]

        temp = SYSCFG->EXTICR[position >> 2];
 8002406:	4a61      	ldr	r2, [pc, #388]	@ (800258c <HAL_GPIO_Init+0x328>)
 8002408:	69fb      	ldr	r3, [r7, #28]
 800240a:	089b      	lsrs	r3, r3, #2
 800240c:	3302      	adds	r3, #2
 800240e:	f852 3023 	ldr.w	r3, [r2, r3, lsl #2]
 8002412:	61bb      	str	r3, [r7, #24]
        temp &= ~(((uint32_t)0x0F) << (4 * (position & 0x03)));
 8002414:	69fb      	ldr	r3, [r7, #28]
 8002416:	f003 0303 	and.w	r3, r3, #3
 800241a:	009b      	lsls	r3, r3, #2
 800241c:	220f      	movs	r2, #15
 800241e:	fa02 f303 	lsl.w	r3, r2, r3
 8002422:	43db      	mvns	r3, r3
 8002424:	69ba      	ldr	r2, [r7, #24]
 8002426:	4013      	ands	r3, r2
 8002428:	61bb      	str	r3, [r7, #24]
        temp |= ((uint32_t)(GPIO_GET_INDEX(GPIOx)) << (4 * (position & 0x03)));
 800242a:	687b      	ldr	r3, [r7, #4]
 800242c:	4a58      	ldr	r2, [pc, #352]	@ (8002590 <HAL_GPIO_Init+0x32c>)
 800242e:	4293      	cmp	r3, r2
 8002430:	d037      	beq.n	80024a2 <HAL_GPIO_Init+0x23e>
 8002432:	687b      	ldr	r3, [r7, #4]
 8002434:	4a57      	ldr	r2, [pc, #348]	@ (8002594 <HAL_GPIO_Init+0x330>)
 8002436:	4293      	cmp	r3, r2
 8002438:	d031      	beq.n	800249e <HAL_GPIO_Init+0x23a>
 800243a:	687b      	ldr	r3, [r7, #4]
 800243c:	4a56      	ldr	r2, [pc, #344]	@ (8002598 <HAL_GPIO_Init+0x334>)
 800243e:	4293      	cmp	r3, r2
 8002440:	d02b      	beq.n	800249a <HAL_GPIO_Init+0x236>
 8002442:	687b      	ldr	r3, [r7, #4]
 8002444:	4a55      	ldr	r2, [pc, #340]	@ (800259c <HAL_GPIO_Init+0x338>)
 8002446:	4293      	cmp	r3, r2
 8002448:	d025      	beq.n	8002496 <HAL_GPIO_Init+0x232>
 800244a:	687b      	ldr	r3, [r7, #4]
 800244c:	4a54      	ldr	r2, [pc, #336]	@ (80025a0 <HAL_GPIO_Init+0x33c>)
 800244e:	4293      	cmp	r3, r2
 8002450:	d01f      	beq.n	8002492 <HAL_GPIO_Init+0x22e>
 8002452:	687b      	ldr	r3, [r7, #4]
 8002454:	4a53      	ldr	r2, [pc, #332]	@ (80025a4 <HAL_GPIO_Init+0x340>)
 8002456:	4293      	cmp	r3, r2
 8002458:	d019      	beq.n	800248e <HAL_GPIO_Init+0x22a>
 800245a:	687b      	ldr	r3, [r7, #4]
 800245c:	4a52      	ldr	r2, [pc, #328]	@ (80025a8 <HAL_GPIO_Init+0x344>)
 800245e:	4293      	cmp	r3, r2
 8002460:	d013      	beq.n	800248a <HAL_GPIO_Init+0x226>
 8002462:	687b      	ldr	r3, [r7, #4]
 8002464:	4a51      	ldr	r2, [pc, #324]	@ (80025ac <HAL_GPIO_Init+0x348>)
 8002466:	4293      	cmp	r3, r2
 8002468:	d00d      	beq.n	8002486 <HAL_GPIO_Init+0x222>
 800246a:	687b      	ldr	r3, [r7, #4]
 800246c:	4a50      	ldr	r2, [pc, #320]	@ (80025b0 <HAL_GPIO_Init+0x34c>)
 800246e:	4293      	cmp	r3, r2
 8002470:	d007      	beq.n	8002482 <HAL_GPIO_Init+0x21e>
 8002472:	687b      	ldr	r3, [r7, #4]
 8002474:	4a4f      	ldr	r2, [pc, #316]	@ (80025b4 <HAL_GPIO_Init+0x350>)
 8002476:	4293      	cmp	r3, r2
 8002478:	d101      	bne.n	800247e <HAL_GPIO_Init+0x21a>
 800247a:	2309      	movs	r3, #9
 800247c:	e012      	b.n	80024a4 <HAL_GPIO_Init+0x240>
 800247e:	230a      	movs	r3, #10
 8002480:	e010      	b.n	80024a4 <HAL_GPIO_Init+0x240>
 8002482:	2308      	movs	r3, #8
 8002484:	e00e      	b.n	80024a4 <HAL_GPIO_Init+0x240>
 8002486:	2307      	movs	r3, #7
 8002488:	e00c      	b.n	80024a4 <HAL_GPIO_Init+0x240>
 800248a:	2306      	movs	r3, #6
 800248c:	e00a      	b.n	80024a4 <HAL_GPIO_Init+0x240>
 800248e:	2305      	movs	r3, #5
 8002490:	e008      	b.n	80024a4 <HAL_GPIO_Init+0x240>
 8002492:	2304      	movs	r3, #4
 8002494:	e006      	b.n	80024a4 <HAL_GPIO_Init+0x240>
 8002496:	2303      	movs	r3, #3
 8002498:	e004      	b.n	80024a4 <HAL_GPIO_Init+0x240>
 800249a:	2302      	movs	r3, #2
 800249c:	e002      	b.n	80024a4 <HAL_GPIO_Init+0x240>
 800249e:	2301      	movs	r3, #1
 80024a0:	e000      	b.n	80024a4 <HAL_GPIO_Init+0x240>
 80024a2:	2300      	movs	r3, #0
 80024a4:	69fa      	ldr	r2, [r7, #28]
 80024a6:	f002 0203 	and.w	r2, r2, #3
 80024aa:	0092      	lsls	r2, r2, #2
 80024ac:	4093      	lsls	r3, r2
 80024ae:	69ba      	ldr	r2, [r7, #24]
 80024b0:	4313      	orrs	r3, r2
 80024b2:	61bb      	str	r3, [r7, #24]
        SYSCFG->EXTICR[position >> 2] = temp;
 80024b4:	4935      	ldr	r1, [pc, #212]	@ (800258c <HAL_GPIO_Init+0x328>)
 80024b6:	69fb      	ldr	r3, [r7, #28]
 80024b8:	089b      	lsrs	r3, r3, #2
 80024ba:	3302      	adds	r3, #2
 80024bc:	69ba      	ldr	r2, [r7, #24]
 80024be:	f841 2023 	str.w	r2, [r1, r3, lsl #2]

        /* Clear Rising Falling edge configuration */
        temp = EXTI->RTSR;
 80024c2:	4b3d      	ldr	r3, [pc, #244]	@ (80025b8 <HAL_GPIO_Init+0x354>)
 80024c4:	689b      	ldr	r3, [r3, #8]
 80024c6:	61bb      	str	r3, [r7, #24]
        temp &= ~((uint32_t)iocurrent);
 80024c8:	693b      	ldr	r3, [r7, #16]
 80024ca:	43db      	mvns	r3, r3
 80024cc:	69ba      	ldr	r2, [r7, #24]
 80024ce:	4013      	ands	r3, r2
 80024d0:	61bb      	str	r3, [r7, #24]
        if ((GPIO_Init->Mode & TRIGGER_RISING) != 0x00u)
 80024d2:	683b      	ldr	r3, [r7, #0]
 80024d4:	685b      	ldr	r3, [r3, #4]
 80024d6:	f403 1380 	and.w	r3, r3, #1048576	@ 0x100000
 80024da:	2b00      	cmp	r3, #0
 80024dc:	d003      	beq.n	80024e6 <HAL_GPIO_Init+0x282>
        {
          temp |= iocurrent;
 80024de:	69ba      	ldr	r2, [r7, #24]
 80024e0:	693b      	ldr	r3, [r7, #16]
 80024e2:	4313      	orrs	r3, r2
 80024e4:	61bb      	str	r3, [r7, #24]
        }
        EXTI->RTSR = temp;
 80024e6:	4a34      	ldr	r2, [pc, #208]	@ (80025b8 <HAL_GPIO_Init+0x354>)
 80024e8:	69bb      	ldr	r3, [r7, #24]
 80024ea:	6093      	str	r3, [r2, #8]

        temp = EXTI->FTSR;
 80024ec:	4b32      	ldr	r3, [pc, #200]	@ (80025b8 <HAL_GPIO_Init+0x354>)
 80024ee:	68db      	ldr	r3, [r3, #12]
 80024f0:	61bb      	str	r3, [r7, #24]
        temp &= ~((uint32_t)iocurrent);
 80024f2:	693b      	ldr	r3, [r7, #16]
 80024f4:	43db      	mvns	r3, r3
 80024f6:	69ba      	ldr	r2, [r7, #24]
 80024f8:	4013      	ands	r3, r2
 80024fa:	61bb      	str	r3, [r7, #24]
        if ((GPIO_Init->Mode & TRIGGER_FALLING) != 0x00u)
 80024fc:	683b      	ldr	r3, [r7, #0]
 80024fe:	685b      	ldr	r3, [r3, #4]
 8002500:	f403 1300 	and.w	r3, r3, #2097152	@ 0x200000
 8002504:	2b00      	cmp	r3, #0
 8002506:	d003      	beq.n	8002510 <HAL_GPIO_Init+0x2ac>
        {
          temp |= iocurrent;
 8002508:	69ba      	ldr	r2, [r7, #24]
 800250a:	693b      	ldr	r3, [r7, #16]
 800250c:	4313      	orrs	r3, r2
 800250e:	61bb      	str	r3, [r7, #24]
        }
        EXTI->FTSR = temp;
 8002510:	4a29      	ldr	r2, [pc, #164]	@ (80025b8 <HAL_GPIO_Init+0x354>)
 8002512:	69bb      	ldr	r3, [r7, #24]
 8002514:	60d3      	str	r3, [r2, #12]

        temp = EXTI->EMR;
 8002516:	4b28      	ldr	r3, [pc, #160]	@ (80025b8 <HAL_GPIO_Init+0x354>)
 8002518:	685b      	ldr	r3, [r3, #4]
 800251a:	61bb      	str	r3, [r7, #24]
        temp &= ~((uint32_t)iocurrent);
 800251c:	693b      	ldr	r3, [r7, #16]
 800251e:	43db      	mvns	r3, r3
 8002520:	69ba      	ldr	r2, [r7, #24]
 8002522:	4013      	ands	r3, r2
 8002524:	61bb      	str	r3, [r7, #24]
        if ((GPIO_Init->Mode & EXTI_EVT) != 0x00u)
 8002526:	683b      	ldr	r3, [r7, #0]
 8002528:	685b      	ldr	r3, [r3, #4]
 800252a:	f403 3300 	and.w	r3, r3, #131072	@ 0x20000
 800252e:	2b00      	cmp	r3, #0
 8002530:	d003      	beq.n	800253a <HAL_GPIO_Init+0x2d6>
        {
          temp |= iocurrent;
 8002532:	69ba      	ldr	r2, [r7, #24]
 8002534:	693b      	ldr	r3, [r7, #16]
 8002536:	4313      	orrs	r3, r2
 8002538:	61bb      	str	r3, [r7, #24]
        }
        EXTI->EMR = temp;
 800253a:	4a1f      	ldr	r2, [pc, #124]	@ (80025b8 <HAL_GPIO_Init+0x354>)
 800253c:	69bb      	ldr	r3, [r7, #24]
 800253e:	6053      	str	r3, [r2, #4]

        /* Clear EXTI line configuration */
        temp = EXTI->IMR;
 8002540:	4b1d      	ldr	r3, [pc, #116]	@ (80025b8 <HAL_GPIO_Init+0x354>)
 8002542:	681b      	ldr	r3, [r3, #0]
 8002544:	61bb      	str	r3, [r7, #24]
        temp &= ~((uint32_t)iocurrent);
 8002546:	693b      	ldr	r3, [r7, #16]
 8002548:	43db      	mvns	r3, r3
 800254a:	69ba      	ldr	r2, [r7, #24]
 800254c:	4013      	ands	r3, r2
 800254e:	61bb      	str	r3, [r7, #24]
        if ((GPIO_Init->Mode & EXTI_IT) != 0x00u)
 8002550:	683b      	ldr	r3, [r7, #0]
 8002552:	685b      	ldr	r3, [r3, #4]
 8002554:	f403 3380 	and.w	r3, r3, #65536	@ 0x10000
 8002558:	2b00      	cmp	r3, #0
 800255a:	d003      	beq.n	8002564 <HAL_GPIO_Init+0x300>
        {
          temp |= iocurrent;
 800255c:	69ba      	ldr	r2, [r7, #24]
 800255e:	693b      	ldr	r3, [r7, #16]
 8002560:	4313      	orrs	r3, r2
 8002562:	61bb      	str	r3, [r7, #24]
        }
        EXTI->IMR = temp;
 8002564:	4a14      	ldr	r2, [pc, #80]	@ (80025b8 <HAL_GPIO_Init+0x354>)
 8002566:	69bb      	ldr	r3, [r7, #24]
 8002568:	6013      	str	r3, [r2, #0]
  for (position = 0; position < GPIO_NUMBER; position++)
 800256a:	69fb      	ldr	r3, [r7, #28]
 800256c:	3301      	adds	r3, #1
 800256e:	61fb      	str	r3, [r7, #28]
 8002570:	69fb      	ldr	r3, [r7, #28]
 8002572:	2b0f      	cmp	r3, #15
 8002574:	f67f ae86 	bls.w	8002284 <HAL_GPIO_Init+0x20>
      }
    }
  }
}
 8002578:	bf00      	nop
 800257a:	bf00      	nop
 800257c:	3724      	adds	r7, #36	@ 0x24
 800257e:	46bd      	mov	sp, r7
 8002580:	f85d 7b04 	ldr.w	r7, [sp], #4
 8002584:	4770      	bx	lr
 8002586:	bf00      	nop
 8002588:	40023800 	.word	0x40023800
 800258c:	40013800 	.word	0x40013800
 8002590:	40020000 	.word	0x40020000
 8002594:	40020400 	.word	0x40020400
 8002598:	40020800 	.word	0x40020800
 800259c:	40020c00 	.word	0x40020c00
 80025a0:	40021000 	.word	0x40021000
 80025a4:	40021400 	.word	0x40021400
 80025a8:	40021800 	.word	0x40021800
 80025ac:	40021c00 	.word	0x40021c00
 80025b0:	40022000 	.word	0x40022000
 80025b4:	40022400 	.word	0x40022400
 80025b8:	40013c00 	.word	0x40013c00

080025bc <HAL_GPIO_ReadPin>:
  * @param  GPIO_Pin specifies the port bit to read.
  *         This parameter can be any combination of GPIO_PIN_x where x can be (0..15).
  * @retval The input port pin value.
  */
GPIO_PinState HAL_GPIO_ReadPin(GPIO_TypeDef *GPIOx, uint16_t GPIO_Pin)
{
 80025bc:	b480      	push	{r7}
 80025be:	b085      	sub	sp, #20
 80025c0:	af00      	add	r7, sp, #0
 80025c2:	6078      	str	r0, [r7, #4]
 80025c4:	460b      	mov	r3, r1
 80025c6:	807b      	strh	r3, [r7, #2]
  GPIO_PinState bitstatus;

  /* Check the parameters */
  assert_param(IS_GPIO_PIN(GPIO_Pin));

  if ((GPIOx->IDR & GPIO_Pin) != (uint32_t)GPIO_PIN_RESET)
 80025c8:	687b      	ldr	r3, [r7, #4]
 80025ca:	691a      	ldr	r2, [r3, #16]
 80025cc:	887b      	ldrh	r3, [r7, #2]
 80025ce:	4013      	ands	r3, r2
 80025d0:	2b00      	cmp	r3, #0
 80025d2:	d002      	beq.n	80025da <HAL_GPIO_ReadPin+0x1e>
  {
    bitstatus = GPIO_PIN_SET;
 80025d4:	2301      	movs	r3, #1
 80025d6:	73fb      	strb	r3, [r7, #15]
 80025d8:	e001      	b.n	80025de <HAL_GPIO_ReadPin+0x22>
  }
  else
  {
    bitstatus = GPIO_PIN_RESET;
 80025da:	2300      	movs	r3, #0
 80025dc:	73fb      	strb	r3, [r7, #15]
  }
  return bitstatus;
 80025de:	7bfb      	ldrb	r3, [r7, #15]
}
 80025e0:	4618      	mov	r0, r3
 80025e2:	3714      	adds	r7, #20
 80025e4:	46bd      	mov	sp, r7
 80025e6:	f85d 7b04 	ldr.w	r7, [sp], #4
 80025ea:	4770      	bx	lr

080025ec <HAL_GPIO_WritePin>:
  *            @arg GPIO_PIN_RESET: to clear the port pin
  *            @arg GPIO_PIN_SET: to set the port pin
  * @retval None
  */
void HAL_GPIO_WritePin(GPIO_TypeDef *GPIOx, uint16_t GPIO_Pin, GPIO_PinState PinState)
{
 80025ec:	b480      	push	{r7}
 80025ee:	b083      	sub	sp, #12
 80025f0:	af00      	add	r7, sp, #0
 80025f2:	6078      	str	r0, [r7, #4]
 80025f4:	460b      	mov	r3, r1
 80025f6:	807b      	strh	r3, [r7, #2]
 80025f8:	4613      	mov	r3, r2
 80025fa:	707b      	strb	r3, [r7, #1]
  /* Check the parameters */
  assert_param(IS_GPIO_PIN(GPIO_Pin));
  assert_param(IS_GPIO_PIN_ACTION(PinState));

  if (PinState != GPIO_PIN_RESET)
 80025fc:	787b      	ldrb	r3, [r7, #1]
 80025fe:	2b00      	cmp	r3, #0
 8002600:	d003      	beq.n	800260a <HAL_GPIO_WritePin+0x1e>
  {
    GPIOx->BSRR = GPIO_Pin;
 8002602:	887a      	ldrh	r2, [r7, #2]
 8002604:	687b      	ldr	r3, [r7, #4]
 8002606:	619a      	str	r2, [r3, #24]
  }
  else
  {
    GPIOx->BSRR = (uint32_t)GPIO_Pin << 16;
  }
}
 8002608:	e003      	b.n	8002612 <HAL_GPIO_WritePin+0x26>
    GPIOx->BSRR = (uint32_t)GPIO_Pin << 16;
 800260a:	887b      	ldrh	r3, [r7, #2]
 800260c:	041a      	lsls	r2, r3, #16
 800260e:	687b      	ldr	r3, [r7, #4]
 8002610:	619a      	str	r2, [r3, #24]
}
 8002612:	bf00      	nop
 8002614:	370c      	adds	r7, #12
 8002616:	46bd      	mov	sp, r7
 8002618:	f85d 7b04 	ldr.w	r7, [sp], #4
 800261c:	4770      	bx	lr

0800261e <HAL_GPIO_TogglePin>:
  * @param  GPIO_Pin Specifies the pins to be toggled.
  *         This parameter can be any combination of GPIO_PIN_x where x can be (0..15).
  * @retval None
  */
void HAL_GPIO_TogglePin(GPIO_TypeDef *GPIOx, uint16_t GPIO_Pin)
{
 800261e:	b480      	push	{r7}
 8002620:	b085      	sub	sp, #20
 8002622:	af00      	add	r7, sp, #0
 8002624:	6078      	str	r0, [r7, #4]
 8002626:	460b      	mov	r3, r1
 8002628:	807b      	strh	r3, [r7, #2]

  /* Check the parameters */
  assert_param(IS_GPIO_PIN(GPIO_Pin));

  /* get current Output Data Register value */
  odr = GPIOx->ODR;
 800262a:	687b      	ldr	r3, [r7, #4]
 800262c:	695b      	ldr	r3, [r3, #20]
 800262e:	60fb      	str	r3, [r7, #12]

  /* Set selected pins that were at low level, and reset ones that were high */
  GPIOx->BSRR = ((odr & GPIO_Pin) << GPIO_NUMBER) | (~odr & GPIO_Pin);
 8002630:	887a      	ldrh	r2, [r7, #2]
 8002632:	68fb      	ldr	r3, [r7, #12]
 8002634:	4013      	ands	r3, r2
 8002636:	041a      	lsls	r2, r3, #16
 8002638:	68fb      	ldr	r3, [r7, #12]
 800263a:	43d9      	mvns	r1, r3
 800263c:	887b      	ldrh	r3, [r7, #2]
 800263e:	400b      	ands	r3, r1
 8002640:	431a      	orrs	r2, r3
 8002642:	687b      	ldr	r3, [r7, #4]
 8002644:	619a      	str	r2, [r3, #24]
}
 8002646:	bf00      	nop
 8002648:	3714      	adds	r7, #20
 800264a:	46bd      	mov	sp, r7
 800264c:	f85d 7b04 	ldr.w	r7, [sp], #4
 8002650:	4770      	bx	lr
	...

08002654 <HAL_RCC_OscConfig>:
  *         supported by this function. User should request a transition to HSE Off
  *         first and then HSE On or HSE Bypass.
  * @retval HAL status
  */
HAL_StatusTypeDef HAL_RCC_OscConfig(const RCC_OscInitTypeDef  *RCC_OscInitStruct)
{
 8002654:	b580      	push	{r7, lr}
 8002656:	b086      	sub	sp, #24
 8002658:	af00      	add	r7, sp, #0
 800265a:	6078      	str	r0, [r7, #4]
  uint32_t tickstart;
  uint32_t pll_config;
  FlagStatus pwrclkchanged = RESET;
 800265c:	2300      	movs	r3, #0
 800265e:	75fb      	strb	r3, [r7, #23]

  /* Check Null pointer */
  if (RCC_OscInitStruct == NULL)
 8002660:	687b      	ldr	r3, [r7, #4]
 8002662:	2b00      	cmp	r3, #0
 8002664:	d101      	bne.n	800266a <HAL_RCC_OscConfig+0x16>
  {
    return HAL_ERROR;
 8002666:	2301      	movs	r3, #1
 8002668:	e291      	b.n	8002b8e <HAL_RCC_OscConfig+0x53a>

  /* Check the parameters */
  assert_param(IS_RCC_OSCILLATORTYPE(RCC_OscInitStruct->OscillatorType));

  /*------------------------------- HSE Configuration ------------------------*/
  if (((RCC_OscInitStruct->OscillatorType) & RCC_OSCILLATORTYPE_HSE) == RCC_OSCILLATORTYPE_HSE)
 800266a:	687b      	ldr	r3, [r7, #4]
 800266c:	681b      	ldr	r3, [r3, #0]
 800266e:	f003 0301 	and.w	r3, r3, #1
 8002672:	2b00      	cmp	r3, #0
 8002674:	f000 8087 	beq.w	8002786 <HAL_RCC_OscConfig+0x132>
  {
    /* Check the parameters */
    assert_param(IS_RCC_HSE(RCC_OscInitStruct->HSEState));
    /* When the HSE is used as system clock or clock source for PLL, It can not be disabled */
    if ((__HAL_RCC_GET_SYSCLK_SOURCE() == RCC_SYSCLKSOURCE_STATUS_HSE)
 8002678:	4b96      	ldr	r3, [pc, #600]	@ (80028d4 <HAL_RCC_OscConfig+0x280>)
 800267a:	689b      	ldr	r3, [r3, #8]
 800267c:	f003 030c 	and.w	r3, r3, #12
 8002680:	2b04      	cmp	r3, #4
 8002682:	d00c      	beq.n	800269e <HAL_RCC_OscConfig+0x4a>
        || ((__HAL_RCC_GET_SYSCLK_SOURCE() == RCC_SYSCLKSOURCE_STATUS_PLLCLK) && ((RCC->PLLCFGR & RCC_PLLCFGR_PLLSRC) == RCC_PLLCFGR_PLLSRC_HSE)))
 8002684:	4b93      	ldr	r3, [pc, #588]	@ (80028d4 <HAL_RCC_OscConfig+0x280>)
 8002686:	689b      	ldr	r3, [r3, #8]
 8002688:	f003 030c 	and.w	r3, r3, #12
 800268c:	2b08      	cmp	r3, #8
 800268e:	d112      	bne.n	80026b6 <HAL_RCC_OscConfig+0x62>
 8002690:	4b90      	ldr	r3, [pc, #576]	@ (80028d4 <HAL_RCC_OscConfig+0x280>)
 8002692:	685b      	ldr	r3, [r3, #4]
 8002694:	f403 0380 	and.w	r3, r3, #4194304	@ 0x400000
 8002698:	f5b3 0f80 	cmp.w	r3, #4194304	@ 0x400000
 800269c:	d10b      	bne.n	80026b6 <HAL_RCC_OscConfig+0x62>
    {
      if ((__HAL_RCC_GET_FLAG(RCC_FLAG_HSERDY) != RESET) && (RCC_OscInitStruct->HSEState == RCC_HSE_OFF))
 800269e:	4b8d      	ldr	r3, [pc, #564]	@ (80028d4 <HAL_RCC_OscConfig+0x280>)
 80026a0:	681b      	ldr	r3, [r3, #0]
 80026a2:	f403 3300 	and.w	r3, r3, #131072	@ 0x20000
 80026a6:	2b00      	cmp	r3, #0
 80026a8:	d06c      	beq.n	8002784 <HAL_RCC_OscConfig+0x130>
 80026aa:	687b      	ldr	r3, [r7, #4]
 80026ac:	685b      	ldr	r3, [r3, #4]
 80026ae:	2b00      	cmp	r3, #0
 80026b0:	d168      	bne.n	8002784 <HAL_RCC_OscConfig+0x130>
      {
        return HAL_ERROR;
 80026b2:	2301      	movs	r3, #1
 80026b4:	e26b      	b.n	8002b8e <HAL_RCC_OscConfig+0x53a>
      }
    }
    else
    {
      /* Set the new HSE configuration ---------------------------------------*/
      __HAL_RCC_HSE_CONFIG(RCC_OscInitStruct->HSEState);
 80026b6:	687b      	ldr	r3, [r7, #4]
 80026b8:	685b      	ldr	r3, [r3, #4]
 80026ba:	f5b3 3f80 	cmp.w	r3, #65536	@ 0x10000
 80026be:	d106      	bne.n	80026ce <HAL_RCC_OscConfig+0x7a>
 80026c0:	4b84      	ldr	r3, [pc, #528]	@ (80028d4 <HAL_RCC_OscConfig+0x280>)
 80026c2:	681b      	ldr	r3, [r3, #0]
 80026c4:	4a83      	ldr	r2, [pc, #524]	@ (80028d4 <HAL_RCC_OscConfig+0x280>)
 80026c6:	f443 3380 	orr.w	r3, r3, #65536	@ 0x10000
 80026ca:	6013      	str	r3, [r2, #0]
 80026cc:	e02e      	b.n	800272c <HAL_RCC_OscConfig+0xd8>
 80026ce:	687b      	ldr	r3, [r7, #4]
 80026d0:	685b      	ldr	r3, [r3, #4]
 80026d2:	2b00      	cmp	r3, #0
 80026d4:	d10c      	bne.n	80026f0 <HAL_RCC_OscConfig+0x9c>
 80026d6:	4b7f      	ldr	r3, [pc, #508]	@ (80028d4 <HAL_RCC_OscConfig+0x280>)
 80026d8:	681b      	ldr	r3, [r3, #0]
 80026da:	4a7e      	ldr	r2, [pc, #504]	@ (80028d4 <HAL_RCC_OscConfig+0x280>)
 80026dc:	f423 3380 	bic.w	r3, r3, #65536	@ 0x10000
 80026e0:	6013      	str	r3, [r2, #0]
 80026e2:	4b7c      	ldr	r3, [pc, #496]	@ (80028d4 <HAL_RCC_OscConfig+0x280>)
 80026e4:	681b      	ldr	r3, [r3, #0]
 80026e6:	4a7b      	ldr	r2, [pc, #492]	@ (80028d4 <HAL_RCC_OscConfig+0x280>)
 80026e8:	f423 2380 	bic.w	r3, r3, #262144	@ 0x40000
 80026ec:	6013      	str	r3, [r2, #0]
 80026ee:	e01d      	b.n	800272c <HAL_RCC_OscConfig+0xd8>
 80026f0:	687b      	ldr	r3, [r7, #4]
 80026f2:	685b      	ldr	r3, [r3, #4]
 80026f4:	f5b3 2fa0 	cmp.w	r3, #327680	@ 0x50000
 80026f8:	d10c      	bne.n	8002714 <HAL_RCC_OscConfig+0xc0>
 80026fa:	4b76      	ldr	r3, [pc, #472]	@ (80028d4 <HAL_RCC_OscConfig+0x280>)
 80026fc:	681b      	ldr	r3, [r3, #0]
 80026fe:	4a75      	ldr	r2, [pc, #468]	@ (80028d4 <HAL_RCC_OscConfig+0x280>)
 8002700:	f443 2380 	orr.w	r3, r3, #262144	@ 0x40000
 8002704:	6013      	str	r3, [r2, #0]
 8002706:	4b73      	ldr	r3, [pc, #460]	@ (80028d4 <HAL_RCC_OscConfig+0x280>)
 8002708:	681b      	ldr	r3, [r3, #0]
 800270a:	4a72      	ldr	r2, [pc, #456]	@ (80028d4 <HAL_RCC_OscConfig+0x280>)
 800270c:	f443 3380 	orr.w	r3, r3, #65536	@ 0x10000
 8002710:	6013      	str	r3, [r2, #0]
 8002712:	e00b      	b.n	800272c <HAL_RCC_OscConfig+0xd8>
 8002714:	4b6f      	ldr	r3, [pc, #444]	@ (80028d4 <HAL_RCC_OscConfig+0x280>)
 8002716:	681b      	ldr	r3, [r3, #0]
 8002718:	4a6e      	ldr	r2, [pc, #440]	@ (80028d4 <HAL_RCC_OscConfig+0x280>)
 800271a:	f423 3380 	bic.w	r3, r3, #65536	@ 0x10000
 800271e:	6013      	str	r3, [r2, #0]
 8002720:	4b6c      	ldr	r3, [pc, #432]	@ (80028d4 <HAL_RCC_OscConfig+0x280>)
 8002722:	681b      	ldr	r3, [r3, #0]
 8002724:	4a6b      	ldr	r2, [pc, #428]	@ (80028d4 <HAL_RCC_OscConfig+0x280>)
 8002726:	f423 2380 	bic.w	r3, r3, #262144	@ 0x40000
 800272a:	6013      	str	r3, [r2, #0]

      /* Check the HSE State */
      if (RCC_OscInitStruct->HSEState != RCC_HSE_OFF)
 800272c:	687b      	ldr	r3, [r7, #4]
 800272e:	685b      	ldr	r3, [r3, #4]
 8002730:	2b00      	cmp	r3, #0
 8002732:	d013      	beq.n	800275c <HAL_RCC_OscConfig+0x108>
      {
        /* Get Start Tick*/
        tickstart = HAL_GetTick();
 8002734:	f7ff f94a 	bl	80019cc <HAL_GetTick>
 8002738:	6138      	str	r0, [r7, #16]

        /* Wait till HSE is ready */
        while (__HAL_RCC_GET_FLAG(RCC_FLAG_HSERDY) == RESET)
 800273a:	e008      	b.n	800274e <HAL_RCC_OscConfig+0xfa>
        {
          if ((HAL_GetTick() - tickstart) > HSE_TIMEOUT_VALUE)
 800273c:	f7ff f946 	bl	80019cc <HAL_GetTick>
 8002740:	4602      	mov	r2, r0
 8002742:	693b      	ldr	r3, [r7, #16]
 8002744:	1ad3      	subs	r3, r2, r3
 8002746:	2b64      	cmp	r3, #100	@ 0x64
 8002748:	d901      	bls.n	800274e <HAL_RCC_OscConfig+0xfa>
          {
            return HAL_TIMEOUT;
 800274a:	2303      	movs	r3, #3
 800274c:	e21f      	b.n	8002b8e <HAL_RCC_OscConfig+0x53a>
        while (__HAL_RCC_GET_FLAG(RCC_FLAG_HSERDY) == RESET)
 800274e:	4b61      	ldr	r3, [pc, #388]	@ (80028d4 <HAL_RCC_OscConfig+0x280>)
 8002750:	681b      	ldr	r3, [r3, #0]
 8002752:	f403 3300 	and.w	r3, r3, #131072	@ 0x20000
 8002756:	2b00      	cmp	r3, #0
 8002758:	d0f0      	beq.n	800273c <HAL_RCC_OscConfig+0xe8>
 800275a:	e014      	b.n	8002786 <HAL_RCC_OscConfig+0x132>
        }
      }
      else
      {
        /* Get Start Tick*/
        tickstart = HAL_GetTick();
 800275c:	f7ff f936 	bl	80019cc <HAL_GetTick>
 8002760:	6138      	str	r0, [r7, #16]

        /* Wait till HSE is bypassed or disabled */
        while (__HAL_RCC_GET_FLAG(RCC_FLAG_HSERDY) != RESET)
 8002762:	e008      	b.n	8002776 <HAL_RCC_OscConfig+0x122>
        {
          if ((HAL_GetTick() - tickstart) > HSE_TIMEOUT_VALUE)
 8002764:	f7ff f932 	bl	80019cc <HAL_GetTick>
 8002768:	4602      	mov	r2, r0
 800276a:	693b      	ldr	r3, [r7, #16]
 800276c:	1ad3      	subs	r3, r2, r3
 800276e:	2b64      	cmp	r3, #100	@ 0x64
 8002770:	d901      	bls.n	8002776 <HAL_RCC_OscConfig+0x122>
          {
            return HAL_TIMEOUT;
 8002772:	2303      	movs	r3, #3
 8002774:	e20b      	b.n	8002b8e <HAL_RCC_OscConfig+0x53a>
        while (__HAL_RCC_GET_FLAG(RCC_FLAG_HSERDY) != RESET)
 8002776:	4b57      	ldr	r3, [pc, #348]	@ (80028d4 <HAL_RCC_OscConfig+0x280>)
 8002778:	681b      	ldr	r3, [r3, #0]
 800277a:	f403 3300 	and.w	r3, r3, #131072	@ 0x20000
 800277e:	2b00      	cmp	r3, #0
 8002780:	d1f0      	bne.n	8002764 <HAL_RCC_OscConfig+0x110>
 8002782:	e000      	b.n	8002786 <HAL_RCC_OscConfig+0x132>
      if ((__HAL_RCC_GET_FLAG(RCC_FLAG_HSERDY) != RESET) && (RCC_OscInitStruct->HSEState == RCC_HSE_OFF))
 8002784:	bf00      	nop
        }
      }
    }
  }
  /*----------------------------- HSI Configuration --------------------------*/
  if (((RCC_OscInitStruct->OscillatorType) & RCC_OSCILLATORTYPE_HSI) == RCC_OSCILLATORTYPE_HSI)
 8002786:	687b      	ldr	r3, [r7, #4]
 8002788:	681b      	ldr	r3, [r3, #0]
 800278a:	f003 0302 	and.w	r3, r3, #2
 800278e:	2b00      	cmp	r3, #0
 8002790:	d069      	beq.n	8002866 <HAL_RCC_OscConfig+0x212>
    /* Check the parameters */
    assert_param(IS_RCC_HSI(RCC_OscInitStruct->HSIState));
    assert_param(IS_RCC_CALIBRATION_VALUE(RCC_OscInitStruct->HSICalibrationValue));

    /* Check if HSI is used as system clock or as PLL source when PLL is selected as system clock */
    if ((__HAL_RCC_GET_SYSCLK_SOURCE() == RCC_SYSCLKSOURCE_STATUS_HSI)
 8002792:	4b50      	ldr	r3, [pc, #320]	@ (80028d4 <HAL_RCC_OscConfig+0x280>)
 8002794:	689b      	ldr	r3, [r3, #8]
 8002796:	f003 030c 	and.w	r3, r3, #12
 800279a:	2b00      	cmp	r3, #0
 800279c:	d00b      	beq.n	80027b6 <HAL_RCC_OscConfig+0x162>
        || ((__HAL_RCC_GET_SYSCLK_SOURCE() == RCC_SYSCLKSOURCE_STATUS_PLLCLK) && ((RCC->PLLCFGR & RCC_PLLCFGR_PLLSRC) == RCC_PLLCFGR_PLLSRC_HSI)))
 800279e:	4b4d      	ldr	r3, [pc, #308]	@ (80028d4 <HAL_RCC_OscConfig+0x280>)
 80027a0:	689b      	ldr	r3, [r3, #8]
 80027a2:	f003 030c 	and.w	r3, r3, #12
 80027a6:	2b08      	cmp	r3, #8
 80027a8:	d11c      	bne.n	80027e4 <HAL_RCC_OscConfig+0x190>
 80027aa:	4b4a      	ldr	r3, [pc, #296]	@ (80028d4 <HAL_RCC_OscConfig+0x280>)
 80027ac:	685b      	ldr	r3, [r3, #4]
 80027ae:	f403 0380 	and.w	r3, r3, #4194304	@ 0x400000
 80027b2:	2b00      	cmp	r3, #0
 80027b4:	d116      	bne.n	80027e4 <HAL_RCC_OscConfig+0x190>
    {
      /* When HSI is used as system clock it will not disabled */
      if ((__HAL_RCC_GET_FLAG(RCC_FLAG_HSIRDY) != RESET) && (RCC_OscInitStruct->HSIState != RCC_HSI_ON))
 80027b6:	4b47      	ldr	r3, [pc, #284]	@ (80028d4 <HAL_RCC_OscConfig+0x280>)
 80027b8:	681b      	ldr	r3, [r3, #0]
 80027ba:	f003 0302 	and.w	r3, r3, #2
 80027be:	2b00      	cmp	r3, #0
 80027c0:	d005      	beq.n	80027ce <HAL_RCC_OscConfig+0x17a>
 80027c2:	687b      	ldr	r3, [r7, #4]
 80027c4:	68db      	ldr	r3, [r3, #12]
 80027c6:	2b01      	cmp	r3, #1
 80027c8:	d001      	beq.n	80027ce <HAL_RCC_OscConfig+0x17a>
      {
        return HAL_ERROR;
 80027ca:	2301      	movs	r3, #1
 80027cc:	e1df      	b.n	8002b8e <HAL_RCC_OscConfig+0x53a>
      }
      /* Otherwise, just the calibration is allowed */
      else
      {
        /* Adjusts the Internal High Speed oscillator (HSI) calibration value.*/
        __HAL_RCC_HSI_CALIBRATIONVALUE_ADJUST(RCC_OscInitStruct->HSICalibrationValue);
 80027ce:	4b41      	ldr	r3, [pc, #260]	@ (80028d4 <HAL_RCC_OscConfig+0x280>)
 80027d0:	681b      	ldr	r3, [r3, #0]
 80027d2:	f023 02f8 	bic.w	r2, r3, #248	@ 0xf8
 80027d6:	687b      	ldr	r3, [r7, #4]
 80027d8:	691b      	ldr	r3, [r3, #16]
 80027da:	00db      	lsls	r3, r3, #3
 80027dc:	493d      	ldr	r1, [pc, #244]	@ (80028d4 <HAL_RCC_OscConfig+0x280>)
 80027de:	4313      	orrs	r3, r2
 80027e0:	600b      	str	r3, [r1, #0]
      if ((__HAL_RCC_GET_FLAG(RCC_FLAG_HSIRDY) != RESET) && (RCC_OscInitStruct->HSIState != RCC_HSI_ON))
 80027e2:	e040      	b.n	8002866 <HAL_RCC_OscConfig+0x212>
      }
    }
    else
    {
      /* Check the HSI State */
      if ((RCC_OscInitStruct->HSIState) != RCC_HSI_OFF)
 80027e4:	687b      	ldr	r3, [r7, #4]
 80027e6:	68db      	ldr	r3, [r3, #12]
 80027e8:	2b00      	cmp	r3, #0
 80027ea:	d023      	beq.n	8002834 <HAL_RCC_OscConfig+0x1e0>
      {
        /* Enable the Internal High Speed oscillator (HSI). */
        __HAL_RCC_HSI_ENABLE();
 80027ec:	4b39      	ldr	r3, [pc, #228]	@ (80028d4 <HAL_RCC_OscConfig+0x280>)
 80027ee:	681b      	ldr	r3, [r3, #0]
 80027f0:	4a38      	ldr	r2, [pc, #224]	@ (80028d4 <HAL_RCC_OscConfig+0x280>)
 80027f2:	f043 0301 	orr.w	r3, r3, #1
 80027f6:	6013      	str	r3, [r2, #0]

        /* Get Start Tick*/
        tickstart = HAL_GetTick();
 80027f8:	f7ff f8e8 	bl	80019cc <HAL_GetTick>
 80027fc:	6138      	str	r0, [r7, #16]

        /* Wait till HSI is ready */
        while (__HAL_RCC_GET_FLAG(RCC_FLAG_HSIRDY) == RESET)
 80027fe:	e008      	b.n	8002812 <HAL_RCC_OscConfig+0x1be>
        {
          if ((HAL_GetTick() - tickstart) > HSI_TIMEOUT_VALUE)
 8002800:	f7ff f8e4 	bl	80019cc <HAL_GetTick>
 8002804:	4602      	mov	r2, r0
 8002806:	693b      	ldr	r3, [r7, #16]
 8002808:	1ad3      	subs	r3, r2, r3
 800280a:	2b02      	cmp	r3, #2
 800280c:	d901      	bls.n	8002812 <HAL_RCC_OscConfig+0x1be>
          {
            return HAL_TIMEOUT;
 800280e:	2303      	movs	r3, #3
 8002810:	e1bd      	b.n	8002b8e <HAL_RCC_OscConfig+0x53a>
        while (__HAL_RCC_GET_FLAG(RCC_FLAG_HSIRDY) == RESET)
 8002812:	4b30      	ldr	r3, [pc, #192]	@ (80028d4 <HAL_RCC_OscConfig+0x280>)
 8002814:	681b      	ldr	r3, [r3, #0]
 8002816:	f003 0302 	and.w	r3, r3, #2
 800281a:	2b00      	cmp	r3, #0
 800281c:	d0f0      	beq.n	8002800 <HAL_RCC_OscConfig+0x1ac>
          }
        }

        /* Adjusts the Internal High Speed oscillator (HSI) calibration value.*/
        __HAL_RCC_HSI_CALIBRATIONVALUE_ADJUST(RCC_OscInitStruct->HSICalibrationValue);
 800281e:	4b2d      	ldr	r3, [pc, #180]	@ (80028d4 <HAL_RCC_OscConfig+0x280>)
 8002820:	681b      	ldr	r3, [r3, #0]
 8002822:	f023 02f8 	bic.w	r2, r3, #248	@ 0xf8
 8002826:	687b      	ldr	r3, [r7, #4]
 8002828:	691b      	ldr	r3, [r3, #16]
 800282a:	00db      	lsls	r3, r3, #3
 800282c:	4929      	ldr	r1, [pc, #164]	@ (80028d4 <HAL_RCC_OscConfig+0x280>)
 800282e:	4313      	orrs	r3, r2
 8002830:	600b      	str	r3, [r1, #0]
 8002832:	e018      	b.n	8002866 <HAL_RCC_OscConfig+0x212>
      }
      else
      {
        /* Disable the Internal High Speed oscillator (HSI). */
        __HAL_RCC_HSI_DISABLE();
 8002834:	4b27      	ldr	r3, [pc, #156]	@ (80028d4 <HAL_RCC_OscConfig+0x280>)
 8002836:	681b      	ldr	r3, [r3, #0]
 8002838:	4a26      	ldr	r2, [pc, #152]	@ (80028d4 <HAL_RCC_OscConfig+0x280>)
 800283a:	f023 0301 	bic.w	r3, r3, #1
 800283e:	6013      	str	r3, [r2, #0]

        /* Get Start Tick*/
        tickstart = HAL_GetTick();
 8002840:	f7ff f8c4 	bl	80019cc <HAL_GetTick>
 8002844:	6138      	str	r0, [r7, #16]

        /* Wait till HSI is ready */
        while (__HAL_RCC_GET_FLAG(RCC_FLAG_HSIRDY) != RESET)
 8002846:	e008      	b.n	800285a <HAL_RCC_OscConfig+0x206>
        {
          if ((HAL_GetTick() - tickstart) > HSI_TIMEOUT_VALUE)
 8002848:	f7ff f8c0 	bl	80019cc <HAL_GetTick>
 800284c:	4602      	mov	r2, r0
 800284e:	693b      	ldr	r3, [r7, #16]
 8002850:	1ad3      	subs	r3, r2, r3
 8002852:	2b02      	cmp	r3, #2
 8002854:	d901      	bls.n	800285a <HAL_RCC_OscConfig+0x206>
          {
            return HAL_TIMEOUT;
 8002856:	2303      	movs	r3, #3
 8002858:	e199      	b.n	8002b8e <HAL_RCC_OscConfig+0x53a>
        while (__HAL_RCC_GET_FLAG(RCC_FLAG_HSIRDY) != RESET)
 800285a:	4b1e      	ldr	r3, [pc, #120]	@ (80028d4 <HAL_RCC_OscConfig+0x280>)
 800285c:	681b      	ldr	r3, [r3, #0]
 800285e:	f003 0302 	and.w	r3, r3, #2
 8002862:	2b00      	cmp	r3, #0
 8002864:	d1f0      	bne.n	8002848 <HAL_RCC_OscConfig+0x1f4>
        }
      }
    }
  }
  /*------------------------------ LSI Configuration -------------------------*/
  if (((RCC_OscInitStruct->OscillatorType) & RCC_OSCILLATORTYPE_LSI) == RCC_OSCILLATORTYPE_LSI)
 8002866:	687b      	ldr	r3, [r7, #4]
 8002868:	681b      	ldr	r3, [r3, #0]
 800286a:	f003 0308 	and.w	r3, r3, #8
 800286e:	2b00      	cmp	r3, #0
 8002870:	d038      	beq.n	80028e4 <HAL_RCC_OscConfig+0x290>
  {
    /* Check the parameters */
    assert_param(IS_RCC_LSI(RCC_OscInitStruct->LSIState));

    /* Check the LSI State */
    if ((RCC_OscInitStruct->LSIState) != RCC_LSI_OFF)
 8002872:	687b      	ldr	r3, [r7, #4]
 8002874:	695b      	ldr	r3, [r3, #20]
 8002876:	2b00      	cmp	r3, #0
 8002878:	d019      	beq.n	80028ae <HAL_RCC_OscConfig+0x25a>
    {
      /* Enable the Internal Low Speed oscillator (LSI). */
      __HAL_RCC_LSI_ENABLE();
 800287a:	4b16      	ldr	r3, [pc, #88]	@ (80028d4 <HAL_RCC_OscConfig+0x280>)
 800287c:	6f5b      	ldr	r3, [r3, #116]	@ 0x74
 800287e:	4a15      	ldr	r2, [pc, #84]	@ (80028d4 <HAL_RCC_OscConfig+0x280>)
 8002880:	f043 0301 	orr.w	r3, r3, #1
 8002884:	6753      	str	r3, [r2, #116]	@ 0x74

      /* Get Start Tick*/
      tickstart = HAL_GetTick();
 8002886:	f7ff f8a1 	bl	80019cc <HAL_GetTick>
 800288a:	6138      	str	r0, [r7, #16]

      /* Wait till LSI is ready */
      while (__HAL_RCC_GET_FLAG(RCC_FLAG_LSIRDY) == RESET)
 800288c:	e008      	b.n	80028a0 <HAL_RCC_OscConfig+0x24c>
      {
        if ((HAL_GetTick() - tickstart) > LSI_TIMEOUT_VALUE)
 800288e:	f7ff f89d 	bl	80019cc <HAL_GetTick>
 8002892:	4602      	mov	r2, r0
 8002894:	693b      	ldr	r3, [r7, #16]
 8002896:	1ad3      	subs	r3, r2, r3
 8002898:	2b02      	cmp	r3, #2
 800289a:	d901      	bls.n	80028a0 <HAL_RCC_OscConfig+0x24c>
        {
          return HAL_TIMEOUT;
 800289c:	2303      	movs	r3, #3
 800289e:	e176      	b.n	8002b8e <HAL_RCC_OscConfig+0x53a>
      while (__HAL_RCC_GET_FLAG(RCC_FLAG_LSIRDY) == RESET)
 80028a0:	4b0c      	ldr	r3, [pc, #48]	@ (80028d4 <HAL_RCC_OscConfig+0x280>)
 80028a2:	6f5b      	ldr	r3, [r3, #116]	@ 0x74
 80028a4:	f003 0302 	and.w	r3, r3, #2
 80028a8:	2b00      	cmp	r3, #0
 80028aa:	d0f0      	beq.n	800288e <HAL_RCC_OscConfig+0x23a>
 80028ac:	e01a      	b.n	80028e4 <HAL_RCC_OscConfig+0x290>
      }
    }
    else
    {
      /* Disable the Internal Low Speed oscillator (LSI). */
      __HAL_RCC_LSI_DISABLE();
 80028ae:	4b09      	ldr	r3, [pc, #36]	@ (80028d4 <HAL_RCC_OscConfig+0x280>)
 80028b0:	6f5b      	ldr	r3, [r3, #116]	@ 0x74
 80028b2:	4a08      	ldr	r2, [pc, #32]	@ (80028d4 <HAL_RCC_OscConfig+0x280>)
 80028b4:	f023 0301 	bic.w	r3, r3, #1
 80028b8:	6753      	str	r3, [r2, #116]	@ 0x74

      /* Get Start Tick*/
      tickstart = HAL_GetTick();
 80028ba:	f7ff f887 	bl	80019cc <HAL_GetTick>
 80028be:	6138      	str	r0, [r7, #16]

      /* Wait till LSI is ready */
      while (__HAL_RCC_GET_FLAG(RCC_FLAG_LSIRDY) != RESET)
 80028c0:	e00a      	b.n	80028d8 <HAL_RCC_OscConfig+0x284>
      {
        if ((HAL_GetTick() - tickstart) > LSI_TIMEOUT_VALUE)
 80028c2:	f7ff f883 	bl	80019cc <HAL_GetTick>
 80028c6:	4602      	mov	r2, r0
 80028c8:	693b      	ldr	r3, [r7, #16]
 80028ca:	1ad3      	subs	r3, r2, r3
 80028cc:	2b02      	cmp	r3, #2
 80028ce:	d903      	bls.n	80028d8 <HAL_RCC_OscConfig+0x284>
        {
          return HAL_TIMEOUT;
 80028d0:	2303      	movs	r3, #3
 80028d2:	e15c      	b.n	8002b8e <HAL_RCC_OscConfig+0x53a>
 80028d4:	40023800 	.word	0x40023800
      while (__HAL_RCC_GET_FLAG(RCC_FLAG_LSIRDY) != RESET)
 80028d8:	4b91      	ldr	r3, [pc, #580]	@ (8002b20 <HAL_RCC_OscConfig+0x4cc>)
 80028da:	6f5b      	ldr	r3, [r3, #116]	@ 0x74
 80028dc:	f003 0302 	and.w	r3, r3, #2
 80028e0:	2b00      	cmp	r3, #0
 80028e2:	d1ee      	bne.n	80028c2 <HAL_RCC_OscConfig+0x26e>
        }
      }
    }
  }
  /*------------------------------ LSE Configuration -------------------------*/
  if (((RCC_OscInitStruct->OscillatorType) & RCC_OSCILLATORTYPE_LSE) == RCC_OSCILLATORTYPE_LSE)
 80028e4:	687b      	ldr	r3, [r7, #4]
 80028e6:	681b      	ldr	r3, [r3, #0]
 80028e8:	f003 0304 	and.w	r3, r3, #4
 80028ec:	2b00      	cmp	r3, #0
 80028ee:	f000 80a4 	beq.w	8002a3a <HAL_RCC_OscConfig+0x3e6>
    /* Check the parameters */
    assert_param(IS_RCC_LSE(RCC_OscInitStruct->LSEState));

    /* Update LSE configuration in Backup Domain control register    */
    /* Requires to enable write access to Backup Domain of necessary */
    if (__HAL_RCC_PWR_IS_CLK_DISABLED())
 80028f2:	4b8b      	ldr	r3, [pc, #556]	@ (8002b20 <HAL_RCC_OscConfig+0x4cc>)
 80028f4:	6c1b      	ldr	r3, [r3, #64]	@ 0x40
 80028f6:	f003 5380 	and.w	r3, r3, #268435456	@ 0x10000000
 80028fa:	2b00      	cmp	r3, #0
 80028fc:	d10d      	bne.n	800291a <HAL_RCC_OscConfig+0x2c6>
    {
      /* Enable Power Clock*/
      __HAL_RCC_PWR_CLK_ENABLE();
 80028fe:	4b88      	ldr	r3, [pc, #544]	@ (8002b20 <HAL_RCC_OscConfig+0x4cc>)
 8002900:	6c1b      	ldr	r3, [r3, #64]	@ 0x40
 8002902:	4a87      	ldr	r2, [pc, #540]	@ (8002b20 <HAL_RCC_OscConfig+0x4cc>)
 8002904:	f043 5380 	orr.w	r3, r3, #268435456	@ 0x10000000
 8002908:	6413      	str	r3, [r2, #64]	@ 0x40
 800290a:	4b85      	ldr	r3, [pc, #532]	@ (8002b20 <HAL_RCC_OscConfig+0x4cc>)
 800290c:	6c1b      	ldr	r3, [r3, #64]	@ 0x40
 800290e:	f003 5380 	and.w	r3, r3, #268435456	@ 0x10000000
 8002912:	60bb      	str	r3, [r7, #8]
 8002914:	68bb      	ldr	r3, [r7, #8]
      pwrclkchanged = SET;
 8002916:	2301      	movs	r3, #1
 8002918:	75fb      	strb	r3, [r7, #23]
    }

    if (HAL_IS_BIT_CLR(PWR->CR1, PWR_CR1_DBP))
 800291a:	4b82      	ldr	r3, [pc, #520]	@ (8002b24 <HAL_RCC_OscConfig+0x4d0>)
 800291c:	681b      	ldr	r3, [r3, #0]
 800291e:	f403 7380 	and.w	r3, r3, #256	@ 0x100
 8002922:	2b00      	cmp	r3, #0
 8002924:	d118      	bne.n	8002958 <HAL_RCC_OscConfig+0x304>
    {
      /* Enable write access to Backup domain */
      PWR->CR1 |= PWR_CR1_DBP;
 8002926:	4b7f      	ldr	r3, [pc, #508]	@ (8002b24 <HAL_RCC_OscConfig+0x4d0>)
 8002928:	681b      	ldr	r3, [r3, #0]
 800292a:	4a7e      	ldr	r2, [pc, #504]	@ (8002b24 <HAL_RCC_OscConfig+0x4d0>)
 800292c:	f443 7380 	orr.w	r3, r3, #256	@ 0x100
 8002930:	6013      	str	r3, [r2, #0]

      /* Wait for Backup domain Write protection disable */
      tickstart = HAL_GetTick();
 8002932:	f7ff f84b 	bl	80019cc <HAL_GetTick>
 8002936:	6138      	str	r0, [r7, #16]

      while (HAL_IS_BIT_CLR(PWR->CR1, PWR_CR1_DBP))
 8002938:	e008      	b.n	800294c <HAL_RCC_OscConfig+0x2f8>
      {
        if ((HAL_GetTick() - tickstart) > RCC_DBP_TIMEOUT_VALUE)
 800293a:	f7ff f847 	bl	80019cc <HAL_GetTick>
 800293e:	4602      	mov	r2, r0
 8002940:	693b      	ldr	r3, [r7, #16]
 8002942:	1ad3      	subs	r3, r2, r3
 8002944:	2b64      	cmp	r3, #100	@ 0x64
 8002946:	d901      	bls.n	800294c <HAL_RCC_OscConfig+0x2f8>
        {
          return HAL_TIMEOUT;
 8002948:	2303      	movs	r3, #3
 800294a:	e120      	b.n	8002b8e <HAL_RCC_OscConfig+0x53a>
      while (HAL_IS_BIT_CLR(PWR->CR1, PWR_CR1_DBP))
 800294c:	4b75      	ldr	r3, [pc, #468]	@ (8002b24 <HAL_RCC_OscConfig+0x4d0>)
 800294e:	681b      	ldr	r3, [r3, #0]
 8002950:	f403 7380 	and.w	r3, r3, #256	@ 0x100
 8002954:	2b00      	cmp	r3, #0
 8002956:	d0f0      	beq.n	800293a <HAL_RCC_OscConfig+0x2e6>
        }
      }
    }

    /* Set the new LSE configuration -----------------------------------------*/
    __HAL_RCC_LSE_CONFIG(RCC_OscInitStruct->LSEState);
 8002958:	687b      	ldr	r3, [r7, #4]
 800295a:	689b      	ldr	r3, [r3, #8]
 800295c:	2b01      	cmp	r3, #1
 800295e:	d106      	bne.n	800296e <HAL_RCC_OscConfig+0x31a>
 8002960:	4b6f      	ldr	r3, [pc, #444]	@ (8002b20 <HAL_RCC_OscConfig+0x4cc>)
 8002962:	6f1b      	ldr	r3, [r3, #112]	@ 0x70
 8002964:	4a6e      	ldr	r2, [pc, #440]	@ (8002b20 <HAL_RCC_OscConfig+0x4cc>)
 8002966:	f043 0301 	orr.w	r3, r3, #1
 800296a:	6713      	str	r3, [r2, #112]	@ 0x70
 800296c:	e02d      	b.n	80029ca <HAL_RCC_OscConfig+0x376>
 800296e:	687b      	ldr	r3, [r7, #4]
 8002970:	689b      	ldr	r3, [r3, #8]
 8002972:	2b00      	cmp	r3, #0
 8002974:	d10c      	bne.n	8002990 <HAL_RCC_OscConfig+0x33c>
 8002976:	4b6a      	ldr	r3, [pc, #424]	@ (8002b20 <HAL_RCC_OscConfig+0x4cc>)
 8002978:	6f1b      	ldr	r3, [r3, #112]	@ 0x70
 800297a:	4a69      	ldr	r2, [pc, #420]	@ (8002b20 <HAL_RCC_OscConfig+0x4cc>)
 800297c:	f023 0301 	bic.w	r3, r3, #1
 8002980:	6713      	str	r3, [r2, #112]	@ 0x70
 8002982:	4b67      	ldr	r3, [pc, #412]	@ (8002b20 <HAL_RCC_OscConfig+0x4cc>)
 8002984:	6f1b      	ldr	r3, [r3, #112]	@ 0x70
 8002986:	4a66      	ldr	r2, [pc, #408]	@ (8002b20 <HAL_RCC_OscConfig+0x4cc>)
 8002988:	f023 0304 	bic.w	r3, r3, #4
 800298c:	6713      	str	r3, [r2, #112]	@ 0x70
 800298e:	e01c      	b.n	80029ca <HAL_RCC_OscConfig+0x376>
 8002990:	687b      	ldr	r3, [r7, #4]
 8002992:	689b      	ldr	r3, [r3, #8]
 8002994:	2b05      	cmp	r3, #5
 8002996:	d10c      	bne.n	80029b2 <HAL_RCC_OscConfig+0x35e>
 8002998:	4b61      	ldr	r3, [pc, #388]	@ (8002b20 <HAL_RCC_OscConfig+0x4cc>)
 800299a:	6f1b      	ldr	r3, [r3, #112]	@ 0x70
 800299c:	4a60      	ldr	r2, [pc, #384]	@ (8002b20 <HAL_RCC_OscConfig+0x4cc>)
 800299e:	f043 0304 	orr.w	r3, r3, #4
 80029a2:	6713      	str	r3, [r2, #112]	@ 0x70
 80029a4:	4b5e      	ldr	r3, [pc, #376]	@ (8002b20 <HAL_RCC_OscConfig+0x4cc>)
 80029a6:	6f1b      	ldr	r3, [r3, #112]	@ 0x70
 80029a8:	4a5d      	ldr	r2, [pc, #372]	@ (8002b20 <HAL_RCC_OscConfig+0x4cc>)
 80029aa:	f043 0301 	orr.w	r3, r3, #1
 80029ae:	6713      	str	r3, [r2, #112]	@ 0x70
 80029b0:	e00b      	b.n	80029ca <HAL_RCC_OscConfig+0x376>
 80029b2:	4b5b      	ldr	r3, [pc, #364]	@ (8002b20 <HAL_RCC_OscConfig+0x4cc>)
 80029b4:	6f1b      	ldr	r3, [r3, #112]	@ 0x70
 80029b6:	4a5a      	ldr	r2, [pc, #360]	@ (8002b20 <HAL_RCC_OscConfig+0x4cc>)
 80029b8:	f023 0301 	bic.w	r3, r3, #1
 80029bc:	6713      	str	r3, [r2, #112]	@ 0x70
 80029be:	4b58      	ldr	r3, [pc, #352]	@ (8002b20 <HAL_RCC_OscConfig+0x4cc>)
 80029c0:	6f1b      	ldr	r3, [r3, #112]	@ 0x70
 80029c2:	4a57      	ldr	r2, [pc, #348]	@ (8002b20 <HAL_RCC_OscConfig+0x4cc>)
 80029c4:	f023 0304 	bic.w	r3, r3, #4
 80029c8:	6713      	str	r3, [r2, #112]	@ 0x70
    /* Check the LSE State */
    if ((RCC_OscInitStruct->LSEState) != RCC_LSE_OFF)
 80029ca:	687b      	ldr	r3, [r7, #4]
 80029cc:	689b      	ldr	r3, [r3, #8]
 80029ce:	2b00      	cmp	r3, #0
 80029d0:	d015      	beq.n	80029fe <HAL_RCC_OscConfig+0x3aa>
    {
      /* Get Start Tick*/
      tickstart = HAL_GetTick();
 80029d2:	f7fe fffb 	bl	80019cc <HAL_GetTick>
 80029d6:	6138      	str	r0, [r7, #16]

      /* Wait till LSE is ready */
      while (__HAL_RCC_GET_FLAG(RCC_FLAG_LSERDY) == RESET)
 80029d8:	e00a      	b.n	80029f0 <HAL_RCC_OscConfig+0x39c>
      {
        if ((HAL_GetTick() - tickstart) > RCC_LSE_TIMEOUT_VALUE)
 80029da:	f7fe fff7 	bl	80019cc <HAL_GetTick>
 80029de:	4602      	mov	r2, r0
 80029e0:	693b      	ldr	r3, [r7, #16]
 80029e2:	1ad3      	subs	r3, r2, r3
 80029e4:	f241 3288 	movw	r2, #5000	@ 0x1388
 80029e8:	4293      	cmp	r3, r2
 80029ea:	d901      	bls.n	80029f0 <HAL_RCC_OscConfig+0x39c>
        {
          return HAL_TIMEOUT;
 80029ec:	2303      	movs	r3, #3
 80029ee:	e0ce      	b.n	8002b8e <HAL_RCC_OscConfig+0x53a>
      while (__HAL_RCC_GET_FLAG(RCC_FLAG_LSERDY) == RESET)
 80029f0:	4b4b      	ldr	r3, [pc, #300]	@ (8002b20 <HAL_RCC_OscConfig+0x4cc>)
 80029f2:	6f1b      	ldr	r3, [r3, #112]	@ 0x70
 80029f4:	f003 0302 	and.w	r3, r3, #2
 80029f8:	2b00      	cmp	r3, #0
 80029fa:	d0ee      	beq.n	80029da <HAL_RCC_OscConfig+0x386>
 80029fc:	e014      	b.n	8002a28 <HAL_RCC_OscConfig+0x3d4>
      }
    }
    else
    {
      /* Get Start Tick*/
      tickstart = HAL_GetTick();
 80029fe:	f7fe ffe5 	bl	80019cc <HAL_GetTick>
 8002a02:	6138      	str	r0, [r7, #16]

      /* Wait till LSE is ready */
      while (__HAL_RCC_GET_FLAG(RCC_FLAG_LSERDY) != RESET)
 8002a04:	e00a      	b.n	8002a1c <HAL_RCC_OscConfig+0x3c8>
      {
        if ((HAL_GetTick() - tickstart) > RCC_LSE_TIMEOUT_VALUE)
 8002a06:	f7fe ffe1 	bl	80019cc <HAL_GetTick>
 8002a0a:	4602      	mov	r2, r0
 8002a0c:	693b      	ldr	r3, [r7, #16]
 8002a0e:	1ad3      	subs	r3, r2, r3
 8002a10:	f241 3288 	movw	r2, #5000	@ 0x1388
 8002a14:	4293      	cmp	r3, r2
 8002a16:	d901      	bls.n	8002a1c <HAL_RCC_OscConfig+0x3c8>
        {
          return HAL_TIMEOUT;
 8002a18:	2303      	movs	r3, #3
 8002a1a:	e0b8      	b.n	8002b8e <HAL_RCC_OscConfig+0x53a>
      while (__HAL_RCC_GET_FLAG(RCC_FLAG_LSERDY) != RESET)
 8002a1c:	4b40      	ldr	r3, [pc, #256]	@ (8002b20 <HAL_RCC_OscConfig+0x4cc>)
 8002a1e:	6f1b      	ldr	r3, [r3, #112]	@ 0x70
 8002a20:	f003 0302 	and.w	r3, r3, #2
 8002a24:	2b00      	cmp	r3, #0
 8002a26:	d1ee      	bne.n	8002a06 <HAL_RCC_OscConfig+0x3b2>
        }
      }
    }

    /* Restore clock configuration if changed */
    if (pwrclkchanged == SET)
 8002a28:	7dfb      	ldrb	r3, [r7, #23]
 8002a2a:	2b01      	cmp	r3, #1
 8002a2c:	d105      	bne.n	8002a3a <HAL_RCC_OscConfig+0x3e6>
    {
      __HAL_RCC_PWR_CLK_DISABLE();
 8002a2e:	4b3c      	ldr	r3, [pc, #240]	@ (8002b20 <HAL_RCC_OscConfig+0x4cc>)
 8002a30:	6c1b      	ldr	r3, [r3, #64]	@ 0x40
 8002a32:	4a3b      	ldr	r2, [pc, #236]	@ (8002b20 <HAL_RCC_OscConfig+0x4cc>)
 8002a34:	f023 5380 	bic.w	r3, r3, #268435456	@ 0x10000000
 8002a38:	6413      	str	r3, [r2, #64]	@ 0x40
    }
  }
  /*-------------------------------- PLL Configuration -----------------------*/
  /* Check the parameters */
  assert_param(IS_RCC_PLL(RCC_OscInitStruct->PLL.PLLState));
  if ((RCC_OscInitStruct->PLL.PLLState) != RCC_PLL_NONE)
 8002a3a:	687b      	ldr	r3, [r7, #4]
 8002a3c:	699b      	ldr	r3, [r3, #24]
 8002a3e:	2b00      	cmp	r3, #0
 8002a40:	f000 80a4 	beq.w	8002b8c <HAL_RCC_OscConfig+0x538>
  {
    /* Check if the PLL is used as system clock or not */
    if (__HAL_RCC_GET_SYSCLK_SOURCE() != RCC_SYSCLKSOURCE_STATUS_PLLCLK)
 8002a44:	4b36      	ldr	r3, [pc, #216]	@ (8002b20 <HAL_RCC_OscConfig+0x4cc>)
 8002a46:	689b      	ldr	r3, [r3, #8]
 8002a48:	f003 030c 	and.w	r3, r3, #12
 8002a4c:	2b08      	cmp	r3, #8
 8002a4e:	d06b      	beq.n	8002b28 <HAL_RCC_OscConfig+0x4d4>
    {
      if ((RCC_OscInitStruct->PLL.PLLState) == RCC_PLL_ON)
 8002a50:	687b      	ldr	r3, [r7, #4]
 8002a52:	699b      	ldr	r3, [r3, #24]
 8002a54:	2b02      	cmp	r3, #2
 8002a56:	d149      	bne.n	8002aec <HAL_RCC_OscConfig+0x498>
#if defined (RCC_PLLCFGR_PLLR)
        assert_param(IS_RCC_PLLR_VALUE(RCC_OscInitStruct->PLL.PLLR));
#endif

        /* Disable the main PLL. */
        __HAL_RCC_PLL_DISABLE();
 8002a58:	4b31      	ldr	r3, [pc, #196]	@ (8002b20 <HAL_RCC_OscConfig+0x4cc>)
 8002a5a:	681b      	ldr	r3, [r3, #0]
 8002a5c:	4a30      	ldr	r2, [pc, #192]	@ (8002b20 <HAL_RCC_OscConfig+0x4cc>)
 8002a5e:	f023 7380 	bic.w	r3, r3, #16777216	@ 0x1000000
 8002a62:	6013      	str	r3, [r2, #0]

        /* Get Start Tick*/
        tickstart = HAL_GetTick();
 8002a64:	f7fe ffb2 	bl	80019cc <HAL_GetTick>
 8002a68:	6138      	str	r0, [r7, #16]

        /* Wait till PLL is ready */
        while (__HAL_RCC_GET_FLAG(RCC_FLAG_PLLRDY) != RESET)
 8002a6a:	e008      	b.n	8002a7e <HAL_RCC_OscConfig+0x42a>
        {
          if ((HAL_GetTick() - tickstart) > PLL_TIMEOUT_VALUE)
 8002a6c:	f7fe ffae 	bl	80019cc <HAL_GetTick>
 8002a70:	4602      	mov	r2, r0
 8002a72:	693b      	ldr	r3, [r7, #16]
 8002a74:	1ad3      	subs	r3, r2, r3
 8002a76:	2b02      	cmp	r3, #2
 8002a78:	d901      	bls.n	8002a7e <HAL_RCC_OscConfig+0x42a>
          {
            return HAL_TIMEOUT;
 8002a7a:	2303      	movs	r3, #3
 8002a7c:	e087      	b.n	8002b8e <HAL_RCC_OscConfig+0x53a>
        while (__HAL_RCC_GET_FLAG(RCC_FLAG_PLLRDY) != RESET)
 8002a7e:	4b28      	ldr	r3, [pc, #160]	@ (8002b20 <HAL_RCC_OscConfig+0x4cc>)
 8002a80:	681b      	ldr	r3, [r3, #0]
 8002a82:	f003 7300 	and.w	r3, r3, #33554432	@ 0x2000000
 8002a86:	2b00      	cmp	r3, #0
 8002a88:	d1f0      	bne.n	8002a6c <HAL_RCC_OscConfig+0x418>
                             RCC_OscInitStruct->PLL.PLLN,
                             RCC_OscInitStruct->PLL.PLLP,
                             RCC_OscInitStruct->PLL.PLLQ,
                             RCC_OscInitStruct->PLL.PLLR);
#else
        __HAL_RCC_PLL_CONFIG(RCC_OscInitStruct->PLL.PLLSource,
 8002a8a:	687b      	ldr	r3, [r7, #4]
 8002a8c:	69da      	ldr	r2, [r3, #28]
 8002a8e:	687b      	ldr	r3, [r7, #4]
 8002a90:	6a1b      	ldr	r3, [r3, #32]
 8002a92:	431a      	orrs	r2, r3
 8002a94:	687b      	ldr	r3, [r7, #4]
 8002a96:	6a5b      	ldr	r3, [r3, #36]	@ 0x24
 8002a98:	019b      	lsls	r3, r3, #6
 8002a9a:	431a      	orrs	r2, r3
 8002a9c:	687b      	ldr	r3, [r7, #4]
 8002a9e:	6a9b      	ldr	r3, [r3, #40]	@ 0x28
 8002aa0:	085b      	lsrs	r3, r3, #1
 8002aa2:	3b01      	subs	r3, #1
 8002aa4:	041b      	lsls	r3, r3, #16
 8002aa6:	431a      	orrs	r2, r3
 8002aa8:	687b      	ldr	r3, [r7, #4]
 8002aaa:	6adb      	ldr	r3, [r3, #44]	@ 0x2c
 8002aac:	061b      	lsls	r3, r3, #24
 8002aae:	4313      	orrs	r3, r2
 8002ab0:	4a1b      	ldr	r2, [pc, #108]	@ (8002b20 <HAL_RCC_OscConfig+0x4cc>)
 8002ab2:	f043 5300 	orr.w	r3, r3, #536870912	@ 0x20000000
 8002ab6:	6053      	str	r3, [r2, #4]
                             RCC_OscInitStruct->PLL.PLLP,
                             RCC_OscInitStruct->PLL.PLLQ);
#endif

        /* Enable the main PLL. */
        __HAL_RCC_PLL_ENABLE();
 8002ab8:	4b19      	ldr	r3, [pc, #100]	@ (8002b20 <HAL_RCC_OscConfig+0x4cc>)
 8002aba:	681b      	ldr	r3, [r3, #0]
 8002abc:	4a18      	ldr	r2, [pc, #96]	@ (8002b20 <HAL_RCC_OscConfig+0x4cc>)
 8002abe:	f043 7380 	orr.w	r3, r3, #16777216	@ 0x1000000
 8002ac2:	6013      	str	r3, [r2, #0]

        /* Get Start Tick*/
        tickstart = HAL_GetTick();
 8002ac4:	f7fe ff82 	bl	80019cc <HAL_GetTick>
 8002ac8:	6138      	str	r0, [r7, #16]

        /* Wait till PLL is ready */
        while (__HAL_RCC_GET_FLAG(RCC_FLAG_PLLRDY) == RESET)
 8002aca:	e008      	b.n	8002ade <HAL_RCC_OscConfig+0x48a>
        {
          if ((HAL_GetTick() - tickstart) > PLL_TIMEOUT_VALUE)
 8002acc:	f7fe ff7e 	bl	80019cc <HAL_GetTick>
 8002ad0:	4602      	mov	r2, r0
 8002ad2:	693b      	ldr	r3, [r7, #16]
 8002ad4:	1ad3      	subs	r3, r2, r3
 8002ad6:	2b02      	cmp	r3, #2
 8002ad8:	d901      	bls.n	8002ade <HAL_RCC_OscConfig+0x48a>
          {
            return HAL_TIMEOUT;
 8002ada:	2303      	movs	r3, #3
 8002adc:	e057      	b.n	8002b8e <HAL_RCC_OscConfig+0x53a>
        while (__HAL_RCC_GET_FLAG(RCC_FLAG_PLLRDY) == RESET)
 8002ade:	4b10      	ldr	r3, [pc, #64]	@ (8002b20 <HAL_RCC_OscConfig+0x4cc>)
 8002ae0:	681b      	ldr	r3, [r3, #0]
 8002ae2:	f003 7300 	and.w	r3, r3, #33554432	@ 0x2000000
 8002ae6:	2b00      	cmp	r3, #0
 8002ae8:	d0f0      	beq.n	8002acc <HAL_RCC_OscConfig+0x478>
 8002aea:	e04f      	b.n	8002b8c <HAL_RCC_OscConfig+0x538>
        }
      }
      else
      {
        /* Disable the main PLL. */
        __HAL_RCC_PLL_DISABLE();
 8002aec:	4b0c      	ldr	r3, [pc, #48]	@ (8002b20 <HAL_RCC_OscConfig+0x4cc>)
 8002aee:	681b      	ldr	r3, [r3, #0]
 8002af0:	4a0b      	ldr	r2, [pc, #44]	@ (8002b20 <HAL_RCC_OscConfig+0x4cc>)
 8002af2:	f023 7380 	bic.w	r3, r3, #16777216	@ 0x1000000
 8002af6:	6013      	str	r3, [r2, #0]

        /* Get Start Tick*/
        tickstart = HAL_GetTick();
 8002af8:	f7fe ff68 	bl	80019cc <HAL_GetTick>
 8002afc:	6138      	str	r0, [r7, #16]

        /* Wait till PLL is ready */
        while (__HAL_RCC_GET_FLAG(RCC_FLAG_PLLRDY) != RESET)
 8002afe:	e008      	b.n	8002b12 <HAL_RCC_OscConfig+0x4be>
        {
          if ((HAL_GetTick() - tickstart) > PLL_TIMEOUT_VALUE)
 8002b00:	f7fe ff64 	bl	80019cc <HAL_GetTick>
 8002b04:	4602      	mov	r2, r0
 8002b06:	693b      	ldr	r3, [r7, #16]
 8002b08:	1ad3      	subs	r3, r2, r3
 8002b0a:	2b02      	cmp	r3, #2
 8002b0c:	d901      	bls.n	8002b12 <HAL_RCC_OscConfig+0x4be>
          {
            return HAL_TIMEOUT;
 8002b0e:	2303      	movs	r3, #3
 8002b10:	e03d      	b.n	8002b8e <HAL_RCC_OscConfig+0x53a>
        while (__HAL_RCC_GET_FLAG(RCC_FLAG_PLLRDY) != RESET)
 8002b12:	4b03      	ldr	r3, [pc, #12]	@ (8002b20 <HAL_RCC_OscConfig+0x4cc>)
 8002b14:	681b      	ldr	r3, [r3, #0]
 8002b16:	f003 7300 	and.w	r3, r3, #33554432	@ 0x2000000
 8002b1a:	2b00      	cmp	r3, #0
 8002b1c:	d1f0      	bne.n	8002b00 <HAL_RCC_OscConfig+0x4ac>
 8002b1e:	e035      	b.n	8002b8c <HAL_RCC_OscConfig+0x538>
 8002b20:	40023800 	.word	0x40023800
 8002b24:	40007000 	.word	0x40007000
      }
    }
    else
    {
      /* Do not return HAL_ERROR if request repeats the current configuration */
      pll_config = RCC->PLLCFGR;
 8002b28:	4b1b      	ldr	r3, [pc, #108]	@ (8002b98 <HAL_RCC_OscConfig+0x544>)
 8002b2a:	685b      	ldr	r3, [r3, #4]
 8002b2c:	60fb      	str	r3, [r7, #12]
          (READ_BIT(pll_config, RCC_PLLCFGR_PLLN) != (RCC_OscInitStruct->PLL.PLLN << RCC_PLLCFGR_PLLN_Pos)) ||
          (READ_BIT(pll_config, RCC_PLLCFGR_PLLP) != ((((RCC_OscInitStruct->PLL.PLLP) >> 1U) - 1U) << RCC_PLLCFGR_PLLP_Pos)) ||
          (READ_BIT(pll_config, RCC_PLLCFGR_PLLQ) != (RCC_OscInitStruct->PLL.PLLQ << RCC_PLLCFGR_PLLQ_Pos)) ||
          (READ_BIT(pll_config, RCC_PLLCFGR_PLLR) != (RCC_OscInitStruct->PLL.PLLR << RCC_PLLCFGR_PLLR_Pos)))
#else
      if (((RCC_OscInitStruct->PLL.PLLState) == RCC_PLL_OFF) ||
 8002b2e:	687b      	ldr	r3, [r7, #4]
 8002b30:	699b      	ldr	r3, [r3, #24]
 8002b32:	2b01      	cmp	r3, #1
 8002b34:	d028      	beq.n	8002b88 <HAL_RCC_OscConfig+0x534>
          (READ_BIT(pll_config, RCC_PLLCFGR_PLLSRC) != RCC_OscInitStruct->PLL.PLLSource) ||
 8002b36:	68fb      	ldr	r3, [r7, #12]
 8002b38:	f403 0280 	and.w	r2, r3, #4194304	@ 0x400000
 8002b3c:	687b      	ldr	r3, [r7, #4]
 8002b3e:	69db      	ldr	r3, [r3, #28]
      if (((RCC_OscInitStruct->PLL.PLLState) == RCC_PLL_OFF) ||
 8002b40:	429a      	cmp	r2, r3
 8002b42:	d121      	bne.n	8002b88 <HAL_RCC_OscConfig+0x534>
          (READ_BIT(pll_config, RCC_PLLCFGR_PLLM) != RCC_OscInitStruct->PLL.PLLM) ||
 8002b44:	68fb      	ldr	r3, [r7, #12]
 8002b46:	f003 023f 	and.w	r2, r3, #63	@ 0x3f
 8002b4a:	687b      	ldr	r3, [r7, #4]
 8002b4c:	6a1b      	ldr	r3, [r3, #32]
          (READ_BIT(pll_config, RCC_PLLCFGR_PLLSRC) != RCC_OscInitStruct->PLL.PLLSource) ||
 8002b4e:	429a      	cmp	r2, r3
 8002b50:	d11a      	bne.n	8002b88 <HAL_RCC_OscConfig+0x534>
          (READ_BIT(pll_config, RCC_PLLCFGR_PLLN) != (RCC_OscInitStruct->PLL.PLLN << RCC_PLLCFGR_PLLN_Pos)) ||
 8002b52:	68fa      	ldr	r2, [r7, #12]
 8002b54:	f647 73c0 	movw	r3, #32704	@ 0x7fc0
 8002b58:	4013      	ands	r3, r2
 8002b5a:	687a      	ldr	r2, [r7, #4]
 8002b5c:	6a52      	ldr	r2, [r2, #36]	@ 0x24
 8002b5e:	0192      	lsls	r2, r2, #6
          (READ_BIT(pll_config, RCC_PLLCFGR_PLLM) != RCC_OscInitStruct->PLL.PLLM) ||
 8002b60:	4293      	cmp	r3, r2
 8002b62:	d111      	bne.n	8002b88 <HAL_RCC_OscConfig+0x534>
          (READ_BIT(pll_config, RCC_PLLCFGR_PLLP) != ((((RCC_OscInitStruct->PLL.PLLP) >> 1U) - 1U) << RCC_PLLCFGR_PLLP_Pos)) ||
 8002b64:	68fb      	ldr	r3, [r7, #12]
 8002b66:	f403 3240 	and.w	r2, r3, #196608	@ 0x30000
 8002b6a:	687b      	ldr	r3, [r7, #4]
 8002b6c:	6a9b      	ldr	r3, [r3, #40]	@ 0x28
 8002b6e:	085b      	lsrs	r3, r3, #1
 8002b70:	3b01      	subs	r3, #1
 8002b72:	041b      	lsls	r3, r3, #16
          (READ_BIT(pll_config, RCC_PLLCFGR_PLLN) != (RCC_OscInitStruct->PLL.PLLN << RCC_PLLCFGR_PLLN_Pos)) ||
 8002b74:	429a      	cmp	r2, r3
 8002b76:	d107      	bne.n	8002b88 <HAL_RCC_OscConfig+0x534>
          (READ_BIT(pll_config, RCC_PLLCFGR_PLLQ) != (RCC_OscInitStruct->PLL.PLLQ << RCC_PLLCFGR_PLLQ_Pos)))
 8002b78:	68fb      	ldr	r3, [r7, #12]
 8002b7a:	f003 6270 	and.w	r2, r3, #251658240	@ 0xf000000
 8002b7e:	687b      	ldr	r3, [r7, #4]
 8002b80:	6adb      	ldr	r3, [r3, #44]	@ 0x2c
 8002b82:	061b      	lsls	r3, r3, #24
          (READ_BIT(pll_config, RCC_PLLCFGR_PLLP) != ((((RCC_OscInitStruct->PLL.PLLP) >> 1U) - 1U) << RCC_PLLCFGR_PLLP_Pos)) ||
 8002b84:	429a      	cmp	r2, r3
 8002b86:	d001      	beq.n	8002b8c <HAL_RCC_OscConfig+0x538>
#endif
      {
        return HAL_ERROR;
 8002b88:	2301      	movs	r3, #1
 8002b8a:	e000      	b.n	8002b8e <HAL_RCC_OscConfig+0x53a>
      }
    }
  }
  return HAL_OK;
 8002b8c:	2300      	movs	r3, #0
}
 8002b8e:	4618      	mov	r0, r3
 8002b90:	3718      	adds	r7, #24
 8002b92:	46bd      	mov	sp, r7
 8002b94:	bd80      	pop	{r7, pc}
 8002b96:	bf00      	nop
 8002b98:	40023800 	.word	0x40023800

08002b9c <HAL_RCC_ClockConfig>:
  *         HPRE[3:0] bits to ensure that HCLK not exceed the maximum allowed frequency
  *         (for more details refer to section above "Initialization/de-initialization functions")
  * @retval None
  */
HAL_StatusTypeDef HAL_RCC_ClockConfig(const RCC_ClkInitTypeDef  *RCC_ClkInitStruct, uint32_t FLatency)
{
 8002b9c:	b580      	push	{r7, lr}
 8002b9e:	b084      	sub	sp, #16
 8002ba0:	af00      	add	r7, sp, #0
 8002ba2:	6078      	str	r0, [r7, #4]
 8002ba4:	6039      	str	r1, [r7, #0]
  uint32_t tickstart = 0;
 8002ba6:	2300      	movs	r3, #0
 8002ba8:	60fb      	str	r3, [r7, #12]

  /* Check Null pointer */
  if (RCC_ClkInitStruct == NULL)
 8002baa:	687b      	ldr	r3, [r7, #4]
 8002bac:	2b00      	cmp	r3, #0
 8002bae:	d101      	bne.n	8002bb4 <HAL_RCC_ClockConfig+0x18>
  {
    return HAL_ERROR;
 8002bb0:	2301      	movs	r3, #1
 8002bb2:	e0d0      	b.n	8002d56 <HAL_RCC_ClockConfig+0x1ba>
  /* To correctly read data from FLASH memory, the number of wait states (LATENCY)
     must be correctly programmed according to the frequency of the CPU clock
     (HCLK) and the supply voltage of the device. */

  /* Increasing the CPU frequency */
  if (FLatency > __HAL_FLASH_GET_LATENCY())
 8002bb4:	4b6a      	ldr	r3, [pc, #424]	@ (8002d60 <HAL_RCC_ClockConfig+0x1c4>)
 8002bb6:	681b      	ldr	r3, [r3, #0]
 8002bb8:	f003 030f 	and.w	r3, r3, #15
 8002bbc:	683a      	ldr	r2, [r7, #0]
 8002bbe:	429a      	cmp	r2, r3
 8002bc0:	d910      	bls.n	8002be4 <HAL_RCC_ClockConfig+0x48>
  {
    /* Program the new number of wait states to the LATENCY bits in the FLASH_ACR register */
    __HAL_FLASH_SET_LATENCY(FLatency);
 8002bc2:	4b67      	ldr	r3, [pc, #412]	@ (8002d60 <HAL_RCC_ClockConfig+0x1c4>)
 8002bc4:	681b      	ldr	r3, [r3, #0]
 8002bc6:	f023 020f 	bic.w	r2, r3, #15
 8002bca:	4965      	ldr	r1, [pc, #404]	@ (8002d60 <HAL_RCC_ClockConfig+0x1c4>)
 8002bcc:	683b      	ldr	r3, [r7, #0]
 8002bce:	4313      	orrs	r3, r2
 8002bd0:	600b      	str	r3, [r1, #0]

    /* Check that the new number of wait states is taken into account to access the Flash
    memory by reading the FLASH_ACR register */
    if (__HAL_FLASH_GET_LATENCY() != FLatency)
 8002bd2:	4b63      	ldr	r3, [pc, #396]	@ (8002d60 <HAL_RCC_ClockConfig+0x1c4>)
 8002bd4:	681b      	ldr	r3, [r3, #0]
 8002bd6:	f003 030f 	and.w	r3, r3, #15
 8002bda:	683a      	ldr	r2, [r7, #0]
 8002bdc:	429a      	cmp	r2, r3
 8002bde:	d001      	beq.n	8002be4 <HAL_RCC_ClockConfig+0x48>
    {
      return HAL_ERROR;
 8002be0:	2301      	movs	r3, #1
 8002be2:	e0b8      	b.n	8002d56 <HAL_RCC_ClockConfig+0x1ba>
    }
  }

  /*-------------------------- HCLK Configuration --------------------------*/
  if (((RCC_ClkInitStruct->ClockType) & RCC_CLOCKTYPE_HCLK) == RCC_CLOCKTYPE_HCLK)
 8002be4:	687b      	ldr	r3, [r7, #4]
 8002be6:	681b      	ldr	r3, [r3, #0]
 8002be8:	f003 0302 	and.w	r3, r3, #2
 8002bec:	2b00      	cmp	r3, #0
 8002bee:	d020      	beq.n	8002c32 <HAL_RCC_ClockConfig+0x96>
  {
    /* Set the highest APBx dividers in order to ensure that we do not go through
       a non-spec phase whatever we decrease or increase HCLK. */
    if (((RCC_ClkInitStruct->ClockType) & RCC_CLOCKTYPE_PCLK1) == RCC_CLOCKTYPE_PCLK1)
 8002bf0:	687b      	ldr	r3, [r7, #4]
 8002bf2:	681b      	ldr	r3, [r3, #0]
 8002bf4:	f003 0304 	and.w	r3, r3, #4
 8002bf8:	2b00      	cmp	r3, #0
 8002bfa:	d005      	beq.n	8002c08 <HAL_RCC_ClockConfig+0x6c>
    {
      MODIFY_REG(RCC->CFGR, RCC_CFGR_PPRE1, RCC_HCLK_DIV16);
 8002bfc:	4b59      	ldr	r3, [pc, #356]	@ (8002d64 <HAL_RCC_ClockConfig+0x1c8>)
 8002bfe:	689b      	ldr	r3, [r3, #8]
 8002c00:	4a58      	ldr	r2, [pc, #352]	@ (8002d64 <HAL_RCC_ClockConfig+0x1c8>)
 8002c02:	f443 53e0 	orr.w	r3, r3, #7168	@ 0x1c00
 8002c06:	6093      	str	r3, [r2, #8]
    }

    if (((RCC_ClkInitStruct->ClockType) & RCC_CLOCKTYPE_PCLK2) == RCC_CLOCKTYPE_PCLK2)
 8002c08:	687b      	ldr	r3, [r7, #4]
 8002c0a:	681b      	ldr	r3, [r3, #0]
 8002c0c:	f003 0308 	and.w	r3, r3, #8
 8002c10:	2b00      	cmp	r3, #0
 8002c12:	d005      	beq.n	8002c20 <HAL_RCC_ClockConfig+0x84>
    {
      MODIFY_REG(RCC->CFGR, RCC_CFGR_PPRE2, (RCC_HCLK_DIV16 << 3));
 8002c14:	4b53      	ldr	r3, [pc, #332]	@ (8002d64 <HAL_RCC_ClockConfig+0x1c8>)
 8002c16:	689b      	ldr	r3, [r3, #8]
 8002c18:	4a52      	ldr	r2, [pc, #328]	@ (8002d64 <HAL_RCC_ClockConfig+0x1c8>)
 8002c1a:	f443 4360 	orr.w	r3, r3, #57344	@ 0xe000
 8002c1e:	6093      	str	r3, [r2, #8]
    }

    /* Set the new HCLK clock divider */
    assert_param(IS_RCC_HCLK(RCC_ClkInitStruct->AHBCLKDivider));
    MODIFY_REG(RCC->CFGR, RCC_CFGR_HPRE, RCC_ClkInitStruct->AHBCLKDivider);
 8002c20:	4b50      	ldr	r3, [pc, #320]	@ (8002d64 <HAL_RCC_ClockConfig+0x1c8>)
 8002c22:	689b      	ldr	r3, [r3, #8]
 8002c24:	f023 02f0 	bic.w	r2, r3, #240	@ 0xf0
 8002c28:	687b      	ldr	r3, [r7, #4]
 8002c2a:	689b      	ldr	r3, [r3, #8]
 8002c2c:	494d      	ldr	r1, [pc, #308]	@ (8002d64 <HAL_RCC_ClockConfig+0x1c8>)
 8002c2e:	4313      	orrs	r3, r2
 8002c30:	608b      	str	r3, [r1, #8]
  }

  /*------------------------- SYSCLK Configuration ---------------------------*/
  if (((RCC_ClkInitStruct->ClockType) & RCC_CLOCKTYPE_SYSCLK) == RCC_CLOCKTYPE_SYSCLK)
 8002c32:	687b      	ldr	r3, [r7, #4]
 8002c34:	681b      	ldr	r3, [r3, #0]
 8002c36:	f003 0301 	and.w	r3, r3, #1
 8002c3a:	2b00      	cmp	r3, #0
 8002c3c:	d040      	beq.n	8002cc0 <HAL_RCC_ClockConfig+0x124>
  {
    assert_param(IS_RCC_SYSCLKSOURCE(RCC_ClkInitStruct->SYSCLKSource));

    /* HSE is selected as System Clock Source */
    if (RCC_ClkInitStruct->SYSCLKSource == RCC_SYSCLKSOURCE_HSE)
 8002c3e:	687b      	ldr	r3, [r7, #4]
 8002c40:	685b      	ldr	r3, [r3, #4]
 8002c42:	2b01      	cmp	r3, #1
 8002c44:	d107      	bne.n	8002c56 <HAL_RCC_ClockConfig+0xba>
    {
      /* Check the HSE ready flag */
      if (__HAL_RCC_GET_FLAG(RCC_FLAG_HSERDY) == RESET)
 8002c46:	4b47      	ldr	r3, [pc, #284]	@ (8002d64 <HAL_RCC_ClockConfig+0x1c8>)
 8002c48:	681b      	ldr	r3, [r3, #0]
 8002c4a:	f403 3300 	and.w	r3, r3, #131072	@ 0x20000
 8002c4e:	2b00      	cmp	r3, #0
 8002c50:	d115      	bne.n	8002c7e <HAL_RCC_ClockConfig+0xe2>
      {
        return HAL_ERROR;
 8002c52:	2301      	movs	r3, #1
 8002c54:	e07f      	b.n	8002d56 <HAL_RCC_ClockConfig+0x1ba>
      }
    }
    /* PLL is selected as System Clock Source */
    else if (RCC_ClkInitStruct->SYSCLKSource == RCC_SYSCLKSOURCE_PLLCLK)
 8002c56:	687b      	ldr	r3, [r7, #4]
 8002c58:	685b      	ldr	r3, [r3, #4]
 8002c5a:	2b02      	cmp	r3, #2
 8002c5c:	d107      	bne.n	8002c6e <HAL_RCC_ClockConfig+0xd2>
    {
      /* Check the PLL ready flag */
      if (__HAL_RCC_GET_FLAG(RCC_FLAG_PLLRDY) == RESET)
 8002c5e:	4b41      	ldr	r3, [pc, #260]	@ (8002d64 <HAL_RCC_ClockConfig+0x1c8>)
 8002c60:	681b      	ldr	r3, [r3, #0]
 8002c62:	f003 7300 	and.w	r3, r3, #33554432	@ 0x2000000
 8002c66:	2b00      	cmp	r3, #0
 8002c68:	d109      	bne.n	8002c7e <HAL_RCC_ClockConfig+0xe2>
      {
        return HAL_ERROR;
 8002c6a:	2301      	movs	r3, #1
 8002c6c:	e073      	b.n	8002d56 <HAL_RCC_ClockConfig+0x1ba>
    }
    /* HSI is selected as System Clock Source */
    else
    {
      /* Check the HSI ready flag */
      if (__HAL_RCC_GET_FLAG(RCC_FLAG_HSIRDY) == RESET)
 8002c6e:	4b3d      	ldr	r3, [pc, #244]	@ (8002d64 <HAL_RCC_ClockConfig+0x1c8>)
 8002c70:	681b      	ldr	r3, [r3, #0]
 8002c72:	f003 0302 	and.w	r3, r3, #2
 8002c76:	2b00      	cmp	r3, #0
 8002c78:	d101      	bne.n	8002c7e <HAL_RCC_ClockConfig+0xe2>
      {
        return HAL_ERROR;
 8002c7a:	2301      	movs	r3, #1
 8002c7c:	e06b      	b.n	8002d56 <HAL_RCC_ClockConfig+0x1ba>
      }
    }

    __HAL_RCC_SYSCLK_CONFIG(RCC_ClkInitStruct->SYSCLKSource);
 8002c7e:	4b39      	ldr	r3, [pc, #228]	@ (8002d64 <HAL_RCC_ClockConfig+0x1c8>)
 8002c80:	689b      	ldr	r3, [r3, #8]
 8002c82:	f023 0203 	bic.w	r2, r3, #3
 8002c86:	687b      	ldr	r3, [r7, #4]
 8002c88:	685b      	ldr	r3, [r3, #4]
 8002c8a:	4936      	ldr	r1, [pc, #216]	@ (8002d64 <HAL_RCC_ClockConfig+0x1c8>)
 8002c8c:	4313      	orrs	r3, r2
 8002c8e:	608b      	str	r3, [r1, #8]

    /* Get Start Tick*/
    tickstart = HAL_GetTick();
 8002c90:	f7fe fe9c 	bl	80019cc <HAL_GetTick>
 8002c94:	60f8      	str	r0, [r7, #12]

    while (__HAL_RCC_GET_SYSCLK_SOURCE() != (RCC_ClkInitStruct->SYSCLKSource << RCC_CFGR_SWS_Pos))
 8002c96:	e00a      	b.n	8002cae <HAL_RCC_ClockConfig+0x112>
    {
      if ((HAL_GetTick() - tickstart) > CLOCKSWITCH_TIMEOUT_VALUE)
 8002c98:	f7fe fe98 	bl	80019cc <HAL_GetTick>
 8002c9c:	4602      	mov	r2, r0
 8002c9e:	68fb      	ldr	r3, [r7, #12]
 8002ca0:	1ad3      	subs	r3, r2, r3
 8002ca2:	f241 3288 	movw	r2, #5000	@ 0x1388
 8002ca6:	4293      	cmp	r3, r2
 8002ca8:	d901      	bls.n	8002cae <HAL_RCC_ClockConfig+0x112>
      {
        return HAL_TIMEOUT;
 8002caa:	2303      	movs	r3, #3
 8002cac:	e053      	b.n	8002d56 <HAL_RCC_ClockConfig+0x1ba>
    while (__HAL_RCC_GET_SYSCLK_SOURCE() != (RCC_ClkInitStruct->SYSCLKSource << RCC_CFGR_SWS_Pos))
 8002cae:	4b2d      	ldr	r3, [pc, #180]	@ (8002d64 <HAL_RCC_ClockConfig+0x1c8>)
 8002cb0:	689b      	ldr	r3, [r3, #8]
 8002cb2:	f003 020c 	and.w	r2, r3, #12
 8002cb6:	687b      	ldr	r3, [r7, #4]
 8002cb8:	685b      	ldr	r3, [r3, #4]
 8002cba:	009b      	lsls	r3, r3, #2
 8002cbc:	429a      	cmp	r2, r3
 8002cbe:	d1eb      	bne.n	8002c98 <HAL_RCC_ClockConfig+0xfc>
      }
    }
  }

  /* Decreasing the number of wait states because of lower CPU frequency */
  if (FLatency < __HAL_FLASH_GET_LATENCY())
 8002cc0:	4b27      	ldr	r3, [pc, #156]	@ (8002d60 <HAL_RCC_ClockConfig+0x1c4>)
 8002cc2:	681b      	ldr	r3, [r3, #0]
 8002cc4:	f003 030f 	and.w	r3, r3, #15
 8002cc8:	683a      	ldr	r2, [r7, #0]
 8002cca:	429a      	cmp	r2, r3
 8002ccc:	d210      	bcs.n	8002cf0 <HAL_RCC_ClockConfig+0x154>
  {
    /* Program the new number of wait states to the LATENCY bits in the FLASH_ACR register */
    __HAL_FLASH_SET_LATENCY(FLatency);
 8002cce:	4b24      	ldr	r3, [pc, #144]	@ (8002d60 <HAL_RCC_ClockConfig+0x1c4>)
 8002cd0:	681b      	ldr	r3, [r3, #0]
 8002cd2:	f023 020f 	bic.w	r2, r3, #15
 8002cd6:	4922      	ldr	r1, [pc, #136]	@ (8002d60 <HAL_RCC_ClockConfig+0x1c4>)
 8002cd8:	683b      	ldr	r3, [r7, #0]
 8002cda:	4313      	orrs	r3, r2
 8002cdc:	600b      	str	r3, [r1, #0]

    /* Check that the new number of wait states is taken into account to access the Flash
    memory by reading the FLASH_ACR register */
    if (__HAL_FLASH_GET_LATENCY() != FLatency)
 8002cde:	4b20      	ldr	r3, [pc, #128]	@ (8002d60 <HAL_RCC_ClockConfig+0x1c4>)
 8002ce0:	681b      	ldr	r3, [r3, #0]
 8002ce2:	f003 030f 	and.w	r3, r3, #15
 8002ce6:	683a      	ldr	r2, [r7, #0]
 8002ce8:	429a      	cmp	r2, r3
 8002cea:	d001      	beq.n	8002cf0 <HAL_RCC_ClockConfig+0x154>
    {
      return HAL_ERROR;
 8002cec:	2301      	movs	r3, #1
 8002cee:	e032      	b.n	8002d56 <HAL_RCC_ClockConfig+0x1ba>
    }
  }

  /*-------------------------- PCLK1 Configuration ---------------------------*/
  if (((RCC_ClkInitStruct->ClockType) & RCC_CLOCKTYPE_PCLK1) == RCC_CLOCKTYPE_PCLK1)
 8002cf0:	687b      	ldr	r3, [r7, #4]
 8002cf2:	681b      	ldr	r3, [r3, #0]
 8002cf4:	f003 0304 	and.w	r3, r3, #4
 8002cf8:	2b00      	cmp	r3, #0
 8002cfa:	d008      	beq.n	8002d0e <HAL_RCC_ClockConfig+0x172>
  {
    assert_param(IS_RCC_PCLK(RCC_ClkInitStruct->APB1CLKDivider));
    MODIFY_REG(RCC->CFGR, RCC_CFGR_PPRE1, RCC_ClkInitStruct->APB1CLKDivider);
 8002cfc:	4b19      	ldr	r3, [pc, #100]	@ (8002d64 <HAL_RCC_ClockConfig+0x1c8>)
 8002cfe:	689b      	ldr	r3, [r3, #8]
 8002d00:	f423 52e0 	bic.w	r2, r3, #7168	@ 0x1c00
 8002d04:	687b      	ldr	r3, [r7, #4]
 8002d06:	68db      	ldr	r3, [r3, #12]
 8002d08:	4916      	ldr	r1, [pc, #88]	@ (8002d64 <HAL_RCC_ClockConfig+0x1c8>)
 8002d0a:	4313      	orrs	r3, r2
 8002d0c:	608b      	str	r3, [r1, #8]
  }

  /*-------------------------- PCLK2 Configuration ---------------------------*/
  if (((RCC_ClkInitStruct->ClockType) & RCC_CLOCKTYPE_PCLK2) == RCC_CLOCKTYPE_PCLK2)
 8002d0e:	687b      	ldr	r3, [r7, #4]
 8002d10:	681b      	ldr	r3, [r3, #0]
 8002d12:	f003 0308 	and.w	r3, r3, #8
 8002d16:	2b00      	cmp	r3, #0
 8002d18:	d009      	beq.n	8002d2e <HAL_RCC_ClockConfig+0x192>
  {
    assert_param(IS_RCC_PCLK(RCC_ClkInitStruct->APB2CLKDivider));
    MODIFY_REG(RCC->CFGR, RCC_CFGR_PPRE2, ((RCC_ClkInitStruct->APB2CLKDivider) << 3));
 8002d1a:	4b12      	ldr	r3, [pc, #72]	@ (8002d64 <HAL_RCC_ClockConfig+0x1c8>)
 8002d1c:	689b      	ldr	r3, [r3, #8]
 8002d1e:	f423 4260 	bic.w	r2, r3, #57344	@ 0xe000
 8002d22:	687b      	ldr	r3, [r7, #4]
 8002d24:	691b      	ldr	r3, [r3, #16]
 8002d26:	00db      	lsls	r3, r3, #3
 8002d28:	490e      	ldr	r1, [pc, #56]	@ (8002d64 <HAL_RCC_ClockConfig+0x1c8>)
 8002d2a:	4313      	orrs	r3, r2
 8002d2c:	608b      	str	r3, [r1, #8]
  }

  /* Update the SystemCoreClock global variable */
  SystemCoreClock = HAL_RCC_GetSysClockFreq() >> AHBPrescTable[(RCC->CFGR & RCC_CFGR_HPRE) >> RCC_CFGR_HPRE_Pos];
 8002d2e:	f000 f821 	bl	8002d74 <HAL_RCC_GetSysClockFreq>
 8002d32:	4602      	mov	r2, r0
 8002d34:	4b0b      	ldr	r3, [pc, #44]	@ (8002d64 <HAL_RCC_ClockConfig+0x1c8>)
 8002d36:	689b      	ldr	r3, [r3, #8]
 8002d38:	091b      	lsrs	r3, r3, #4
 8002d3a:	f003 030f 	and.w	r3, r3, #15
 8002d3e:	490a      	ldr	r1, [pc, #40]	@ (8002d68 <HAL_RCC_ClockConfig+0x1cc>)
 8002d40:	5ccb      	ldrb	r3, [r1, r3]
 8002d42:	fa22 f303 	lsr.w	r3, r2, r3
 8002d46:	4a09      	ldr	r2, [pc, #36]	@ (8002d6c <HAL_RCC_ClockConfig+0x1d0>)
 8002d48:	6013      	str	r3, [r2, #0]

  /* Configure the source of time base considering new system clocks settings*/
  HAL_InitTick(uwTickPrio);
 8002d4a:	4b09      	ldr	r3, [pc, #36]	@ (8002d70 <HAL_RCC_ClockConfig+0x1d4>)
 8002d4c:	681b      	ldr	r3, [r3, #0]
 8002d4e:	4618      	mov	r0, r3
 8002d50:	f7fe fdf8 	bl	8001944 <HAL_InitTick>

  return HAL_OK;
 8002d54:	2300      	movs	r3, #0
}
 8002d56:	4618      	mov	r0, r3
 8002d58:	3710      	adds	r7, #16
 8002d5a:	46bd      	mov	sp, r7
 8002d5c:	bd80      	pop	{r7, pc}
 8002d5e:	bf00      	nop
 8002d60:	40023c00 	.word	0x40023c00
 8002d64:	40023800 	.word	0x40023800
 8002d68:	08007b34 	.word	0x08007b34
 8002d6c:	20000000 	.word	0x20000000
 8002d70:	20000004 	.word	0x20000004

08002d74 <HAL_RCC_GetSysClockFreq>:
  *
  *
  * @retval SYSCLK frequency
  */
uint32_t HAL_RCC_GetSysClockFreq(void)
{
 8002d74:	e92d 4fb0 	stmdb	sp!, {r4, r5, r7, r8, r9, sl, fp, lr}
 8002d78:	b090      	sub	sp, #64	@ 0x40
 8002d7a:	af00      	add	r7, sp, #0
  uint32_t pllm = 0, pllvco = 0, pllp = 0;
 8002d7c:	2300      	movs	r3, #0
 8002d7e:	637b      	str	r3, [r7, #52]	@ 0x34
 8002d80:	2300      	movs	r3, #0
 8002d82:	63fb      	str	r3, [r7, #60]	@ 0x3c
 8002d84:	2300      	movs	r3, #0
 8002d86:	633b      	str	r3, [r7, #48]	@ 0x30
  uint32_t sysclockfreq = 0;
 8002d88:	2300      	movs	r3, #0
 8002d8a:	63bb      	str	r3, [r7, #56]	@ 0x38

  /* Get SYSCLK source -------------------------------------------------------*/
  switch (RCC->CFGR & RCC_CFGR_SWS)
 8002d8c:	4b59      	ldr	r3, [pc, #356]	@ (8002ef4 <HAL_RCC_GetSysClockFreq+0x180>)
 8002d8e:	689b      	ldr	r3, [r3, #8]
 8002d90:	f003 030c 	and.w	r3, r3, #12
 8002d94:	2b08      	cmp	r3, #8
 8002d96:	d00d      	beq.n	8002db4 <HAL_RCC_GetSysClockFreq+0x40>
 8002d98:	2b08      	cmp	r3, #8
 8002d9a:	f200 80a1 	bhi.w	8002ee0 <HAL_RCC_GetSysClockFreq+0x16c>
 8002d9e:	2b00      	cmp	r3, #0
 8002da0:	d002      	beq.n	8002da8 <HAL_RCC_GetSysClockFreq+0x34>
 8002da2:	2b04      	cmp	r3, #4
 8002da4:	d003      	beq.n	8002dae <HAL_RCC_GetSysClockFreq+0x3a>
 8002da6:	e09b      	b.n	8002ee0 <HAL_RCC_GetSysClockFreq+0x16c>
  {
    case RCC_SYSCLKSOURCE_STATUS_HSI:  /* HSI used as system clock source */
    {
      sysclockfreq = HSI_VALUE;
 8002da8:	4b53      	ldr	r3, [pc, #332]	@ (8002ef8 <HAL_RCC_GetSysClockFreq+0x184>)
 8002daa:	63bb      	str	r3, [r7, #56]	@ 0x38
      break;
 8002dac:	e09b      	b.n	8002ee6 <HAL_RCC_GetSysClockFreq+0x172>
    }
    case RCC_SYSCLKSOURCE_STATUS_HSE:  /* HSE used as system clock  source */
    {
      sysclockfreq = HSE_VALUE;
 8002dae:	4b53      	ldr	r3, [pc, #332]	@ (8002efc <HAL_RCC_GetSysClockFreq+0x188>)
 8002db0:	63bb      	str	r3, [r7, #56]	@ 0x38
      break;
 8002db2:	e098      	b.n	8002ee6 <HAL_RCC_GetSysClockFreq+0x172>
    }
    case RCC_SYSCLKSOURCE_STATUS_PLLCLK:  /* PLL used as system clock  source */
    {
      /* PLL_VCO = (HSE_VALUE or HSI_VALUE / PLLM) * PLLN
      SYSCLK = PLL_VCO / PLLP */
      pllm = RCC->PLLCFGR & RCC_PLLCFGR_PLLM;
 8002db4:	4b4f      	ldr	r3, [pc, #316]	@ (8002ef4 <HAL_RCC_GetSysClockFreq+0x180>)
 8002db6:	685b      	ldr	r3, [r3, #4]
 8002db8:	f003 033f 	and.w	r3, r3, #63	@ 0x3f
 8002dbc:	637b      	str	r3, [r7, #52]	@ 0x34
      if (__HAL_RCC_GET_PLL_OSCSOURCE() != RCC_PLLCFGR_PLLSRC_HSI)
 8002dbe:	4b4d      	ldr	r3, [pc, #308]	@ (8002ef4 <HAL_RCC_GetSysClockFreq+0x180>)
 8002dc0:	685b      	ldr	r3, [r3, #4]
 8002dc2:	f403 0380 	and.w	r3, r3, #4194304	@ 0x400000
 8002dc6:	2b00      	cmp	r3, #0
 8002dc8:	d028      	beq.n	8002e1c <HAL_RCC_GetSysClockFreq+0xa8>
      {
        /* HSE used as PLL clock source */
        pllvco = (uint32_t)((((uint64_t) HSE_VALUE * ((uint64_t)((RCC->PLLCFGR & RCC_PLLCFGR_PLLN) >> RCC_PLLCFGR_PLLN_Pos)))) / (uint64_t)pllm);
 8002dca:	4b4a      	ldr	r3, [pc, #296]	@ (8002ef4 <HAL_RCC_GetSysClockFreq+0x180>)
 8002dcc:	685b      	ldr	r3, [r3, #4]
 8002dce:	099b      	lsrs	r3, r3, #6
 8002dd0:	2200      	movs	r2, #0
 8002dd2:	623b      	str	r3, [r7, #32]
 8002dd4:	627a      	str	r2, [r7, #36]	@ 0x24
 8002dd6:	6a3b      	ldr	r3, [r7, #32]
 8002dd8:	f3c3 0008 	ubfx	r0, r3, #0, #9
 8002ddc:	2100      	movs	r1, #0
 8002dde:	4b47      	ldr	r3, [pc, #284]	@ (8002efc <HAL_RCC_GetSysClockFreq+0x188>)
 8002de0:	fb03 f201 	mul.w	r2, r3, r1
 8002de4:	2300      	movs	r3, #0
 8002de6:	fb00 f303 	mul.w	r3, r0, r3
 8002dea:	4413      	add	r3, r2
 8002dec:	4a43      	ldr	r2, [pc, #268]	@ (8002efc <HAL_RCC_GetSysClockFreq+0x188>)
 8002dee:	fba0 1202 	umull	r1, r2, r0, r2
 8002df2:	62fa      	str	r2, [r7, #44]	@ 0x2c
 8002df4:	460a      	mov	r2, r1
 8002df6:	62ba      	str	r2, [r7, #40]	@ 0x28
 8002df8:	6afa      	ldr	r2, [r7, #44]	@ 0x2c
 8002dfa:	4413      	add	r3, r2
 8002dfc:	62fb      	str	r3, [r7, #44]	@ 0x2c
 8002dfe:	6b7b      	ldr	r3, [r7, #52]	@ 0x34
 8002e00:	2200      	movs	r2, #0
 8002e02:	61bb      	str	r3, [r7, #24]
 8002e04:	61fa      	str	r2, [r7, #28]
 8002e06:	e9d7 2306 	ldrd	r2, r3, [r7, #24]
 8002e0a:	e9d7 010a 	ldrd	r0, r1, [r7, #40]	@ 0x28
 8002e0e:	f7fd f9fb 	bl	8000208 <__aeabi_uldivmod>
 8002e12:	4602      	mov	r2, r0
 8002e14:	460b      	mov	r3, r1
 8002e16:	4613      	mov	r3, r2
 8002e18:	63fb      	str	r3, [r7, #60]	@ 0x3c
 8002e1a:	e053      	b.n	8002ec4 <HAL_RCC_GetSysClockFreq+0x150>
      }
      else
      {
        /* HSI used as PLL clock source */
        pllvco = (uint32_t)((((uint64_t) HSI_VALUE * ((uint64_t)((RCC->PLLCFGR & RCC_PLLCFGR_PLLN) >> RCC_PLLCFGR_PLLN_Pos)))) / (uint64_t)pllm);
 8002e1c:	4b35      	ldr	r3, [pc, #212]	@ (8002ef4 <HAL_RCC_GetSysClockFreq+0x180>)
 8002e1e:	685b      	ldr	r3, [r3, #4]
 8002e20:	099b      	lsrs	r3, r3, #6
 8002e22:	2200      	movs	r2, #0
 8002e24:	613b      	str	r3, [r7, #16]
 8002e26:	617a      	str	r2, [r7, #20]
 8002e28:	693b      	ldr	r3, [r7, #16]
 8002e2a:	f3c3 0a08 	ubfx	sl, r3, #0, #9
 8002e2e:	f04f 0b00 	mov.w	fp, #0
 8002e32:	4652      	mov	r2, sl
 8002e34:	465b      	mov	r3, fp
 8002e36:	f04f 0000 	mov.w	r0, #0
 8002e3a:	f04f 0100 	mov.w	r1, #0
 8002e3e:	0159      	lsls	r1, r3, #5
 8002e40:	ea41 61d2 	orr.w	r1, r1, r2, lsr #27
 8002e44:	0150      	lsls	r0, r2, #5
 8002e46:	4602      	mov	r2, r0
 8002e48:	460b      	mov	r3, r1
 8002e4a:	ebb2 080a 	subs.w	r8, r2, sl
 8002e4e:	eb63 090b 	sbc.w	r9, r3, fp
 8002e52:	f04f 0200 	mov.w	r2, #0
 8002e56:	f04f 0300 	mov.w	r3, #0
 8002e5a:	ea4f 1389 	mov.w	r3, r9, lsl #6
 8002e5e:	ea43 6398 	orr.w	r3, r3, r8, lsr #26
 8002e62:	ea4f 1288 	mov.w	r2, r8, lsl #6
 8002e66:	ebb2 0408 	subs.w	r4, r2, r8
 8002e6a:	eb63 0509 	sbc.w	r5, r3, r9
 8002e6e:	f04f 0200 	mov.w	r2, #0
 8002e72:	f04f 0300 	mov.w	r3, #0
 8002e76:	00eb      	lsls	r3, r5, #3
 8002e78:	ea43 7354 	orr.w	r3, r3, r4, lsr #29
 8002e7c:	00e2      	lsls	r2, r4, #3
 8002e7e:	4614      	mov	r4, r2
 8002e80:	461d      	mov	r5, r3
 8002e82:	eb14 030a 	adds.w	r3, r4, sl
 8002e86:	603b      	str	r3, [r7, #0]
 8002e88:	eb45 030b 	adc.w	r3, r5, fp
 8002e8c:	607b      	str	r3, [r7, #4]
 8002e8e:	f04f 0200 	mov.w	r2, #0
 8002e92:	f04f 0300 	mov.w	r3, #0
 8002e96:	e9d7 4500 	ldrd	r4, r5, [r7]
 8002e9a:	4629      	mov	r1, r5
 8002e9c:	028b      	lsls	r3, r1, #10
 8002e9e:	4621      	mov	r1, r4
 8002ea0:	ea43 5391 	orr.w	r3, r3, r1, lsr #22
 8002ea4:	4621      	mov	r1, r4
 8002ea6:	028a      	lsls	r2, r1, #10
 8002ea8:	4610      	mov	r0, r2
 8002eaa:	4619      	mov	r1, r3
 8002eac:	6b7b      	ldr	r3, [r7, #52]	@ 0x34
 8002eae:	2200      	movs	r2, #0
 8002eb0:	60bb      	str	r3, [r7, #8]
 8002eb2:	60fa      	str	r2, [r7, #12]
 8002eb4:	e9d7 2302 	ldrd	r2, r3, [r7, #8]
 8002eb8:	f7fd f9a6 	bl	8000208 <__aeabi_uldivmod>
 8002ebc:	4602      	mov	r2, r0
 8002ebe:	460b      	mov	r3, r1
 8002ec0:	4613      	mov	r3, r2
 8002ec2:	63fb      	str	r3, [r7, #60]	@ 0x3c
      }
      pllp = ((((RCC->PLLCFGR & RCC_PLLCFGR_PLLP) >> RCC_PLLCFGR_PLLP_Pos) + 1) * 2);
 8002ec4:	4b0b      	ldr	r3, [pc, #44]	@ (8002ef4 <HAL_RCC_GetSysClockFreq+0x180>)
 8002ec6:	685b      	ldr	r3, [r3, #4]
 8002ec8:	0c1b      	lsrs	r3, r3, #16
 8002eca:	f003 0303 	and.w	r3, r3, #3
 8002ece:	3301      	adds	r3, #1
 8002ed0:	005b      	lsls	r3, r3, #1
 8002ed2:	633b      	str	r3, [r7, #48]	@ 0x30

      sysclockfreq = pllvco / pllp;
 8002ed4:	6bfa      	ldr	r2, [r7, #60]	@ 0x3c
 8002ed6:	6b3b      	ldr	r3, [r7, #48]	@ 0x30
 8002ed8:	fbb2 f3f3 	udiv	r3, r2, r3
 8002edc:	63bb      	str	r3, [r7, #56]	@ 0x38
      break;
 8002ede:	e002      	b.n	8002ee6 <HAL_RCC_GetSysClockFreq+0x172>
    }
    default:
    {
      sysclockfreq = HSI_VALUE;
 8002ee0:	4b05      	ldr	r3, [pc, #20]	@ (8002ef8 <HAL_RCC_GetSysClockFreq+0x184>)
 8002ee2:	63bb      	str	r3, [r7, #56]	@ 0x38
      break;
 8002ee4:	bf00      	nop
    }
  }
  return sysclockfreq;
 8002ee6:	6bbb      	ldr	r3, [r7, #56]	@ 0x38
}
 8002ee8:	4618      	mov	r0, r3
 8002eea:	3740      	adds	r7, #64	@ 0x40
 8002eec:	46bd      	mov	sp, r7
 8002eee:	e8bd 8fb0 	ldmia.w	sp!, {r4, r5, r7, r8, r9, sl, fp, pc}
 8002ef2:	bf00      	nop
 8002ef4:	40023800 	.word	0x40023800
 8002ef8:	00f42400 	.word	0x00f42400
 8002efc:	017d7840 	.word	0x017d7840

08002f00 <HAL_RCC_GetHCLKFreq>:
  *         right HCLK value. Otherwise, any configuration based on this function will be incorrect.
  * @note   The SystemCoreClock CMSIS variable is used to store System Clock Frequency.
  * @retval HCLK frequency
  */
uint32_t HAL_RCC_GetHCLKFreq(void)
{
 8002f00:	b480      	push	{r7}
 8002f02:	af00      	add	r7, sp, #0
  return SystemCoreClock;
 8002f04:	4b03      	ldr	r3, [pc, #12]	@ (8002f14 <HAL_RCC_GetHCLKFreq+0x14>)
 8002f06:	681b      	ldr	r3, [r3, #0]
}
 8002f08:	4618      	mov	r0, r3
 8002f0a:	46bd      	mov	sp, r7
 8002f0c:	f85d 7b04 	ldr.w	r7, [sp], #4
 8002f10:	4770      	bx	lr
 8002f12:	bf00      	nop
 8002f14:	20000000 	.word	0x20000000

08002f18 <HAL_RCC_GetPCLK1Freq>:
  * @note   Each time PCLK1 changes, this function must be called to update the
  *         right PCLK1 value. Otherwise, any configuration based on this function will be incorrect.
  * @retval PCLK1 frequency
  */
uint32_t HAL_RCC_GetPCLK1Freq(void)
{
 8002f18:	b580      	push	{r7, lr}
 8002f1a:	af00      	add	r7, sp, #0
  /* Get HCLK source and Compute PCLK1 frequency ---------------------------*/
  return (HAL_RCC_GetHCLKFreq() >> APBPrescTable[(RCC->CFGR & RCC_CFGR_PPRE1) >> RCC_CFGR_PPRE1_Pos]);
 8002f1c:	f7ff fff0 	bl	8002f00 <HAL_RCC_GetHCLKFreq>
 8002f20:	4602      	mov	r2, r0
 8002f22:	4b05      	ldr	r3, [pc, #20]	@ (8002f38 <HAL_RCC_GetPCLK1Freq+0x20>)
 8002f24:	689b      	ldr	r3, [r3, #8]
 8002f26:	0a9b      	lsrs	r3, r3, #10
 8002f28:	f003 0307 	and.w	r3, r3, #7
 8002f2c:	4903      	ldr	r1, [pc, #12]	@ (8002f3c <HAL_RCC_GetPCLK1Freq+0x24>)
 8002f2e:	5ccb      	ldrb	r3, [r1, r3]
 8002f30:	fa22 f303 	lsr.w	r3, r2, r3
}
 8002f34:	4618      	mov	r0, r3
 8002f36:	bd80      	pop	{r7, pc}
 8002f38:	40023800 	.word	0x40023800
 8002f3c:	08007b44 	.word	0x08007b44

08002f40 <HAL_RCC_GetPCLK2Freq>:
  * @note   Each time PCLK2 changes, this function must be called to update the
  *         right PCLK2 value. Otherwise, any configuration based on this function will be incorrect.
  * @retval PCLK2 frequency
  */
uint32_t HAL_RCC_GetPCLK2Freq(void)
{
 8002f40:	b580      	push	{r7, lr}
 8002f42:	af00      	add	r7, sp, #0
  /* Get HCLK source and Compute PCLK2 frequency ---------------------------*/
  return (HAL_RCC_GetHCLKFreq() >> APBPrescTable[(RCC->CFGR & RCC_CFGR_PPRE2) >> RCC_CFGR_PPRE2_Pos]);
 8002f44:	f7ff ffdc 	bl	8002f00 <HAL_RCC_GetHCLKFreq>
 8002f48:	4602      	mov	r2, r0
 8002f4a:	4b05      	ldr	r3, [pc, #20]	@ (8002f60 <HAL_RCC_GetPCLK2Freq+0x20>)
 8002f4c:	689b      	ldr	r3, [r3, #8]
 8002f4e:	0b5b      	lsrs	r3, r3, #13
 8002f50:	f003 0307 	and.w	r3, r3, #7
 8002f54:	4903      	ldr	r1, [pc, #12]	@ (8002f64 <HAL_RCC_GetPCLK2Freq+0x24>)
 8002f56:	5ccb      	ldrb	r3, [r1, r3]
 8002f58:	fa22 f303 	lsr.w	r3, r2, r3
}
 8002f5c:	4618      	mov	r0, r3
 8002f5e:	bd80      	pop	{r7, pc}
 8002f60:	40023800 	.word	0x40023800
 8002f64:	08007b44 	.word	0x08007b44

08002f68 <HAL_RCCEx_PeriphCLKConfig>:
  *         the backup registers) are set to their reset values.
  *
  * @retval HAL status
  */
HAL_StatusTypeDef HAL_RCCEx_PeriphCLKConfig(RCC_PeriphCLKInitTypeDef  *PeriphClkInit)
{
 8002f68:	b580      	push	{r7, lr}
 8002f6a:	b088      	sub	sp, #32
 8002f6c:	af00      	add	r7, sp, #0
 8002f6e:	6078      	str	r0, [r7, #4]
  uint32_t tickstart = 0;
 8002f70:	2300      	movs	r3, #0
 8002f72:	617b      	str	r3, [r7, #20]
  uint32_t tmpreg0 = 0;
 8002f74:	2300      	movs	r3, #0
 8002f76:	613b      	str	r3, [r7, #16]
  uint32_t tmpreg1 = 0;
 8002f78:	2300      	movs	r3, #0
 8002f7a:	60fb      	str	r3, [r7, #12]
  uint32_t plli2sused = 0;
 8002f7c:	2300      	movs	r3, #0
 8002f7e:	61fb      	str	r3, [r7, #28]
  uint32_t pllsaiused = 0;
 8002f80:	2300      	movs	r3, #0
 8002f82:	61bb      	str	r3, [r7, #24]

  /* Check the parameters */
  assert_param(IS_RCC_PERIPHCLOCK(PeriphClkInit->PeriphClockSelection));

  /*----------------------------------- I2S configuration ----------------------------------*/
  if(((PeriphClkInit->PeriphClockSelection) & RCC_PERIPHCLK_I2S) == (RCC_PERIPHCLK_I2S))
 8002f84:	687b      	ldr	r3, [r7, #4]
 8002f86:	681b      	ldr	r3, [r3, #0]
 8002f88:	f003 0301 	and.w	r3, r3, #1
 8002f8c:	2b00      	cmp	r3, #0
 8002f8e:	d012      	beq.n	8002fb6 <HAL_RCCEx_PeriphCLKConfig+0x4e>
  {
    /* Check the parameters */
    assert_param(IS_RCC_I2SCLKSOURCE(PeriphClkInit->I2sClockSelection));

    /* Configure I2S Clock source */
    __HAL_RCC_I2S_CONFIG(PeriphClkInit->I2sClockSelection);
 8002f90:	4b69      	ldr	r3, [pc, #420]	@ (8003138 <HAL_RCCEx_PeriphCLKConfig+0x1d0>)
 8002f92:	689b      	ldr	r3, [r3, #8]
 8002f94:	4a68      	ldr	r2, [pc, #416]	@ (8003138 <HAL_RCCEx_PeriphCLKConfig+0x1d0>)
 8002f96:	f423 0300 	bic.w	r3, r3, #8388608	@ 0x800000
 8002f9a:	6093      	str	r3, [r2, #8]
 8002f9c:	4b66      	ldr	r3, [pc, #408]	@ (8003138 <HAL_RCCEx_PeriphCLKConfig+0x1d0>)
 8002f9e:	689a      	ldr	r2, [r3, #8]
 8002fa0:	687b      	ldr	r3, [r7, #4]
 8002fa2:	6b5b      	ldr	r3, [r3, #52]	@ 0x34
 8002fa4:	4964      	ldr	r1, [pc, #400]	@ (8003138 <HAL_RCCEx_PeriphCLKConfig+0x1d0>)
 8002fa6:	4313      	orrs	r3, r2
 8002fa8:	608b      	str	r3, [r1, #8]

    /* Enable the PLLI2S when it's used as clock source for I2S */
    if(PeriphClkInit->I2sClockSelection == RCC_I2SCLKSOURCE_PLLI2S)
 8002faa:	687b      	ldr	r3, [r7, #4]
 8002fac:	6b5b      	ldr	r3, [r3, #52]	@ 0x34
 8002fae:	2b00      	cmp	r3, #0
 8002fb0:	d101      	bne.n	8002fb6 <HAL_RCCEx_PeriphCLKConfig+0x4e>
    {
      plli2sused = 1;
 8002fb2:	2301      	movs	r3, #1
 8002fb4:	61fb      	str	r3, [r7, #28]
    }
  }

  /*------------------------------------ SAI1 configuration --------------------------------------*/
  if(((PeriphClkInit->PeriphClockSelection) & RCC_PERIPHCLK_SAI1) == (RCC_PERIPHCLK_SAI1))
 8002fb6:	687b      	ldr	r3, [r7, #4]
 8002fb8:	681b      	ldr	r3, [r3, #0]
 8002fba:	f403 2300 	and.w	r3, r3, #524288	@ 0x80000
 8002fbe:	2b00      	cmp	r3, #0
 8002fc0:	d017      	beq.n	8002ff2 <HAL_RCCEx_PeriphCLKConfig+0x8a>
  {
    /* Check the parameters */
    assert_param(IS_RCC_SAI1CLKSOURCE(PeriphClkInit->Sai1ClockSelection));

    /* Configure SAI1 Clock source */
    __HAL_RCC_SAI1_CONFIG(PeriphClkInit->Sai1ClockSelection);
 8002fc2:	4b5d      	ldr	r3, [pc, #372]	@ (8003138 <HAL_RCCEx_PeriphCLKConfig+0x1d0>)
 8002fc4:	f8d3 308c 	ldr.w	r3, [r3, #140]	@ 0x8c
 8002fc8:	f423 1240 	bic.w	r2, r3, #3145728	@ 0x300000
 8002fcc:	687b      	ldr	r3, [r7, #4]
 8002fce:	6bdb      	ldr	r3, [r3, #60]	@ 0x3c
 8002fd0:	4959      	ldr	r1, [pc, #356]	@ (8003138 <HAL_RCCEx_PeriphCLKConfig+0x1d0>)
 8002fd2:	4313      	orrs	r3, r2
 8002fd4:	f8c1 308c 	str.w	r3, [r1, #140]	@ 0x8c
    /* Enable the PLLI2S when it's used as clock source for SAI */
    if(PeriphClkInit->Sai1ClockSelection == RCC_SAI1CLKSOURCE_PLLI2S)
 8002fd8:	687b      	ldr	r3, [r7, #4]
 8002fda:	6bdb      	ldr	r3, [r3, #60]	@ 0x3c
 8002fdc:	f5b3 1f80 	cmp.w	r3, #1048576	@ 0x100000
 8002fe0:	d101      	bne.n	8002fe6 <HAL_RCCEx_PeriphCLKConfig+0x7e>
    {
      plli2sused = 1;
 8002fe2:	2301      	movs	r3, #1
 8002fe4:	61fb      	str	r3, [r7, #28]
    }
    /* Enable the PLLSAI when it's used as clock source for SAI */
    if(PeriphClkInit->Sai1ClockSelection == RCC_SAI1CLKSOURCE_PLLSAI)
 8002fe6:	687b      	ldr	r3, [r7, #4]
 8002fe8:	6bdb      	ldr	r3, [r3, #60]	@ 0x3c
 8002fea:	2b00      	cmp	r3, #0
 8002fec:	d101      	bne.n	8002ff2 <HAL_RCCEx_PeriphCLKConfig+0x8a>
    {
      pllsaiused = 1;
 8002fee:	2301      	movs	r3, #1
 8002ff0:	61bb      	str	r3, [r7, #24]
    }
  }

  /*------------------------------------ SAI2 configuration --------------------------------------*/
  if(((PeriphClkInit->PeriphClockSelection) & RCC_PERIPHCLK_SAI2) == (RCC_PERIPHCLK_SAI2))
 8002ff2:	687b      	ldr	r3, [r7, #4]
 8002ff4:	681b      	ldr	r3, [r3, #0]
 8002ff6:	f403 1380 	and.w	r3, r3, #1048576	@ 0x100000
 8002ffa:	2b00      	cmp	r3, #0
 8002ffc:	d017      	beq.n	800302e <HAL_RCCEx_PeriphCLKConfig+0xc6>
  {
    /* Check the parameters */
    assert_param(IS_RCC_SAI2CLKSOURCE(PeriphClkInit->Sai2ClockSelection));

    /* Configure SAI2 Clock source */
    __HAL_RCC_SAI2_CONFIG(PeriphClkInit->Sai2ClockSelection);
 8002ffe:	4b4e      	ldr	r3, [pc, #312]	@ (8003138 <HAL_RCCEx_PeriphCLKConfig+0x1d0>)
 8003000:	f8d3 308c 	ldr.w	r3, [r3, #140]	@ 0x8c
 8003004:	f423 0240 	bic.w	r2, r3, #12582912	@ 0xc00000
 8003008:	687b      	ldr	r3, [r7, #4]
 800300a:	6c1b      	ldr	r3, [r3, #64]	@ 0x40
 800300c:	494a      	ldr	r1, [pc, #296]	@ (8003138 <HAL_RCCEx_PeriphCLKConfig+0x1d0>)
 800300e:	4313      	orrs	r3, r2
 8003010:	f8c1 308c 	str.w	r3, [r1, #140]	@ 0x8c

    /* Enable the PLLI2S when it's used as clock source for SAI */
    if(PeriphClkInit->Sai2ClockSelection == RCC_SAI2CLKSOURCE_PLLI2S)
 8003014:	687b      	ldr	r3, [r7, #4]
 8003016:	6c1b      	ldr	r3, [r3, #64]	@ 0x40
 8003018:	f5b3 0f80 	cmp.w	r3, #4194304	@ 0x400000
 800301c:	d101      	bne.n	8003022 <HAL_RCCEx_PeriphCLKConfig+0xba>
    {
      plli2sused = 1;
 800301e:	2301      	movs	r3, #1
 8003020:	61fb      	str	r3, [r7, #28]
    }
    /* Enable the PLLSAI when it's used as clock source for SAI */
    if(PeriphClkInit->Sai2ClockSelection == RCC_SAI2CLKSOURCE_PLLSAI)
 8003022:	687b      	ldr	r3, [r7, #4]
 8003024:	6c1b      	ldr	r3, [r3, #64]	@ 0x40
 8003026:	2b00      	cmp	r3, #0
 8003028:	d101      	bne.n	800302e <HAL_RCCEx_PeriphCLKConfig+0xc6>
    {
      pllsaiused = 1;
 800302a:	2301      	movs	r3, #1
 800302c:	61bb      	str	r3, [r7, #24]
    }
  }

  /*-------------------------------------- SPDIF-RX Configuration -----------------------------------*/
  if(((PeriphClkInit->PeriphClockSelection) & RCC_PERIPHCLK_SPDIFRX) == RCC_PERIPHCLK_SPDIFRX)
 800302e:	687b      	ldr	r3, [r7, #4]
 8003030:	681b      	ldr	r3, [r3, #0]
 8003032:	f003 7380 	and.w	r3, r3, #16777216	@ 0x1000000
 8003036:	2b00      	cmp	r3, #0
 8003038:	d001      	beq.n	800303e <HAL_RCCEx_PeriphCLKConfig+0xd6>
  {
      plli2sused = 1;
 800303a:	2301      	movs	r3, #1
 800303c:	61fb      	str	r3, [r7, #28]
  }

  /*------------------------------------ RTC configuration --------------------------------------*/
  if(((PeriphClkInit->PeriphClockSelection) & RCC_PERIPHCLK_RTC) == (RCC_PERIPHCLK_RTC))
 800303e:	687b      	ldr	r3, [r7, #4]
 8003040:	681b      	ldr	r3, [r3, #0]
 8003042:	f003 0320 	and.w	r3, r3, #32
 8003046:	2b00      	cmp	r3, #0
 8003048:	f000 808b 	beq.w	8003162 <HAL_RCCEx_PeriphCLKConfig+0x1fa>
  {
    /* Check for RTC Parameters used to output RTCCLK */
    assert_param(IS_RCC_RTCCLKSOURCE(PeriphClkInit->RTCClockSelection));

    /* Enable Power Clock*/
    __HAL_RCC_PWR_CLK_ENABLE();
 800304c:	4b3a      	ldr	r3, [pc, #232]	@ (8003138 <HAL_RCCEx_PeriphCLKConfig+0x1d0>)
 800304e:	6c1b      	ldr	r3, [r3, #64]	@ 0x40
 8003050:	4a39      	ldr	r2, [pc, #228]	@ (8003138 <HAL_RCCEx_PeriphCLKConfig+0x1d0>)
 8003052:	f043 5380 	orr.w	r3, r3, #268435456	@ 0x10000000
 8003056:	6413      	str	r3, [r2, #64]	@ 0x40
 8003058:	4b37      	ldr	r3, [pc, #220]	@ (8003138 <HAL_RCCEx_PeriphCLKConfig+0x1d0>)
 800305a:	6c1b      	ldr	r3, [r3, #64]	@ 0x40
 800305c:	f003 5380 	and.w	r3, r3, #268435456	@ 0x10000000
 8003060:	60bb      	str	r3, [r7, #8]
 8003062:	68bb      	ldr	r3, [r7, #8]

    /* Enable write access to Backup domain */
    PWR->CR1 |= PWR_CR1_DBP;
 8003064:	4b35      	ldr	r3, [pc, #212]	@ (800313c <HAL_RCCEx_PeriphCLKConfig+0x1d4>)
 8003066:	681b      	ldr	r3, [r3, #0]
 8003068:	4a34      	ldr	r2, [pc, #208]	@ (800313c <HAL_RCCEx_PeriphCLKConfig+0x1d4>)
 800306a:	f443 7380 	orr.w	r3, r3, #256	@ 0x100
 800306e:	6013      	str	r3, [r2, #0]

    /* Get Start Tick*/
    tickstart = HAL_GetTick();
 8003070:	f7fe fcac 	bl	80019cc <HAL_GetTick>
 8003074:	6178      	str	r0, [r7, #20]

    /* Wait for Backup domain Write protection disable */
    while((PWR->CR1 & PWR_CR1_DBP) == RESET)
 8003076:	e008      	b.n	800308a <HAL_RCCEx_PeriphCLKConfig+0x122>
    {
      if((HAL_GetTick() - tickstart) > RCC_DBP_TIMEOUT_VALUE)
 8003078:	f7fe fca8 	bl	80019cc <HAL_GetTick>
 800307c:	4602      	mov	r2, r0
 800307e:	697b      	ldr	r3, [r7, #20]
 8003080:	1ad3      	subs	r3, r2, r3
 8003082:	2b64      	cmp	r3, #100	@ 0x64
 8003084:	d901      	bls.n	800308a <HAL_RCCEx_PeriphCLKConfig+0x122>
      {
        return HAL_TIMEOUT;
 8003086:	2303      	movs	r3, #3
 8003088:	e357      	b.n	800373a <HAL_RCCEx_PeriphCLKConfig+0x7d2>
    while((PWR->CR1 & PWR_CR1_DBP) == RESET)
 800308a:	4b2c      	ldr	r3, [pc, #176]	@ (800313c <HAL_RCCEx_PeriphCLKConfig+0x1d4>)
 800308c:	681b      	ldr	r3, [r3, #0]
 800308e:	f403 7380 	and.w	r3, r3, #256	@ 0x100
 8003092:	2b00      	cmp	r3, #0
 8003094:	d0f0      	beq.n	8003078 <HAL_RCCEx_PeriphCLKConfig+0x110>
      }
    }

    /* Reset the Backup domain only if the RTC Clock source selection is modified */
    tmpreg0 = (RCC->BDCR & RCC_BDCR_RTCSEL);
 8003096:	4b28      	ldr	r3, [pc, #160]	@ (8003138 <HAL_RCCEx_PeriphCLKConfig+0x1d0>)
 8003098:	6f1b      	ldr	r3, [r3, #112]	@ 0x70
 800309a:	f403 7340 	and.w	r3, r3, #768	@ 0x300
 800309e:	613b      	str	r3, [r7, #16]

    if((tmpreg0 != 0x00000000U) && (tmpreg0 != (PeriphClkInit->RTCClockSelection & RCC_BDCR_RTCSEL)))
 80030a0:	693b      	ldr	r3, [r7, #16]
 80030a2:	2b00      	cmp	r3, #0
 80030a4:	d035      	beq.n	8003112 <HAL_RCCEx_PeriphCLKConfig+0x1aa>
 80030a6:	687b      	ldr	r3, [r7, #4]
 80030a8:	6b1b      	ldr	r3, [r3, #48]	@ 0x30
 80030aa:	f403 7340 	and.w	r3, r3, #768	@ 0x300
 80030ae:	693a      	ldr	r2, [r7, #16]
 80030b0:	429a      	cmp	r2, r3
 80030b2:	d02e      	beq.n	8003112 <HAL_RCCEx_PeriphCLKConfig+0x1aa>
    {
      /* Store the content of BDCR register before the reset of Backup Domain */
      tmpreg0 = (RCC->BDCR & ~(RCC_BDCR_RTCSEL));
 80030b4:	4b20      	ldr	r3, [pc, #128]	@ (8003138 <HAL_RCCEx_PeriphCLKConfig+0x1d0>)
 80030b6:	6f1b      	ldr	r3, [r3, #112]	@ 0x70
 80030b8:	f423 7340 	bic.w	r3, r3, #768	@ 0x300
 80030bc:	613b      	str	r3, [r7, #16]

      /* RTC Clock selection can be changed only if the Backup Domain is reset */
      __HAL_RCC_BACKUPRESET_FORCE();
 80030be:	4b1e      	ldr	r3, [pc, #120]	@ (8003138 <HAL_RCCEx_PeriphCLKConfig+0x1d0>)
 80030c0:	6f1b      	ldr	r3, [r3, #112]	@ 0x70
 80030c2:	4a1d      	ldr	r2, [pc, #116]	@ (8003138 <HAL_RCCEx_PeriphCLKConfig+0x1d0>)
 80030c4:	f443 3380 	orr.w	r3, r3, #65536	@ 0x10000
 80030c8:	6713      	str	r3, [r2, #112]	@ 0x70
      __HAL_RCC_BACKUPRESET_RELEASE();
 80030ca:	4b1b      	ldr	r3, [pc, #108]	@ (8003138 <HAL_RCCEx_PeriphCLKConfig+0x1d0>)
 80030cc:	6f1b      	ldr	r3, [r3, #112]	@ 0x70
 80030ce:	4a1a      	ldr	r2, [pc, #104]	@ (8003138 <HAL_RCCEx_PeriphCLKConfig+0x1d0>)
 80030d0:	f423 3380 	bic.w	r3, r3, #65536	@ 0x10000
 80030d4:	6713      	str	r3, [r2, #112]	@ 0x70

      /* Restore the Content of BDCR register */
      RCC->BDCR = tmpreg0;
 80030d6:	4a18      	ldr	r2, [pc, #96]	@ (8003138 <HAL_RCCEx_PeriphCLKConfig+0x1d0>)
 80030d8:	693b      	ldr	r3, [r7, #16]
 80030da:	6713      	str	r3, [r2, #112]	@ 0x70

      /* Wait for LSE reactivation if LSE was enable prior to Backup Domain reset */
      if (HAL_IS_BIT_SET(RCC->BDCR, RCC_BDCR_LSEON))
 80030dc:	4b16      	ldr	r3, [pc, #88]	@ (8003138 <HAL_RCCEx_PeriphCLKConfig+0x1d0>)
 80030de:	6f1b      	ldr	r3, [r3, #112]	@ 0x70
 80030e0:	f003 0301 	and.w	r3, r3, #1
 80030e4:	2b01      	cmp	r3, #1
 80030e6:	d114      	bne.n	8003112 <HAL_RCCEx_PeriphCLKConfig+0x1aa>
      {
        /* Get Start Tick*/
        tickstart = HAL_GetTick();
 80030e8:	f7fe fc70 	bl	80019cc <HAL_GetTick>
 80030ec:	6178      	str	r0, [r7, #20]

        /* Wait till LSE is ready */
        while(__HAL_RCC_GET_FLAG(RCC_FLAG_LSERDY) == RESET)
 80030ee:	e00a      	b.n	8003106 <HAL_RCCEx_PeriphCLKConfig+0x19e>
        {
          if((HAL_GetTick() - tickstart ) > RCC_LSE_TIMEOUT_VALUE)
 80030f0:	f7fe fc6c 	bl	80019cc <HAL_GetTick>
 80030f4:	4602      	mov	r2, r0
 80030f6:	697b      	ldr	r3, [r7, #20]
 80030f8:	1ad3      	subs	r3, r2, r3
 80030fa:	f241 3288 	movw	r2, #5000	@ 0x1388
 80030fe:	4293      	cmp	r3, r2
 8003100:	d901      	bls.n	8003106 <HAL_RCCEx_PeriphCLKConfig+0x19e>
          {
            return HAL_TIMEOUT;
 8003102:	2303      	movs	r3, #3
 8003104:	e319      	b.n	800373a <HAL_RCCEx_PeriphCLKConfig+0x7d2>
        while(__HAL_RCC_GET_FLAG(RCC_FLAG_LSERDY) == RESET)
 8003106:	4b0c      	ldr	r3, [pc, #48]	@ (8003138 <HAL_RCCEx_PeriphCLKConfig+0x1d0>)
 8003108:	6f1b      	ldr	r3, [r3, #112]	@ 0x70
 800310a:	f003 0302 	and.w	r3, r3, #2
 800310e:	2b00      	cmp	r3, #0
 8003110:	d0ee      	beq.n	80030f0 <HAL_RCCEx_PeriphCLKConfig+0x188>
          }
        }
      }
    }
    __HAL_RCC_RTC_CONFIG(PeriphClkInit->RTCClockSelection);
 8003112:	687b      	ldr	r3, [r7, #4]
 8003114:	6b1b      	ldr	r3, [r3, #48]	@ 0x30
 8003116:	f403 7340 	and.w	r3, r3, #768	@ 0x300
 800311a:	f5b3 7f40 	cmp.w	r3, #768	@ 0x300
 800311e:	d111      	bne.n	8003144 <HAL_RCCEx_PeriphCLKConfig+0x1dc>
 8003120:	4b05      	ldr	r3, [pc, #20]	@ (8003138 <HAL_RCCEx_PeriphCLKConfig+0x1d0>)
 8003122:	689b      	ldr	r3, [r3, #8]
 8003124:	f423 12f8 	bic.w	r2, r3, #2031616	@ 0x1f0000
 8003128:	687b      	ldr	r3, [r7, #4]
 800312a:	6b19      	ldr	r1, [r3, #48]	@ 0x30
 800312c:	4b04      	ldr	r3, [pc, #16]	@ (8003140 <HAL_RCCEx_PeriphCLKConfig+0x1d8>)
 800312e:	400b      	ands	r3, r1
 8003130:	4901      	ldr	r1, [pc, #4]	@ (8003138 <HAL_RCCEx_PeriphCLKConfig+0x1d0>)
 8003132:	4313      	orrs	r3, r2
 8003134:	608b      	str	r3, [r1, #8]
 8003136:	e00b      	b.n	8003150 <HAL_RCCEx_PeriphCLKConfig+0x1e8>
 8003138:	40023800 	.word	0x40023800
 800313c:	40007000 	.word	0x40007000
 8003140:	0ffffcff 	.word	0x0ffffcff
 8003144:	4baa      	ldr	r3, [pc, #680]	@ (80033f0 <HAL_RCCEx_PeriphCLKConfig+0x488>)
 8003146:	689b      	ldr	r3, [r3, #8]
 8003148:	4aa9      	ldr	r2, [pc, #676]	@ (80033f0 <HAL_RCCEx_PeriphCLKConfig+0x488>)
 800314a:	f423 13f8 	bic.w	r3, r3, #2031616	@ 0x1f0000
 800314e:	6093      	str	r3, [r2, #8]
 8003150:	4ba7      	ldr	r3, [pc, #668]	@ (80033f0 <HAL_RCCEx_PeriphCLKConfig+0x488>)
 8003152:	6f1a      	ldr	r2, [r3, #112]	@ 0x70
 8003154:	687b      	ldr	r3, [r7, #4]
 8003156:	6b1b      	ldr	r3, [r3, #48]	@ 0x30
 8003158:	f3c3 030b 	ubfx	r3, r3, #0, #12
 800315c:	49a4      	ldr	r1, [pc, #656]	@ (80033f0 <HAL_RCCEx_PeriphCLKConfig+0x488>)
 800315e:	4313      	orrs	r3, r2
 8003160:	670b      	str	r3, [r1, #112]	@ 0x70
  }

  /*------------------------------------ TIM configuration --------------------------------------*/
  if(((PeriphClkInit->PeriphClockSelection) & RCC_PERIPHCLK_TIM) == (RCC_PERIPHCLK_TIM))
 8003162:	687b      	ldr	r3, [r7, #4]
 8003164:	681b      	ldr	r3, [r3, #0]
 8003166:	f003 0310 	and.w	r3, r3, #16
 800316a:	2b00      	cmp	r3, #0
 800316c:	d010      	beq.n	8003190 <HAL_RCCEx_PeriphCLKConfig+0x228>
  {
    /* Check the parameters */
    assert_param(IS_RCC_TIMPRES(PeriphClkInit->TIMPresSelection));

    /* Configure Timer Prescaler */
    __HAL_RCC_TIMCLKPRESCALER(PeriphClkInit->TIMPresSelection);
 800316e:	4ba0      	ldr	r3, [pc, #640]	@ (80033f0 <HAL_RCCEx_PeriphCLKConfig+0x488>)
 8003170:	f8d3 308c 	ldr.w	r3, [r3, #140]	@ 0x8c
 8003174:	4a9e      	ldr	r2, [pc, #632]	@ (80033f0 <HAL_RCCEx_PeriphCLKConfig+0x488>)
 8003176:	f023 7380 	bic.w	r3, r3, #16777216	@ 0x1000000
 800317a:	f8c2 308c 	str.w	r3, [r2, #140]	@ 0x8c
 800317e:	4b9c      	ldr	r3, [pc, #624]	@ (80033f0 <HAL_RCCEx_PeriphCLKConfig+0x488>)
 8003180:	f8d3 208c 	ldr.w	r2, [r3, #140]	@ 0x8c
 8003184:	687b      	ldr	r3, [r7, #4]
 8003186:	6b9b      	ldr	r3, [r3, #56]	@ 0x38
 8003188:	4999      	ldr	r1, [pc, #612]	@ (80033f0 <HAL_RCCEx_PeriphCLKConfig+0x488>)
 800318a:	4313      	orrs	r3, r2
 800318c:	f8c1 308c 	str.w	r3, [r1, #140]	@ 0x8c
  }

  /*-------------------------------------- I2C1 Configuration -----------------------------------*/
  if(((PeriphClkInit->PeriphClockSelection) & RCC_PERIPHCLK_I2C1) == RCC_PERIPHCLK_I2C1)
 8003190:	687b      	ldr	r3, [r7, #4]
 8003192:	681b      	ldr	r3, [r3, #0]
 8003194:	f403 4380 	and.w	r3, r3, #16384	@ 0x4000
 8003198:	2b00      	cmp	r3, #0
 800319a:	d00a      	beq.n	80031b2 <HAL_RCCEx_PeriphCLKConfig+0x24a>
  {
    /* Check the parameters */
    assert_param(IS_RCC_I2C1CLKSOURCE(PeriphClkInit->I2c1ClockSelection));

    /* Configure the I2C1 clock source */
    __HAL_RCC_I2C1_CONFIG(PeriphClkInit->I2c1ClockSelection);
 800319c:	4b94      	ldr	r3, [pc, #592]	@ (80033f0 <HAL_RCCEx_PeriphCLKConfig+0x488>)
 800319e:	f8d3 3090 	ldr.w	r3, [r3, #144]	@ 0x90
 80031a2:	f423 3240 	bic.w	r2, r3, #196608	@ 0x30000
 80031a6:	687b      	ldr	r3, [r7, #4]
 80031a8:	6e5b      	ldr	r3, [r3, #100]	@ 0x64
 80031aa:	4991      	ldr	r1, [pc, #580]	@ (80033f0 <HAL_RCCEx_PeriphCLKConfig+0x488>)
 80031ac:	4313      	orrs	r3, r2
 80031ae:	f8c1 3090 	str.w	r3, [r1, #144]	@ 0x90
  }

  /*-------------------------------------- I2C2 Configuration -----------------------------------*/
  if(((PeriphClkInit->PeriphClockSelection) & RCC_PERIPHCLK_I2C2) == RCC_PERIPHCLK_I2C2)
 80031b2:	687b      	ldr	r3, [r7, #4]
 80031b4:	681b      	ldr	r3, [r3, #0]
 80031b6:	f403 4300 	and.w	r3, r3, #32768	@ 0x8000
 80031ba:	2b00      	cmp	r3, #0
 80031bc:	d00a      	beq.n	80031d4 <HAL_RCCEx_PeriphCLKConfig+0x26c>
  {
    /* Check the parameters */
    assert_param(IS_RCC_I2C2CLKSOURCE(PeriphClkInit->I2c2ClockSelection));

    /* Configure the I2C2 clock source */
    __HAL_RCC_I2C2_CONFIG(PeriphClkInit->I2c2ClockSelection);
 80031be:	4b8c      	ldr	r3, [pc, #560]	@ (80033f0 <HAL_RCCEx_PeriphCLKConfig+0x488>)
 80031c0:	f8d3 3090 	ldr.w	r3, [r3, #144]	@ 0x90
 80031c4:	f423 2240 	bic.w	r2, r3, #786432	@ 0xc0000
 80031c8:	687b      	ldr	r3, [r7, #4]
 80031ca:	6e9b      	ldr	r3, [r3, #104]	@ 0x68
 80031cc:	4988      	ldr	r1, [pc, #544]	@ (80033f0 <HAL_RCCEx_PeriphCLKConfig+0x488>)
 80031ce:	4313      	orrs	r3, r2
 80031d0:	f8c1 3090 	str.w	r3, [r1, #144]	@ 0x90
  }

  /*-------------------------------------- I2C3 Configuration -----------------------------------*/
  if(((PeriphClkInit->PeriphClockSelection) & RCC_PERIPHCLK_I2C3) == RCC_PERIPHCLK_I2C3)
 80031d4:	687b      	ldr	r3, [r7, #4]
 80031d6:	681b      	ldr	r3, [r3, #0]
 80031d8:	f403 3380 	and.w	r3, r3, #65536	@ 0x10000
 80031dc:	2b00      	cmp	r3, #0
 80031de:	d00a      	beq.n	80031f6 <HAL_RCCEx_PeriphCLKConfig+0x28e>
  {
    /* Check the parameters */
    assert_param(IS_RCC_I2C3CLKSOURCE(PeriphClkInit->I2c3ClockSelection));

    /* Configure the I2C3 clock source */
    __HAL_RCC_I2C3_CONFIG(PeriphClkInit->I2c3ClockSelection);
 80031e0:	4b83      	ldr	r3, [pc, #524]	@ (80033f0 <HAL_RCCEx_PeriphCLKConfig+0x488>)
 80031e2:	f8d3 3090 	ldr.w	r3, [r3, #144]	@ 0x90
 80031e6:	f423 1240 	bic.w	r2, r3, #3145728	@ 0x300000
 80031ea:	687b      	ldr	r3, [r7, #4]
 80031ec:	6edb      	ldr	r3, [r3, #108]	@ 0x6c
 80031ee:	4980      	ldr	r1, [pc, #512]	@ (80033f0 <HAL_RCCEx_PeriphCLKConfig+0x488>)
 80031f0:	4313      	orrs	r3, r2
 80031f2:	f8c1 3090 	str.w	r3, [r1, #144]	@ 0x90
  }

  /*-------------------------------------- I2C4 Configuration -----------------------------------*/
  if(((PeriphClkInit->PeriphClockSelection) & RCC_PERIPHCLK_I2C4) == RCC_PERIPHCLK_I2C4)
 80031f6:	687b      	ldr	r3, [r7, #4]
 80031f8:	681b      	ldr	r3, [r3, #0]
 80031fa:	f403 3300 	and.w	r3, r3, #131072	@ 0x20000
 80031fe:	2b00      	cmp	r3, #0
 8003200:	d00a      	beq.n	8003218 <HAL_RCCEx_PeriphCLKConfig+0x2b0>
  {
    /* Check the parameters */
    assert_param(IS_RCC_I2C4CLKSOURCE(PeriphClkInit->I2c4ClockSelection));

    /* Configure the I2C4 clock source */
    __HAL_RCC_I2C4_CONFIG(PeriphClkInit->I2c4ClockSelection);
 8003202:	4b7b      	ldr	r3, [pc, #492]	@ (80033f0 <HAL_RCCEx_PeriphCLKConfig+0x488>)
 8003204:	f8d3 3090 	ldr.w	r3, [r3, #144]	@ 0x90
 8003208:	f423 0240 	bic.w	r2, r3, #12582912	@ 0xc00000
 800320c:	687b      	ldr	r3, [r7, #4]
 800320e:	6f1b      	ldr	r3, [r3, #112]	@ 0x70
 8003210:	4977      	ldr	r1, [pc, #476]	@ (80033f0 <HAL_RCCEx_PeriphCLKConfig+0x488>)
 8003212:	4313      	orrs	r3, r2
 8003214:	f8c1 3090 	str.w	r3, [r1, #144]	@ 0x90
  }

  /*-------------------------------------- USART1 Configuration -----------------------------------*/
  if(((PeriphClkInit->PeriphClockSelection) & RCC_PERIPHCLK_USART1) == RCC_PERIPHCLK_USART1)
 8003218:	687b      	ldr	r3, [r7, #4]
 800321a:	681b      	ldr	r3, [r3, #0]
 800321c:	f003 0340 	and.w	r3, r3, #64	@ 0x40
 8003220:	2b00      	cmp	r3, #0
 8003222:	d00a      	beq.n	800323a <HAL_RCCEx_PeriphCLKConfig+0x2d2>
  {
    /* Check the parameters */
    assert_param(IS_RCC_USART1CLKSOURCE(PeriphClkInit->Usart1ClockSelection));

    /* Configure the USART1 clock source */
    __HAL_RCC_USART1_CONFIG(PeriphClkInit->Usart1ClockSelection);
 8003224:	4b72      	ldr	r3, [pc, #456]	@ (80033f0 <HAL_RCCEx_PeriphCLKConfig+0x488>)
 8003226:	f8d3 3090 	ldr.w	r3, [r3, #144]	@ 0x90
 800322a:	f023 0203 	bic.w	r2, r3, #3
 800322e:	687b      	ldr	r3, [r7, #4]
 8003230:	6c5b      	ldr	r3, [r3, #68]	@ 0x44
 8003232:	496f      	ldr	r1, [pc, #444]	@ (80033f0 <HAL_RCCEx_PeriphCLKConfig+0x488>)
 8003234:	4313      	orrs	r3, r2
 8003236:	f8c1 3090 	str.w	r3, [r1, #144]	@ 0x90
  }

  /*-------------------------------------- USART2 Configuration -----------------------------------*/
  if(((PeriphClkInit->PeriphClockSelection) & RCC_PERIPHCLK_USART2) == RCC_PERIPHCLK_USART2)
 800323a:	687b      	ldr	r3, [r7, #4]
 800323c:	681b      	ldr	r3, [r3, #0]
 800323e:	f003 0380 	and.w	r3, r3, #128	@ 0x80
 8003242:	2b00      	cmp	r3, #0
 8003244:	d00a      	beq.n	800325c <HAL_RCCEx_PeriphCLKConfig+0x2f4>
  {
    /* Check the parameters */
    assert_param(IS_RCC_USART2CLKSOURCE(PeriphClkInit->Usart2ClockSelection));

    /* Configure the USART2 clock source */
    __HAL_RCC_USART2_CONFIG(PeriphClkInit->Usart2ClockSelection);
 8003246:	4b6a      	ldr	r3, [pc, #424]	@ (80033f0 <HAL_RCCEx_PeriphCLKConfig+0x488>)
 8003248:	f8d3 3090 	ldr.w	r3, [r3, #144]	@ 0x90
 800324c:	f023 020c 	bic.w	r2, r3, #12
 8003250:	687b      	ldr	r3, [r7, #4]
 8003252:	6c9b      	ldr	r3, [r3, #72]	@ 0x48
 8003254:	4966      	ldr	r1, [pc, #408]	@ (80033f0 <HAL_RCCEx_PeriphCLKConfig+0x488>)
 8003256:	4313      	orrs	r3, r2
 8003258:	f8c1 3090 	str.w	r3, [r1, #144]	@ 0x90
  }

  /*-------------------------------------- USART3 Configuration -----------------------------------*/
  if(((PeriphClkInit->PeriphClockSelection) & RCC_PERIPHCLK_USART3) == RCC_PERIPHCLK_USART3)
 800325c:	687b      	ldr	r3, [r7, #4]
 800325e:	681b      	ldr	r3, [r3, #0]
 8003260:	f403 7380 	and.w	r3, r3, #256	@ 0x100
 8003264:	2b00      	cmp	r3, #0
 8003266:	d00a      	beq.n	800327e <HAL_RCCEx_PeriphCLKConfig+0x316>
  {
    /* Check the parameters */
    assert_param(IS_RCC_USART3CLKSOURCE(PeriphClkInit->Usart3ClockSelection));

    /* Configure the USART3 clock source */
    __HAL_RCC_USART3_CONFIG(PeriphClkInit->Usart3ClockSelection);
 8003268:	4b61      	ldr	r3, [pc, #388]	@ (80033f0 <HAL_RCCEx_PeriphCLKConfig+0x488>)
 800326a:	f8d3 3090 	ldr.w	r3, [r3, #144]	@ 0x90
 800326e:	f023 0230 	bic.w	r2, r3, #48	@ 0x30
 8003272:	687b      	ldr	r3, [r7, #4]
 8003274:	6cdb      	ldr	r3, [r3, #76]	@ 0x4c
 8003276:	495e      	ldr	r1, [pc, #376]	@ (80033f0 <HAL_RCCEx_PeriphCLKConfig+0x488>)
 8003278:	4313      	orrs	r3, r2
 800327a:	f8c1 3090 	str.w	r3, [r1, #144]	@ 0x90
  }

  /*-------------------------------------- UART4 Configuration -----------------------------------*/
  if(((PeriphClkInit->PeriphClockSelection) & RCC_PERIPHCLK_UART4) == RCC_PERIPHCLK_UART4)
 800327e:	687b      	ldr	r3, [r7, #4]
 8003280:	681b      	ldr	r3, [r3, #0]
 8003282:	f403 7300 	and.w	r3, r3, #512	@ 0x200
 8003286:	2b00      	cmp	r3, #0
 8003288:	d00a      	beq.n	80032a0 <HAL_RCCEx_PeriphCLKConfig+0x338>
  {
    /* Check the parameters */
    assert_param(IS_RCC_UART4CLKSOURCE(PeriphClkInit->Uart4ClockSelection));

    /* Configure the UART4 clock source */
    __HAL_RCC_UART4_CONFIG(PeriphClkInit->Uart4ClockSelection);
 800328a:	4b59      	ldr	r3, [pc, #356]	@ (80033f0 <HAL_RCCEx_PeriphCLKConfig+0x488>)
 800328c:	f8d3 3090 	ldr.w	r3, [r3, #144]	@ 0x90
 8003290:	f023 02c0 	bic.w	r2, r3, #192	@ 0xc0
 8003294:	687b      	ldr	r3, [r7, #4]
 8003296:	6d1b      	ldr	r3, [r3, #80]	@ 0x50
 8003298:	4955      	ldr	r1, [pc, #340]	@ (80033f0 <HAL_RCCEx_PeriphCLKConfig+0x488>)
 800329a:	4313      	orrs	r3, r2
 800329c:	f8c1 3090 	str.w	r3, [r1, #144]	@ 0x90
  }

  /*-------------------------------------- UART5 Configuration -----------------------------------*/
  if(((PeriphClkInit->PeriphClockSelection) & RCC_PERIPHCLK_UART5) == RCC_PERIPHCLK_UART5)
 80032a0:	687b      	ldr	r3, [r7, #4]
 80032a2:	681b      	ldr	r3, [r3, #0]
 80032a4:	f403 6380 	and.w	r3, r3, #1024	@ 0x400
 80032a8:	2b00      	cmp	r3, #0
 80032aa:	d00a      	beq.n	80032c2 <HAL_RCCEx_PeriphCLKConfig+0x35a>
  {
    /* Check the parameters */
    assert_param(IS_RCC_UART5CLKSOURCE(PeriphClkInit->Uart5ClockSelection));

    /* Configure the UART5 clock source */
    __HAL_RCC_UART5_CONFIG(PeriphClkInit->Uart5ClockSelection);
 80032ac:	4b50      	ldr	r3, [pc, #320]	@ (80033f0 <HAL_RCCEx_PeriphCLKConfig+0x488>)
 80032ae:	f8d3 3090 	ldr.w	r3, [r3, #144]	@ 0x90
 80032b2:	f423 7240 	bic.w	r2, r3, #768	@ 0x300
 80032b6:	687b      	ldr	r3, [r7, #4]
 80032b8:	6d5b      	ldr	r3, [r3, #84]	@ 0x54
 80032ba:	494d      	ldr	r1, [pc, #308]	@ (80033f0 <HAL_RCCEx_PeriphCLKConfig+0x488>)
 80032bc:	4313      	orrs	r3, r2
 80032be:	f8c1 3090 	str.w	r3, [r1, #144]	@ 0x90
  }

  /*-------------------------------------- USART6 Configuration -----------------------------------*/
  if(((PeriphClkInit->PeriphClockSelection) & RCC_PERIPHCLK_USART6) == RCC_PERIPHCLK_USART6)
 80032c2:	687b      	ldr	r3, [r7, #4]
 80032c4:	681b      	ldr	r3, [r3, #0]
 80032c6:	f403 6300 	and.w	r3, r3, #2048	@ 0x800
 80032ca:	2b00      	cmp	r3, #0
 80032cc:	d00a      	beq.n	80032e4 <HAL_RCCEx_PeriphCLKConfig+0x37c>
  {
    /* Check the parameters */
    assert_param(IS_RCC_USART6CLKSOURCE(PeriphClkInit->Usart6ClockSelection));

    /* Configure the USART6 clock source */
    __HAL_RCC_USART6_CONFIG(PeriphClkInit->Usart6ClockSelection);
 80032ce:	4b48      	ldr	r3, [pc, #288]	@ (80033f0 <HAL_RCCEx_PeriphCLKConfig+0x488>)
 80032d0:	f8d3 3090 	ldr.w	r3, [r3, #144]	@ 0x90
 80032d4:	f423 6240 	bic.w	r2, r3, #3072	@ 0xc00
 80032d8:	687b      	ldr	r3, [r7, #4]
 80032da:	6d9b      	ldr	r3, [r3, #88]	@ 0x58
 80032dc:	4944      	ldr	r1, [pc, #272]	@ (80033f0 <HAL_RCCEx_PeriphCLKConfig+0x488>)
 80032de:	4313      	orrs	r3, r2
 80032e0:	f8c1 3090 	str.w	r3, [r1, #144]	@ 0x90
  }

  /*-------------------------------------- UART7 Configuration -----------------------------------*/
  if(((PeriphClkInit->PeriphClockSelection) & RCC_PERIPHCLK_UART7) == RCC_PERIPHCLK_UART7)
 80032e4:	687b      	ldr	r3, [r7, #4]
 80032e6:	681b      	ldr	r3, [r3, #0]
 80032e8:	f403 5380 	and.w	r3, r3, #4096	@ 0x1000
 80032ec:	2b00      	cmp	r3, #0
 80032ee:	d00a      	beq.n	8003306 <HAL_RCCEx_PeriphCLKConfig+0x39e>
  {
    /* Check the parameters */
    assert_param(IS_RCC_UART7CLKSOURCE(PeriphClkInit->Uart7ClockSelection));

    /* Configure the UART7 clock source */
    __HAL_RCC_UART7_CONFIG(PeriphClkInit->Uart7ClockSelection);
 80032f0:	4b3f      	ldr	r3, [pc, #252]	@ (80033f0 <HAL_RCCEx_PeriphCLKConfig+0x488>)
 80032f2:	f8d3 3090 	ldr.w	r3, [r3, #144]	@ 0x90
 80032f6:	f423 5240 	bic.w	r2, r3, #12288	@ 0x3000
 80032fa:	687b      	ldr	r3, [r7, #4]
 80032fc:	6ddb      	ldr	r3, [r3, #92]	@ 0x5c
 80032fe:	493c      	ldr	r1, [pc, #240]	@ (80033f0 <HAL_RCCEx_PeriphCLKConfig+0x488>)
 8003300:	4313      	orrs	r3, r2
 8003302:	f8c1 3090 	str.w	r3, [r1, #144]	@ 0x90
  }

  /*-------------------------------------- UART8 Configuration -----------------------------------*/
  if(((PeriphClkInit->PeriphClockSelection) & RCC_PERIPHCLK_UART8) == RCC_PERIPHCLK_UART8)
 8003306:	687b      	ldr	r3, [r7, #4]
 8003308:	681b      	ldr	r3, [r3, #0]
 800330a:	f403 5300 	and.w	r3, r3, #8192	@ 0x2000
 800330e:	2b00      	cmp	r3, #0
 8003310:	d00a      	beq.n	8003328 <HAL_RCCEx_PeriphCLKConfig+0x3c0>
  {
    /* Check the parameters */
    assert_param(IS_RCC_UART8CLKSOURCE(PeriphClkInit->Uart8ClockSelection));

    /* Configure the UART8 clock source */
    __HAL_RCC_UART8_CONFIG(PeriphClkInit->Uart8ClockSelection);
 8003312:	4b37      	ldr	r3, [pc, #220]	@ (80033f0 <HAL_RCCEx_PeriphCLKConfig+0x488>)
 8003314:	f8d3 3090 	ldr.w	r3, [r3, #144]	@ 0x90
 8003318:	f423 4240 	bic.w	r2, r3, #49152	@ 0xc000
 800331c:	687b      	ldr	r3, [r7, #4]
 800331e:	6e1b      	ldr	r3, [r3, #96]	@ 0x60
 8003320:	4933      	ldr	r1, [pc, #204]	@ (80033f0 <HAL_RCCEx_PeriphCLKConfig+0x488>)
 8003322:	4313      	orrs	r3, r2
 8003324:	f8c1 3090 	str.w	r3, [r1, #144]	@ 0x90
  }

  /*--------------------------------------- CEC Configuration -----------------------------------*/
  if(((PeriphClkInit->PeriphClockSelection) & RCC_PERIPHCLK_CEC) == RCC_PERIPHCLK_CEC)
 8003328:	687b      	ldr	r3, [r7, #4]
 800332a:	681b      	ldr	r3, [r3, #0]
 800332c:	f403 0380 	and.w	r3, r3, #4194304	@ 0x400000
 8003330:	2b00      	cmp	r3, #0
 8003332:	d00a      	beq.n	800334a <HAL_RCCEx_PeriphCLKConfig+0x3e2>
  {
    /* Check the parameters */
    assert_param(IS_RCC_CECCLKSOURCE(PeriphClkInit->CecClockSelection));

    /* Configure the CEC clock source */
    __HAL_RCC_CEC_CONFIG(PeriphClkInit->CecClockSelection);
 8003334:	4b2e      	ldr	r3, [pc, #184]	@ (80033f0 <HAL_RCCEx_PeriphCLKConfig+0x488>)
 8003336:	f8d3 3090 	ldr.w	r3, [r3, #144]	@ 0x90
 800333a:	f023 6280 	bic.w	r2, r3, #67108864	@ 0x4000000
 800333e:	687b      	ldr	r3, [r7, #4]
 8003340:	6f9b      	ldr	r3, [r3, #120]	@ 0x78
 8003342:	492b      	ldr	r1, [pc, #172]	@ (80033f0 <HAL_RCCEx_PeriphCLKConfig+0x488>)
 8003344:	4313      	orrs	r3, r2
 8003346:	f8c1 3090 	str.w	r3, [r1, #144]	@ 0x90
  }

  /*-------------------------------------- CK48 Configuration -----------------------------------*/
  if(((PeriphClkInit->PeriphClockSelection) & RCC_PERIPHCLK_CLK48) == RCC_PERIPHCLK_CLK48)
 800334a:	687b      	ldr	r3, [r7, #4]
 800334c:	681b      	ldr	r3, [r3, #0]
 800334e:	f403 1300 	and.w	r3, r3, #2097152	@ 0x200000
 8003352:	2b00      	cmp	r3, #0
 8003354:	d011      	beq.n	800337a <HAL_RCCEx_PeriphCLKConfig+0x412>
  {
    /* Check the parameters */
    assert_param(IS_RCC_CLK48SOURCE(PeriphClkInit->Clk48ClockSelection));

    /* Configure the CLK48 source */
    __HAL_RCC_CLK48_CONFIG(PeriphClkInit->Clk48ClockSelection);
 8003356:	4b26      	ldr	r3, [pc, #152]	@ (80033f0 <HAL_RCCEx_PeriphCLKConfig+0x488>)
 8003358:	f8d3 3090 	ldr.w	r3, [r3, #144]	@ 0x90
 800335c:	f023 6200 	bic.w	r2, r3, #134217728	@ 0x8000000
 8003360:	687b      	ldr	r3, [r7, #4]
 8003362:	6fdb      	ldr	r3, [r3, #124]	@ 0x7c
 8003364:	4922      	ldr	r1, [pc, #136]	@ (80033f0 <HAL_RCCEx_PeriphCLKConfig+0x488>)
 8003366:	4313      	orrs	r3, r2
 8003368:	f8c1 3090 	str.w	r3, [r1, #144]	@ 0x90

    /* Enable the PLLSAI when it's used as clock source for CK48 */
    if(PeriphClkInit->Clk48ClockSelection == RCC_CLK48SOURCE_PLLSAIP)
 800336c:	687b      	ldr	r3, [r7, #4]
 800336e:	6fdb      	ldr	r3, [r3, #124]	@ 0x7c
 8003370:	f1b3 6f00 	cmp.w	r3, #134217728	@ 0x8000000
 8003374:	d101      	bne.n	800337a <HAL_RCCEx_PeriphCLKConfig+0x412>
    {
      pllsaiused = 1;
 8003376:	2301      	movs	r3, #1
 8003378:	61bb      	str	r3, [r7, #24]
    }
  }

  /*-------------------------------------- LTDC Configuration -----------------------------------*/
#if defined(STM32F746xx) || defined(STM32F756xx) || defined (STM32F767xx) || defined (STM32F769xx) || defined (STM32F777xx) || defined (STM32F779xx) || defined (STM32F750xx)
  if(((PeriphClkInit->PeriphClockSelection) & RCC_PERIPHCLK_LTDC) == RCC_PERIPHCLK_LTDC)
 800337a:	687b      	ldr	r3, [r7, #4]
 800337c:	681b      	ldr	r3, [r3, #0]
 800337e:	f003 0308 	and.w	r3, r3, #8
 8003382:	2b00      	cmp	r3, #0
 8003384:	d001      	beq.n	800338a <HAL_RCCEx_PeriphCLKConfig+0x422>
  {
    pllsaiused = 1;
 8003386:	2301      	movs	r3, #1
 8003388:	61bb      	str	r3, [r7, #24]
  }
#endif /* STM32F746xx || STM32F756xx || STM32F767xx || STM32F769xx || STM32F777xx || STM32F779xx || STM32F750xx */

  /*-------------------------------------- LPTIM1 Configuration -----------------------------------*/
  if(((PeriphClkInit->PeriphClockSelection) & RCC_PERIPHCLK_LPTIM1) == RCC_PERIPHCLK_LPTIM1)
 800338a:	687b      	ldr	r3, [r7, #4]
 800338c:	681b      	ldr	r3, [r3, #0]
 800338e:	f403 2380 	and.w	r3, r3, #262144	@ 0x40000
 8003392:	2b00      	cmp	r3, #0
 8003394:	d00a      	beq.n	80033ac <HAL_RCCEx_PeriphCLKConfig+0x444>
  {
    /* Check the parameters */
    assert_param(IS_RCC_LPTIM1CLK(PeriphClkInit->Lptim1ClockSelection));

    /* Configure the LTPIM1 clock source */
    __HAL_RCC_LPTIM1_CONFIG(PeriphClkInit->Lptim1ClockSelection);
 8003396:	4b16      	ldr	r3, [pc, #88]	@ (80033f0 <HAL_RCCEx_PeriphCLKConfig+0x488>)
 8003398:	f8d3 3090 	ldr.w	r3, [r3, #144]	@ 0x90
 800339c:	f023 7240 	bic.w	r2, r3, #50331648	@ 0x3000000
 80033a0:	687b      	ldr	r3, [r7, #4]
 80033a2:	6f5b      	ldr	r3, [r3, #116]	@ 0x74
 80033a4:	4912      	ldr	r1, [pc, #72]	@ (80033f0 <HAL_RCCEx_PeriphCLKConfig+0x488>)
 80033a6:	4313      	orrs	r3, r2
 80033a8:	f8c1 3090 	str.w	r3, [r1, #144]	@ 0x90
   }

  /*------------------------------------- SDMMC1 Configuration ------------------------------------*/
  if(((PeriphClkInit->PeriphClockSelection) & RCC_PERIPHCLK_SDMMC1) == RCC_PERIPHCLK_SDMMC1)
 80033ac:	687b      	ldr	r3, [r7, #4]
 80033ae:	681b      	ldr	r3, [r3, #0]
 80033b0:	f403 0300 	and.w	r3, r3, #8388608	@ 0x800000
 80033b4:	2b00      	cmp	r3, #0
 80033b6:	d00b      	beq.n	80033d0 <HAL_RCCEx_PeriphCLKConfig+0x468>
  {
    /* Check the parameters */
    assert_param(IS_RCC_SDMMC1CLKSOURCE(PeriphClkInit->Sdmmc1ClockSelection));

    /* Configure the SDMMC1 clock source */
    __HAL_RCC_SDMMC1_CONFIG(PeriphClkInit->Sdmmc1ClockSelection);
 80033b8:	4b0d      	ldr	r3, [pc, #52]	@ (80033f0 <HAL_RCCEx_PeriphCLKConfig+0x488>)
 80033ba:	f8d3 3090 	ldr.w	r3, [r3, #144]	@ 0x90
 80033be:	f023 5280 	bic.w	r2, r3, #268435456	@ 0x10000000
 80033c2:	687b      	ldr	r3, [r7, #4]
 80033c4:	f8d3 3080 	ldr.w	r3, [r3, #128]	@ 0x80
 80033c8:	4909      	ldr	r1, [pc, #36]	@ (80033f0 <HAL_RCCEx_PeriphCLKConfig+0x488>)
 80033ca:	4313      	orrs	r3, r2
 80033cc:	f8c1 3090 	str.w	r3, [r1, #144]	@ 0x90
  }
#endif /* STM32F767xx || STM32F769xx || STM32F777xx || STM32F779xx */

  /*-------------------------------------- PLLI2S Configuration ---------------------------------*/
  /* PLLI2S is configured when a peripheral will use it as source clock : SAI1, SAI2, I2S or SPDIF-RX */
  if((plli2sused == 1) || ((PeriphClkInit->PeriphClockSelection & RCC_PERIPHCLK_PLLI2S) == RCC_PERIPHCLK_PLLI2S))
 80033d0:	69fb      	ldr	r3, [r7, #28]
 80033d2:	2b01      	cmp	r3, #1
 80033d4:	d006      	beq.n	80033e4 <HAL_RCCEx_PeriphCLKConfig+0x47c>
 80033d6:	687b      	ldr	r3, [r7, #4]
 80033d8:	681b      	ldr	r3, [r3, #0]
 80033da:	f003 7300 	and.w	r3, r3, #33554432	@ 0x2000000
 80033de:	2b00      	cmp	r3, #0
 80033e0:	f000 80d9 	beq.w	8003596 <HAL_RCCEx_PeriphCLKConfig+0x62e>
  {
    /* Disable the PLLI2S */
    __HAL_RCC_PLLI2S_DISABLE();
 80033e4:	4b02      	ldr	r3, [pc, #8]	@ (80033f0 <HAL_RCCEx_PeriphCLKConfig+0x488>)
 80033e6:	681b      	ldr	r3, [r3, #0]
 80033e8:	4a01      	ldr	r2, [pc, #4]	@ (80033f0 <HAL_RCCEx_PeriphCLKConfig+0x488>)
 80033ea:	f023 6380 	bic.w	r3, r3, #67108864	@ 0x4000000
 80033ee:	e001      	b.n	80033f4 <HAL_RCCEx_PeriphCLKConfig+0x48c>
 80033f0:	40023800 	.word	0x40023800
 80033f4:	6013      	str	r3, [r2, #0]

    /* Get Start Tick*/
    tickstart = HAL_GetTick();
 80033f6:	f7fe fae9 	bl	80019cc <HAL_GetTick>
 80033fa:	6178      	str	r0, [r7, #20]

    /* Wait till PLLI2S is disabled */
    while(__HAL_RCC_GET_FLAG(RCC_FLAG_PLLI2SRDY)  != RESET)
 80033fc:	e008      	b.n	8003410 <HAL_RCCEx_PeriphCLKConfig+0x4a8>
    {
      if((HAL_GetTick() - tickstart) > PLLI2S_TIMEOUT_VALUE)
 80033fe:	f7fe fae5 	bl	80019cc <HAL_GetTick>
 8003402:	4602      	mov	r2, r0
 8003404:	697b      	ldr	r3, [r7, #20]
 8003406:	1ad3      	subs	r3, r2, r3
 8003408:	2b64      	cmp	r3, #100	@ 0x64
 800340a:	d901      	bls.n	8003410 <HAL_RCCEx_PeriphCLKConfig+0x4a8>
      {
        /* return in case of Timeout detected */
        return HAL_TIMEOUT;
 800340c:	2303      	movs	r3, #3
 800340e:	e194      	b.n	800373a <HAL_RCCEx_PeriphCLKConfig+0x7d2>
    while(__HAL_RCC_GET_FLAG(RCC_FLAG_PLLI2SRDY)  != RESET)
 8003410:	4b6c      	ldr	r3, [pc, #432]	@ (80035c4 <HAL_RCCEx_PeriphCLKConfig+0x65c>)
 8003412:	681b      	ldr	r3, [r3, #0]
 8003414:	f003 6300 	and.w	r3, r3, #134217728	@ 0x8000000
 8003418:	2b00      	cmp	r3, #0
 800341a:	d1f0      	bne.n	80033fe <HAL_RCCEx_PeriphCLKConfig+0x496>

    /* check for common PLLI2S Parameters */
    assert_param(IS_RCC_PLLI2SN_VALUE(PeriphClkInit->PLLI2S.PLLI2SN));

    /*----------------- In Case of PLLI2S is selected as source clock for I2S -------------------*/
    if(((((PeriphClkInit->PeriphClockSelection) & RCC_PERIPHCLK_I2S) == RCC_PERIPHCLK_I2S) && (PeriphClkInit->I2sClockSelection == RCC_I2SCLKSOURCE_PLLI2S)))
 800341c:	687b      	ldr	r3, [r7, #4]
 800341e:	681b      	ldr	r3, [r3, #0]
 8003420:	f003 0301 	and.w	r3, r3, #1
 8003424:	2b00      	cmp	r3, #0
 8003426:	d021      	beq.n	800346c <HAL_RCCEx_PeriphCLKConfig+0x504>
 8003428:	687b      	ldr	r3, [r7, #4]
 800342a:	6b5b      	ldr	r3, [r3, #52]	@ 0x34
 800342c:	2b00      	cmp	r3, #0
 800342e:	d11d      	bne.n	800346c <HAL_RCCEx_PeriphCLKConfig+0x504>
    {
      /* check for Parameters */
      assert_param(IS_RCC_PLLI2SR_VALUE(PeriphClkInit->PLLI2S.PLLI2SR));

      /* Read PLLI2SP and PLLI2SQ value from PLLI2SCFGR register (this value is not needed for I2S configuration) */
      tmpreg0 = ((RCC->PLLI2SCFGR & RCC_PLLI2SCFGR_PLLI2SP) >> RCC_PLLI2SCFGR_PLLI2SP_Pos);
 8003430:	4b64      	ldr	r3, [pc, #400]	@ (80035c4 <HAL_RCCEx_PeriphCLKConfig+0x65c>)
 8003432:	f8d3 3084 	ldr.w	r3, [r3, #132]	@ 0x84
 8003436:	0c1b      	lsrs	r3, r3, #16
 8003438:	f003 0303 	and.w	r3, r3, #3
 800343c:	613b      	str	r3, [r7, #16]
      tmpreg1 = ((RCC->PLLI2SCFGR & RCC_PLLI2SCFGR_PLLI2SQ) >> RCC_PLLI2SCFGR_PLLI2SQ_Pos);
 800343e:	4b61      	ldr	r3, [pc, #388]	@ (80035c4 <HAL_RCCEx_PeriphCLKConfig+0x65c>)
 8003440:	f8d3 3084 	ldr.w	r3, [r3, #132]	@ 0x84
 8003444:	0e1b      	lsrs	r3, r3, #24
 8003446:	f003 030f 	and.w	r3, r3, #15
 800344a:	60fb      	str	r3, [r7, #12]
      /* Configure the PLLI2S division factors */
      /* PLLI2S_VCO = f(VCO clock) = f(PLLI2S clock input) x (PLLI2SN/PLLM) */
      /* I2SCLK = f(PLLI2S clock output) = f(VCO clock) / PLLI2SR */
      __HAL_RCC_PLLI2S_CONFIG(PeriphClkInit->PLLI2S.PLLI2SN , tmpreg0, tmpreg1, PeriphClkInit->PLLI2S.PLLI2SR);
 800344c:	687b      	ldr	r3, [r7, #4]
 800344e:	685b      	ldr	r3, [r3, #4]
 8003450:	019a      	lsls	r2, r3, #6
 8003452:	693b      	ldr	r3, [r7, #16]
 8003454:	041b      	lsls	r3, r3, #16
 8003456:	431a      	orrs	r2, r3
 8003458:	68fb      	ldr	r3, [r7, #12]
 800345a:	061b      	lsls	r3, r3, #24
 800345c:	431a      	orrs	r2, r3
 800345e:	687b      	ldr	r3, [r7, #4]
 8003460:	689b      	ldr	r3, [r3, #8]
 8003462:	071b      	lsls	r3, r3, #28
 8003464:	4957      	ldr	r1, [pc, #348]	@ (80035c4 <HAL_RCCEx_PeriphCLKConfig+0x65c>)
 8003466:	4313      	orrs	r3, r2
 8003468:	f8c1 3084 	str.w	r3, [r1, #132]	@ 0x84
    }

    /*----------------- In Case of PLLI2S is selected as source clock for SAI -------------------*/
    if(((((PeriphClkInit->PeriphClockSelection) & RCC_PERIPHCLK_SAI1) == RCC_PERIPHCLK_SAI1) && (PeriphClkInit->Sai1ClockSelection == RCC_SAI1CLKSOURCE_PLLI2S)) ||
 800346c:	687b      	ldr	r3, [r7, #4]
 800346e:	681b      	ldr	r3, [r3, #0]
 8003470:	f403 2300 	and.w	r3, r3, #524288	@ 0x80000
 8003474:	2b00      	cmp	r3, #0
 8003476:	d004      	beq.n	8003482 <HAL_RCCEx_PeriphCLKConfig+0x51a>
 8003478:	687b      	ldr	r3, [r7, #4]
 800347a:	6bdb      	ldr	r3, [r3, #60]	@ 0x3c
 800347c:	f5b3 1f80 	cmp.w	r3, #1048576	@ 0x100000
 8003480:	d00a      	beq.n	8003498 <HAL_RCCEx_PeriphCLKConfig+0x530>
       ((((PeriphClkInit->PeriphClockSelection) & RCC_PERIPHCLK_SAI2) == RCC_PERIPHCLK_SAI2) && (PeriphClkInit->Sai2ClockSelection == RCC_SAI2CLKSOURCE_PLLI2S)))
 8003482:	687b      	ldr	r3, [r7, #4]
 8003484:	681b      	ldr	r3, [r3, #0]
 8003486:	f403 1380 	and.w	r3, r3, #1048576	@ 0x100000
    if(((((PeriphClkInit->PeriphClockSelection) & RCC_PERIPHCLK_SAI1) == RCC_PERIPHCLK_SAI1) && (PeriphClkInit->Sai1ClockSelection == RCC_SAI1CLKSOURCE_PLLI2S)) ||
 800348a:	2b00      	cmp	r3, #0
 800348c:	d02e      	beq.n	80034ec <HAL_RCCEx_PeriphCLKConfig+0x584>
       ((((PeriphClkInit->PeriphClockSelection) & RCC_PERIPHCLK_SAI2) == RCC_PERIPHCLK_SAI2) && (PeriphClkInit->Sai2ClockSelection == RCC_SAI2CLKSOURCE_PLLI2S)))
 800348e:	687b      	ldr	r3, [r7, #4]
 8003490:	6c1b      	ldr	r3, [r3, #64]	@ 0x40
 8003492:	f5b3 0f80 	cmp.w	r3, #4194304	@ 0x400000
 8003496:	d129      	bne.n	80034ec <HAL_RCCEx_PeriphCLKConfig+0x584>
      assert_param(IS_RCC_PLLI2SQ_VALUE(PeriphClkInit->PLLI2S.PLLI2SQ));
      /* Check for PLLI2S/DIVQ parameters */
      assert_param(IS_RCC_PLLI2S_DIVQ_VALUE(PeriphClkInit->PLLI2SDivQ));

      /* Read PLLI2SP and PLLI2SR values from PLLI2SCFGR register (this value is not needed for SAI configuration) */
      tmpreg0 = ((RCC->PLLI2SCFGR & RCC_PLLI2SCFGR_PLLI2SP) >> RCC_PLLI2SCFGR_PLLI2SP_Pos);
 8003498:	4b4a      	ldr	r3, [pc, #296]	@ (80035c4 <HAL_RCCEx_PeriphCLKConfig+0x65c>)
 800349a:	f8d3 3084 	ldr.w	r3, [r3, #132]	@ 0x84
 800349e:	0c1b      	lsrs	r3, r3, #16
 80034a0:	f003 0303 	and.w	r3, r3, #3
 80034a4:	613b      	str	r3, [r7, #16]
      tmpreg1 = ((RCC->PLLI2SCFGR & RCC_PLLI2SCFGR_PLLI2SR) >> RCC_PLLI2SCFGR_PLLI2SR_Pos);
 80034a6:	4b47      	ldr	r3, [pc, #284]	@ (80035c4 <HAL_RCCEx_PeriphCLKConfig+0x65c>)
 80034a8:	f8d3 3084 	ldr.w	r3, [r3, #132]	@ 0x84
 80034ac:	0f1b      	lsrs	r3, r3, #28
 80034ae:	f003 0307 	and.w	r3, r3, #7
 80034b2:	60fb      	str	r3, [r7, #12]
      /* Configure the PLLI2S division factors */
      /* PLLI2S_VCO Input  = PLL_SOURCE/PLLM */
      /* PLLI2S_VCO Output = PLLI2S_VCO Input * PLLI2SN */
      /* SAI_CLK(first level) = PLLI2S_VCO Output/PLLI2SQ */
      __HAL_RCC_PLLI2S_CONFIG(PeriphClkInit->PLLI2S.PLLI2SN, tmpreg0, PeriphClkInit->PLLI2S.PLLI2SQ, tmpreg1);
 80034b4:	687b      	ldr	r3, [r7, #4]
 80034b6:	685b      	ldr	r3, [r3, #4]
 80034b8:	019a      	lsls	r2, r3, #6
 80034ba:	693b      	ldr	r3, [r7, #16]
 80034bc:	041b      	lsls	r3, r3, #16
 80034be:	431a      	orrs	r2, r3
 80034c0:	687b      	ldr	r3, [r7, #4]
 80034c2:	68db      	ldr	r3, [r3, #12]
 80034c4:	061b      	lsls	r3, r3, #24
 80034c6:	431a      	orrs	r2, r3
 80034c8:	68fb      	ldr	r3, [r7, #12]
 80034ca:	071b      	lsls	r3, r3, #28
 80034cc:	493d      	ldr	r1, [pc, #244]	@ (80035c4 <HAL_RCCEx_PeriphCLKConfig+0x65c>)
 80034ce:	4313      	orrs	r3, r2
 80034d0:	f8c1 3084 	str.w	r3, [r1, #132]	@ 0x84

      /* SAI_CLK_x = SAI_CLK(first level)/PLLI2SDIVQ */
      __HAL_RCC_PLLI2S_PLLSAICLKDIVQ_CONFIG(PeriphClkInit->PLLI2SDivQ);
 80034d4:	4b3b      	ldr	r3, [pc, #236]	@ (80035c4 <HAL_RCCEx_PeriphCLKConfig+0x65c>)
 80034d6:	f8d3 308c 	ldr.w	r3, [r3, #140]	@ 0x8c
 80034da:	f023 021f 	bic.w	r2, r3, #31
 80034de:	687b      	ldr	r3, [r7, #4]
 80034e0:	6a5b      	ldr	r3, [r3, #36]	@ 0x24
 80034e2:	3b01      	subs	r3, #1
 80034e4:	4937      	ldr	r1, [pc, #220]	@ (80035c4 <HAL_RCCEx_PeriphCLKConfig+0x65c>)
 80034e6:	4313      	orrs	r3, r2
 80034e8:	f8c1 308c 	str.w	r3, [r1, #140]	@ 0x8c
    }

    /*----------------- In Case of PLLI2S is selected as source clock for SPDIF-RX -------------------*/
    if(((PeriphClkInit->PeriphClockSelection) & RCC_PERIPHCLK_SPDIFRX) == RCC_PERIPHCLK_SPDIFRX)
 80034ec:	687b      	ldr	r3, [r7, #4]
 80034ee:	681b      	ldr	r3, [r3, #0]
 80034f0:	f003 7380 	and.w	r3, r3, #16777216	@ 0x1000000
 80034f4:	2b00      	cmp	r3, #0
 80034f6:	d01d      	beq.n	8003534 <HAL_RCCEx_PeriphCLKConfig+0x5cc>
    {
      /* check for Parameters */
      assert_param(IS_RCC_PLLI2SP_VALUE(PeriphClkInit->PLLI2S.PLLI2SP));

     /* Read PLLI2SR value from PLLI2SCFGR register (this value is not needed for SPDIF-RX configuration) */
      tmpreg0 = ((RCC->PLLI2SCFGR & RCC_PLLI2SCFGR_PLLI2SQ) >> RCC_PLLI2SCFGR_PLLI2SQ_Pos);
 80034f8:	4b32      	ldr	r3, [pc, #200]	@ (80035c4 <HAL_RCCEx_PeriphCLKConfig+0x65c>)
 80034fa:	f8d3 3084 	ldr.w	r3, [r3, #132]	@ 0x84
 80034fe:	0e1b      	lsrs	r3, r3, #24
 8003500:	f003 030f 	and.w	r3, r3, #15
 8003504:	613b      	str	r3, [r7, #16]
      tmpreg1 = ((RCC->PLLI2SCFGR & RCC_PLLI2SCFGR_PLLI2SR) >> RCC_PLLI2SCFGR_PLLI2SR_Pos);
 8003506:	4b2f      	ldr	r3, [pc, #188]	@ (80035c4 <HAL_RCCEx_PeriphCLKConfig+0x65c>)
 8003508:	f8d3 3084 	ldr.w	r3, [r3, #132]	@ 0x84
 800350c:	0f1b      	lsrs	r3, r3, #28
 800350e:	f003 0307 	and.w	r3, r3, #7
 8003512:	60fb      	str	r3, [r7, #12]
      /* Configure the PLLI2S division factors */
      /* PLLI2S_VCO = f(VCO clock) = f(PLLI2S clock input) x (PLLI2SN/PLLM) */
      /* SPDIFCLK = f(PLLI2S clock output) = f(VCO clock) / PLLI2SP */
      __HAL_RCC_PLLI2S_CONFIG(PeriphClkInit->PLLI2S.PLLI2SN , PeriphClkInit->PLLI2S.PLLI2SP, tmpreg0, tmpreg1);
 8003514:	687b      	ldr	r3, [r7, #4]
 8003516:	685b      	ldr	r3, [r3, #4]
 8003518:	019a      	lsls	r2, r3, #6
 800351a:	687b      	ldr	r3, [r7, #4]
 800351c:	691b      	ldr	r3, [r3, #16]
 800351e:	041b      	lsls	r3, r3, #16
 8003520:	431a      	orrs	r2, r3
 8003522:	693b      	ldr	r3, [r7, #16]
 8003524:	061b      	lsls	r3, r3, #24
 8003526:	431a      	orrs	r2, r3
 8003528:	68fb      	ldr	r3, [r7, #12]
 800352a:	071b      	lsls	r3, r3, #28
 800352c:	4925      	ldr	r1, [pc, #148]	@ (80035c4 <HAL_RCCEx_PeriphCLKConfig+0x65c>)
 800352e:	4313      	orrs	r3, r2
 8003530:	f8c1 3084 	str.w	r3, [r1, #132]	@ 0x84
    }

    /*----------------- In Case of PLLI2S is just selected  -----------------*/
    if((PeriphClkInit->PeriphClockSelection & RCC_PERIPHCLK_PLLI2S) == RCC_PERIPHCLK_PLLI2S)
 8003534:	687b      	ldr	r3, [r7, #4]
 8003536:	681b      	ldr	r3, [r3, #0]
 8003538:	f003 7300 	and.w	r3, r3, #33554432	@ 0x2000000
 800353c:	2b00      	cmp	r3, #0
 800353e:	d011      	beq.n	8003564 <HAL_RCCEx_PeriphCLKConfig+0x5fc>
      assert_param(IS_RCC_PLLI2SQ_VALUE(PeriphClkInit->PLLI2S.PLLI2SQ));

      /* Configure the PLLI2S division factors */
      /* PLLI2S_VCO = f(VCO clock) = f(PLLI2S clock input) x (PLLI2SN/PLLI2SM) */
      /* SPDIFRXCLK = f(PLLI2S clock output) = f(VCO clock) / PLLI2SP */
      __HAL_RCC_PLLI2S_CONFIG(PeriphClkInit->PLLI2S.PLLI2SN , PeriphClkInit->PLLI2S.PLLI2SP, PeriphClkInit->PLLI2S.PLLI2SQ, PeriphClkInit->PLLI2S.PLLI2SR);
 8003540:	687b      	ldr	r3, [r7, #4]
 8003542:	685b      	ldr	r3, [r3, #4]
 8003544:	019a      	lsls	r2, r3, #6
 8003546:	687b      	ldr	r3, [r7, #4]
 8003548:	691b      	ldr	r3, [r3, #16]
 800354a:	041b      	lsls	r3, r3, #16
 800354c:	431a      	orrs	r2, r3
 800354e:	687b      	ldr	r3, [r7, #4]
 8003550:	68db      	ldr	r3, [r3, #12]
 8003552:	061b      	lsls	r3, r3, #24
 8003554:	431a      	orrs	r2, r3
 8003556:	687b      	ldr	r3, [r7, #4]
 8003558:	689b      	ldr	r3, [r3, #8]
 800355a:	071b      	lsls	r3, r3, #28
 800355c:	4919      	ldr	r1, [pc, #100]	@ (80035c4 <HAL_RCCEx_PeriphCLKConfig+0x65c>)
 800355e:	4313      	orrs	r3, r2
 8003560:	f8c1 3084 	str.w	r3, [r1, #132]	@ 0x84
    }

    /* Enable the PLLI2S */
    __HAL_RCC_PLLI2S_ENABLE();
 8003564:	4b17      	ldr	r3, [pc, #92]	@ (80035c4 <HAL_RCCEx_PeriphCLKConfig+0x65c>)
 8003566:	681b      	ldr	r3, [r3, #0]
 8003568:	4a16      	ldr	r2, [pc, #88]	@ (80035c4 <HAL_RCCEx_PeriphCLKConfig+0x65c>)
 800356a:	f043 6380 	orr.w	r3, r3, #67108864	@ 0x4000000
 800356e:	6013      	str	r3, [r2, #0]

    /* Get Start Tick*/
    tickstart = HAL_GetTick();
 8003570:	f7fe fa2c 	bl	80019cc <HAL_GetTick>
 8003574:	6178      	str	r0, [r7, #20]

    /* Wait till PLLI2S is ready */
    while(__HAL_RCC_GET_FLAG(RCC_FLAG_PLLI2SRDY)  == RESET)
 8003576:	e008      	b.n	800358a <HAL_RCCEx_PeriphCLKConfig+0x622>
    {
      if((HAL_GetTick() - tickstart) > PLLI2S_TIMEOUT_VALUE)
 8003578:	f7fe fa28 	bl	80019cc <HAL_GetTick>
 800357c:	4602      	mov	r2, r0
 800357e:	697b      	ldr	r3, [r7, #20]
 8003580:	1ad3      	subs	r3, r2, r3
 8003582:	2b64      	cmp	r3, #100	@ 0x64
 8003584:	d901      	bls.n	800358a <HAL_RCCEx_PeriphCLKConfig+0x622>
      {
        /* return in case of Timeout detected */
        return HAL_TIMEOUT;
 8003586:	2303      	movs	r3, #3
 8003588:	e0d7      	b.n	800373a <HAL_RCCEx_PeriphCLKConfig+0x7d2>
    while(__HAL_RCC_GET_FLAG(RCC_FLAG_PLLI2SRDY)  == RESET)
 800358a:	4b0e      	ldr	r3, [pc, #56]	@ (80035c4 <HAL_RCCEx_PeriphCLKConfig+0x65c>)
 800358c:	681b      	ldr	r3, [r3, #0]
 800358e:	f003 6300 	and.w	r3, r3, #134217728	@ 0x8000000
 8003592:	2b00      	cmp	r3, #0
 8003594:	d0f0      	beq.n	8003578 <HAL_RCCEx_PeriphCLKConfig+0x610>
    }
  }

  /*-------------------------------------- PLLSAI Configuration ---------------------------------*/
  /* PLLSAI is configured when a peripheral will use it as source clock : SAI1, SAI2, LTDC or CK48 */
  if(pllsaiused == 1)
 8003596:	69bb      	ldr	r3, [r7, #24]
 8003598:	2b01      	cmp	r3, #1
 800359a:	f040 80cd 	bne.w	8003738 <HAL_RCCEx_PeriphCLKConfig+0x7d0>
  {
    /* Disable PLLSAI Clock */
    __HAL_RCC_PLLSAI_DISABLE();
 800359e:	4b09      	ldr	r3, [pc, #36]	@ (80035c4 <HAL_RCCEx_PeriphCLKConfig+0x65c>)
 80035a0:	681b      	ldr	r3, [r3, #0]
 80035a2:	4a08      	ldr	r2, [pc, #32]	@ (80035c4 <HAL_RCCEx_PeriphCLKConfig+0x65c>)
 80035a4:	f023 5380 	bic.w	r3, r3, #268435456	@ 0x10000000
 80035a8:	6013      	str	r3, [r2, #0]

    /* Get Start Tick*/
    tickstart = HAL_GetTick();
 80035aa:	f7fe fa0f 	bl	80019cc <HAL_GetTick>
 80035ae:	6178      	str	r0, [r7, #20]

    /* Wait till PLLSAI is disabled */
    while(__HAL_RCC_PLLSAI_GET_FLAG() != RESET)
 80035b0:	e00a      	b.n	80035c8 <HAL_RCCEx_PeriphCLKConfig+0x660>
    {
      if((HAL_GetTick() - tickstart) > PLLSAI_TIMEOUT_VALUE)
 80035b2:	f7fe fa0b 	bl	80019cc <HAL_GetTick>
 80035b6:	4602      	mov	r2, r0
 80035b8:	697b      	ldr	r3, [r7, #20]
 80035ba:	1ad3      	subs	r3, r2, r3
 80035bc:	2b64      	cmp	r3, #100	@ 0x64
 80035be:	d903      	bls.n	80035c8 <HAL_RCCEx_PeriphCLKConfig+0x660>
      {
        /* return in case of Timeout detected */
        return HAL_TIMEOUT;
 80035c0:	2303      	movs	r3, #3
 80035c2:	e0ba      	b.n	800373a <HAL_RCCEx_PeriphCLKConfig+0x7d2>
 80035c4:	40023800 	.word	0x40023800
    while(__HAL_RCC_PLLSAI_GET_FLAG() != RESET)
 80035c8:	4b5e      	ldr	r3, [pc, #376]	@ (8003744 <HAL_RCCEx_PeriphCLKConfig+0x7dc>)
 80035ca:	681b      	ldr	r3, [r3, #0]
 80035cc:	f003 5300 	and.w	r3, r3, #536870912	@ 0x20000000
 80035d0:	f1b3 5f00 	cmp.w	r3, #536870912	@ 0x20000000
 80035d4:	d0ed      	beq.n	80035b2 <HAL_RCCEx_PeriphCLKConfig+0x64a>

    /* Check the PLLSAI division factors */
    assert_param(IS_RCC_PLLSAIN_VALUE(PeriphClkInit->PLLSAI.PLLSAIN));

    /*----------------- In Case of PLLSAI is selected as source clock for SAI -------------------*/
    if(((((PeriphClkInit->PeriphClockSelection) & RCC_PERIPHCLK_SAI1) == RCC_PERIPHCLK_SAI1) && (PeriphClkInit->Sai1ClockSelection == RCC_SAI1CLKSOURCE_PLLSAI)) ||\
 80035d6:	687b      	ldr	r3, [r7, #4]
 80035d8:	681b      	ldr	r3, [r3, #0]
 80035da:	f403 2300 	and.w	r3, r3, #524288	@ 0x80000
 80035de:	2b00      	cmp	r3, #0
 80035e0:	d003      	beq.n	80035ea <HAL_RCCEx_PeriphCLKConfig+0x682>
 80035e2:	687b      	ldr	r3, [r7, #4]
 80035e4:	6bdb      	ldr	r3, [r3, #60]	@ 0x3c
 80035e6:	2b00      	cmp	r3, #0
 80035e8:	d009      	beq.n	80035fe <HAL_RCCEx_PeriphCLKConfig+0x696>
       ((((PeriphClkInit->PeriphClockSelection) & RCC_PERIPHCLK_SAI2) == RCC_PERIPHCLK_SAI2) && (PeriphClkInit->Sai2ClockSelection == RCC_SAI2CLKSOURCE_PLLSAI)))
 80035ea:	687b      	ldr	r3, [r7, #4]
 80035ec:	681b      	ldr	r3, [r3, #0]
 80035ee:	f403 1380 	and.w	r3, r3, #1048576	@ 0x100000
    if(((((PeriphClkInit->PeriphClockSelection) & RCC_PERIPHCLK_SAI1) == RCC_PERIPHCLK_SAI1) && (PeriphClkInit->Sai1ClockSelection == RCC_SAI1CLKSOURCE_PLLSAI)) ||\
 80035f2:	2b00      	cmp	r3, #0
 80035f4:	d02e      	beq.n	8003654 <HAL_RCCEx_PeriphCLKConfig+0x6ec>
       ((((PeriphClkInit->PeriphClockSelection) & RCC_PERIPHCLK_SAI2) == RCC_PERIPHCLK_SAI2) && (PeriphClkInit->Sai2ClockSelection == RCC_SAI2CLKSOURCE_PLLSAI)))
 80035f6:	687b      	ldr	r3, [r7, #4]
 80035f8:	6c1b      	ldr	r3, [r3, #64]	@ 0x40
 80035fa:	2b00      	cmp	r3, #0
 80035fc:	d12a      	bne.n	8003654 <HAL_RCCEx_PeriphCLKConfig+0x6ec>
      assert_param(IS_RCC_PLLSAIQ_VALUE(PeriphClkInit->PLLSAI.PLLSAIQ));
      /* check for PLLSAI/DIVQ Parameter */
      assert_param(IS_RCC_PLLSAI_DIVQ_VALUE(PeriphClkInit->PLLSAIDivQ));

      /* Read PLLSAIP value from PLLSAICFGR register (this value is not needed for SAI configuration) */
      tmpreg0 = ((RCC->PLLSAICFGR & RCC_PLLSAICFGR_PLLSAIP) >> RCC_PLLSAICFGR_PLLSAIP_Pos);
 80035fe:	4b51      	ldr	r3, [pc, #324]	@ (8003744 <HAL_RCCEx_PeriphCLKConfig+0x7dc>)
 8003600:	f8d3 3088 	ldr.w	r3, [r3, #136]	@ 0x88
 8003604:	0c1b      	lsrs	r3, r3, #16
 8003606:	f003 0303 	and.w	r3, r3, #3
 800360a:	613b      	str	r3, [r7, #16]
      tmpreg1 = ((RCC->PLLSAICFGR & RCC_PLLI2SCFGR_PLLI2SR) >> RCC_PLLSAICFGR_PLLSAIR_Pos);
 800360c:	4b4d      	ldr	r3, [pc, #308]	@ (8003744 <HAL_RCCEx_PeriphCLKConfig+0x7dc>)
 800360e:	f8d3 3088 	ldr.w	r3, [r3, #136]	@ 0x88
 8003612:	0f1b      	lsrs	r3, r3, #28
 8003614:	f003 0307 	and.w	r3, r3, #7
 8003618:	60fb      	str	r3, [r7, #12]
      /* PLLSAI_VCO Input  = PLL_SOURCE/PLLM */
      /* PLLSAI_VCO Output = PLLSAI_VCO Input * PLLSAIN */
      /* SAI_CLK(first level) = PLLSAI_VCO Output/PLLSAIQ */
      __HAL_RCC_PLLSAI_CONFIG(PeriphClkInit->PLLSAI.PLLSAIN , tmpreg0, PeriphClkInit->PLLSAI.PLLSAIQ, tmpreg1);
 800361a:	687b      	ldr	r3, [r7, #4]
 800361c:	695b      	ldr	r3, [r3, #20]
 800361e:	019a      	lsls	r2, r3, #6
 8003620:	693b      	ldr	r3, [r7, #16]
 8003622:	041b      	lsls	r3, r3, #16
 8003624:	431a      	orrs	r2, r3
 8003626:	687b      	ldr	r3, [r7, #4]
 8003628:	699b      	ldr	r3, [r3, #24]
 800362a:	061b      	lsls	r3, r3, #24
 800362c:	431a      	orrs	r2, r3
 800362e:	68fb      	ldr	r3, [r7, #12]
 8003630:	071b      	lsls	r3, r3, #28
 8003632:	4944      	ldr	r1, [pc, #272]	@ (8003744 <HAL_RCCEx_PeriphCLKConfig+0x7dc>)
 8003634:	4313      	orrs	r3, r2
 8003636:	f8c1 3088 	str.w	r3, [r1, #136]	@ 0x88

      /* SAI_CLK_x = SAI_CLK(first level)/PLLSAIDIVQ */
      __HAL_RCC_PLLSAI_PLLSAICLKDIVQ_CONFIG(PeriphClkInit->PLLSAIDivQ);
 800363a:	4b42      	ldr	r3, [pc, #264]	@ (8003744 <HAL_RCCEx_PeriphCLKConfig+0x7dc>)
 800363c:	f8d3 308c 	ldr.w	r3, [r3, #140]	@ 0x8c
 8003640:	f423 52f8 	bic.w	r2, r3, #7936	@ 0x1f00
 8003644:	687b      	ldr	r3, [r7, #4]
 8003646:	6a9b      	ldr	r3, [r3, #40]	@ 0x28
 8003648:	3b01      	subs	r3, #1
 800364a:	021b      	lsls	r3, r3, #8
 800364c:	493d      	ldr	r1, [pc, #244]	@ (8003744 <HAL_RCCEx_PeriphCLKConfig+0x7dc>)
 800364e:	4313      	orrs	r3, r2
 8003650:	f8c1 308c 	str.w	r3, [r1, #140]	@ 0x8c
    }

    /*----------------- In Case of PLLSAI is selected as source clock for CLK48 -------------------*/
    /* In Case of PLLI2S is selected as source clock for CK48 */
    if((((PeriphClkInit->PeriphClockSelection) & RCC_PERIPHCLK_CLK48) == RCC_PERIPHCLK_CLK48) && (PeriphClkInit->Clk48ClockSelection == RCC_CLK48SOURCE_PLLSAIP))
 8003654:	687b      	ldr	r3, [r7, #4]
 8003656:	681b      	ldr	r3, [r3, #0]
 8003658:	f403 1300 	and.w	r3, r3, #2097152	@ 0x200000
 800365c:	2b00      	cmp	r3, #0
 800365e:	d022      	beq.n	80036a6 <HAL_RCCEx_PeriphCLKConfig+0x73e>
 8003660:	687b      	ldr	r3, [r7, #4]
 8003662:	6fdb      	ldr	r3, [r3, #124]	@ 0x7c
 8003664:	f1b3 6f00 	cmp.w	r3, #134217728	@ 0x8000000
 8003668:	d11d      	bne.n	80036a6 <HAL_RCCEx_PeriphCLKConfig+0x73e>
    {
      /* check for Parameters */
      assert_param(IS_RCC_PLLSAIP_VALUE(PeriphClkInit->PLLSAI.PLLSAIP));
      /* Read PLLSAIQ and PLLSAIR value from PLLSAICFGR register (this value is not needed for CK48 configuration) */
      tmpreg0 = ((RCC->PLLSAICFGR & RCC_PLLSAICFGR_PLLSAIQ) >> RCC_PLLSAICFGR_PLLSAIQ_Pos);
 800366a:	4b36      	ldr	r3, [pc, #216]	@ (8003744 <HAL_RCCEx_PeriphCLKConfig+0x7dc>)
 800366c:	f8d3 3088 	ldr.w	r3, [r3, #136]	@ 0x88
 8003670:	0e1b      	lsrs	r3, r3, #24
 8003672:	f003 030f 	and.w	r3, r3, #15
 8003676:	613b      	str	r3, [r7, #16]
      tmpreg1 = ((RCC->PLLSAICFGR & RCC_PLLSAICFGR_PLLSAIR) >> RCC_PLLSAICFGR_PLLSAIR_Pos);
 8003678:	4b32      	ldr	r3, [pc, #200]	@ (8003744 <HAL_RCCEx_PeriphCLKConfig+0x7dc>)
 800367a:	f8d3 3088 	ldr.w	r3, [r3, #136]	@ 0x88
 800367e:	0f1b      	lsrs	r3, r3, #28
 8003680:	f003 0307 	and.w	r3, r3, #7
 8003684:	60fb      	str	r3, [r7, #12]

      /* Configure the PLLSAI division factors */
      /* PLLSAI_VCO = f(VCO clock) = f(PLLSAI clock input) x (PLLI2SN/PLLM) */
      /* 48CLK = f(PLLSAI clock output) = f(VCO clock) / PLLSAIP */
      __HAL_RCC_PLLSAI_CONFIG(PeriphClkInit->PLLSAI.PLLSAIN , PeriphClkInit->PLLSAI.PLLSAIP, tmpreg0, tmpreg1);
 8003686:	687b      	ldr	r3, [r7, #4]
 8003688:	695b      	ldr	r3, [r3, #20]
 800368a:	019a      	lsls	r2, r3, #6
 800368c:	687b      	ldr	r3, [r7, #4]
 800368e:	6a1b      	ldr	r3, [r3, #32]
 8003690:	041b      	lsls	r3, r3, #16
 8003692:	431a      	orrs	r2, r3
 8003694:	693b      	ldr	r3, [r7, #16]
 8003696:	061b      	lsls	r3, r3, #24
 8003698:	431a      	orrs	r2, r3
 800369a:	68fb      	ldr	r3, [r7, #12]
 800369c:	071b      	lsls	r3, r3, #28
 800369e:	4929      	ldr	r1, [pc, #164]	@ (8003744 <HAL_RCCEx_PeriphCLKConfig+0x7dc>)
 80036a0:	4313      	orrs	r3, r2
 80036a2:	f8c1 3088 	str.w	r3, [r1, #136]	@ 0x88
    }

#if defined(STM32F746xx) || defined(STM32F756xx) || defined (STM32F767xx) || defined (STM32F769xx) || defined (STM32F777xx) || defined (STM32F779xx) || defined (STM32F750xx)
    /*---------------------------- LTDC configuration -------------------------------*/
    if(((PeriphClkInit->PeriphClockSelection) & RCC_PERIPHCLK_LTDC) == (RCC_PERIPHCLK_LTDC))
 80036a6:	687b      	ldr	r3, [r7, #4]
 80036a8:	681b      	ldr	r3, [r3, #0]
 80036aa:	f003 0308 	and.w	r3, r3, #8
 80036ae:	2b00      	cmp	r3, #0
 80036b0:	d028      	beq.n	8003704 <HAL_RCCEx_PeriphCLKConfig+0x79c>
    {
      assert_param(IS_RCC_PLLSAIR_VALUE(PeriphClkInit->PLLSAI.PLLSAIR));
      assert_param(IS_RCC_PLLSAI_DIVR_VALUE(PeriphClkInit->PLLSAIDivR));

      /* Read PLLSAIP and PLLSAIQ value from PLLSAICFGR register (these value are not needed for LTDC configuration) */
      tmpreg0 = ((RCC->PLLSAICFGR & RCC_PLLSAICFGR_PLLSAIQ) >> RCC_PLLSAICFGR_PLLSAIQ_Pos);
 80036b2:	4b24      	ldr	r3, [pc, #144]	@ (8003744 <HAL_RCCEx_PeriphCLKConfig+0x7dc>)
 80036b4:	f8d3 3088 	ldr.w	r3, [r3, #136]	@ 0x88
 80036b8:	0e1b      	lsrs	r3, r3, #24
 80036ba:	f003 030f 	and.w	r3, r3, #15
 80036be:	613b      	str	r3, [r7, #16]
      tmpreg1 = ((RCC->PLLSAICFGR & RCC_PLLSAICFGR_PLLSAIP) >> RCC_PLLSAICFGR_PLLSAIP_Pos);
 80036c0:	4b20      	ldr	r3, [pc, #128]	@ (8003744 <HAL_RCCEx_PeriphCLKConfig+0x7dc>)
 80036c2:	f8d3 3088 	ldr.w	r3, [r3, #136]	@ 0x88
 80036c6:	0c1b      	lsrs	r3, r3, #16
 80036c8:	f003 0303 	and.w	r3, r3, #3
 80036cc:	60fb      	str	r3, [r7, #12]

      /* PLLSAI_VCO Input  = PLL_SOURCE/PLLM */
      /* PLLSAI_VCO Output = PLLSAI_VCO Input * PLLSAIN */
      /* LTDC_CLK(first level) = PLLSAI_VCO Output/PLLSAIR */
      __HAL_RCC_PLLSAI_CONFIG(PeriphClkInit->PLLSAI.PLLSAIN , tmpreg1, tmpreg0, PeriphClkInit->PLLSAI.PLLSAIR);
 80036ce:	687b      	ldr	r3, [r7, #4]
 80036d0:	695b      	ldr	r3, [r3, #20]
 80036d2:	019a      	lsls	r2, r3, #6
 80036d4:	68fb      	ldr	r3, [r7, #12]
 80036d6:	041b      	lsls	r3, r3, #16
 80036d8:	431a      	orrs	r2, r3
 80036da:	693b      	ldr	r3, [r7, #16]
 80036dc:	061b      	lsls	r3, r3, #24
 80036de:	431a      	orrs	r2, r3
 80036e0:	687b      	ldr	r3, [r7, #4]
 80036e2:	69db      	ldr	r3, [r3, #28]
 80036e4:	071b      	lsls	r3, r3, #28
 80036e6:	4917      	ldr	r1, [pc, #92]	@ (8003744 <HAL_RCCEx_PeriphCLKConfig+0x7dc>)
 80036e8:	4313      	orrs	r3, r2
 80036ea:	f8c1 3088 	str.w	r3, [r1, #136]	@ 0x88

      /* LTDC_CLK = LTDC_CLK(first level)/PLLSAIDIVR */
      __HAL_RCC_PLLSAI_PLLSAICLKDIVR_CONFIG(PeriphClkInit->PLLSAIDivR);
 80036ee:	4b15      	ldr	r3, [pc, #84]	@ (8003744 <HAL_RCCEx_PeriphCLKConfig+0x7dc>)
 80036f0:	f8d3 308c 	ldr.w	r3, [r3, #140]	@ 0x8c
 80036f4:	f423 3240 	bic.w	r2, r3, #196608	@ 0x30000
 80036f8:	687b      	ldr	r3, [r7, #4]
 80036fa:	6adb      	ldr	r3, [r3, #44]	@ 0x2c
 80036fc:	4911      	ldr	r1, [pc, #68]	@ (8003744 <HAL_RCCEx_PeriphCLKConfig+0x7dc>)
 80036fe:	4313      	orrs	r3, r2
 8003700:	f8c1 308c 	str.w	r3, [r1, #140]	@ 0x8c
    }
#endif /* STM32F746xx || STM32F756xx || STM32F767xx || STM32F769xx || STM32F777xx || STM32F779xx || STM32F750xx  */

    /* Enable PLLSAI Clock */
    __HAL_RCC_PLLSAI_ENABLE();
 8003704:	4b0f      	ldr	r3, [pc, #60]	@ (8003744 <HAL_RCCEx_PeriphCLKConfig+0x7dc>)
 8003706:	681b      	ldr	r3, [r3, #0]
 8003708:	4a0e      	ldr	r2, [pc, #56]	@ (8003744 <HAL_RCCEx_PeriphCLKConfig+0x7dc>)
 800370a:	f043 5380 	orr.w	r3, r3, #268435456	@ 0x10000000
 800370e:	6013      	str	r3, [r2, #0]

    /* Get Start Tick*/
    tickstart = HAL_GetTick();
 8003710:	f7fe f95c 	bl	80019cc <HAL_GetTick>
 8003714:	6178      	str	r0, [r7, #20]

    /* Wait till PLLSAI is ready */
    while(__HAL_RCC_PLLSAI_GET_FLAG() == RESET)
 8003716:	e008      	b.n	800372a <HAL_RCCEx_PeriphCLKConfig+0x7c2>
    {
      if((HAL_GetTick() - tickstart) > PLLSAI_TIMEOUT_VALUE)
 8003718:	f7fe f958 	bl	80019cc <HAL_GetTick>
 800371c:	4602      	mov	r2, r0
 800371e:	697b      	ldr	r3, [r7, #20]
 8003720:	1ad3      	subs	r3, r2, r3
 8003722:	2b64      	cmp	r3, #100	@ 0x64
 8003724:	d901      	bls.n	800372a <HAL_RCCEx_PeriphCLKConfig+0x7c2>
      {
        /* return in case of Timeout detected */
        return HAL_TIMEOUT;
 8003726:	2303      	movs	r3, #3
 8003728:	e007      	b.n	800373a <HAL_RCCEx_PeriphCLKConfig+0x7d2>
    while(__HAL_RCC_PLLSAI_GET_FLAG() == RESET)
 800372a:	4b06      	ldr	r3, [pc, #24]	@ (8003744 <HAL_RCCEx_PeriphCLKConfig+0x7dc>)
 800372c:	681b      	ldr	r3, [r3, #0]
 800372e:	f003 5300 	and.w	r3, r3, #536870912	@ 0x20000000
 8003732:	f1b3 5f00 	cmp.w	r3, #536870912	@ 0x20000000
 8003736:	d1ef      	bne.n	8003718 <HAL_RCCEx_PeriphCLKConfig+0x7b0>
      }
    }
  }
  return HAL_OK;
 8003738:	2300      	movs	r3, #0
}
 800373a:	4618      	mov	r0, r3
 800373c:	3720      	adds	r7, #32
 800373e:	46bd      	mov	sp, r7
 8003740:	bd80      	pop	{r7, pc}
 8003742:	bf00      	nop
 8003744:	40023800 	.word	0x40023800

08003748 <HAL_UART_Init>:
  *        parameters in the UART_InitTypeDef and initialize the associated handle.
  * @param huart UART handle.
  * @retval HAL status
  */
HAL_StatusTypeDef HAL_UART_Init(UART_HandleTypeDef *huart)
{
 8003748:	b580      	push	{r7, lr}
 800374a:	b082      	sub	sp, #8
 800374c:	af00      	add	r7, sp, #0
 800374e:	6078      	str	r0, [r7, #4]
  /* Check the UART handle allocation */
  if (huart == NULL)
 8003750:	687b      	ldr	r3, [r7, #4]
 8003752:	2b00      	cmp	r3, #0
 8003754:	d101      	bne.n	800375a <HAL_UART_Init+0x12>
  {
    return HAL_ERROR;
 8003756:	2301      	movs	r3, #1
 8003758:	e040      	b.n	80037dc <HAL_UART_Init+0x94>
  {
    /* Check the parameters */
    assert_param(IS_UART_INSTANCE(huart->Instance));
  }

  if (huart->gState == HAL_UART_STATE_RESET)
 800375a:	687b      	ldr	r3, [r7, #4]
 800375c:	6fdb      	ldr	r3, [r3, #124]	@ 0x7c
 800375e:	2b00      	cmp	r3, #0
 8003760:	d106      	bne.n	8003770 <HAL_UART_Init+0x28>
  {
    /* Allocate lock resource and initialize it */
    huart->Lock = HAL_UNLOCKED;
 8003762:	687b      	ldr	r3, [r7, #4]
 8003764:	2200      	movs	r2, #0
 8003766:	f883 2078 	strb.w	r2, [r3, #120]	@ 0x78

    /* Init the low level hardware */
    huart->MspInitCallback(huart);
#else
    /* Init the low level hardware : GPIO, CLOCK */
    HAL_UART_MspInit(huart);
 800376a:	6878      	ldr	r0, [r7, #4]
 800376c:	f7fd fe6c 	bl	8001448 <HAL_UART_MspInit>
#endif /* (USE_HAL_UART_REGISTER_CALLBACKS) */
  }

  huart->gState = HAL_UART_STATE_BUSY;
 8003770:	687b      	ldr	r3, [r7, #4]
 8003772:	2224      	movs	r2, #36	@ 0x24
 8003774:	67da      	str	r2, [r3, #124]	@ 0x7c

  __HAL_UART_DISABLE(huart);
 8003776:	687b      	ldr	r3, [r7, #4]
 8003778:	681b      	ldr	r3, [r3, #0]
 800377a:	681a      	ldr	r2, [r3, #0]
 800377c:	687b      	ldr	r3, [r7, #4]
 800377e:	681b      	ldr	r3, [r3, #0]
 8003780:	f022 0201 	bic.w	r2, r2, #1
 8003784:	601a      	str	r2, [r3, #0]

  /* Perform advanced settings configuration */
  /* For some items, configuration requires to be done prior TE and RE bits are set */
  if (huart->AdvancedInit.AdvFeatureInit != UART_ADVFEATURE_NO_INIT)
 8003786:	687b      	ldr	r3, [r7, #4]
 8003788:	6a5b      	ldr	r3, [r3, #36]	@ 0x24
 800378a:	2b00      	cmp	r3, #0
 800378c:	d002      	beq.n	8003794 <HAL_UART_Init+0x4c>
  {
    UART_AdvFeatureConfig(huart);
 800378e:	6878      	ldr	r0, [r7, #4]
 8003790:	f000 fb16 	bl	8003dc0 <UART_AdvFeatureConfig>
  }

  /* Set the UART Communication parameters */
  if (UART_SetConfig(huart) == HAL_ERROR)
 8003794:	6878      	ldr	r0, [r7, #4]
 8003796:	f000 f8af 	bl	80038f8 <UART_SetConfig>
 800379a:	4603      	mov	r3, r0
 800379c:	2b01      	cmp	r3, #1
 800379e:	d101      	bne.n	80037a4 <HAL_UART_Init+0x5c>
  {
    return HAL_ERROR;
 80037a0:	2301      	movs	r3, #1
 80037a2:	e01b      	b.n	80037dc <HAL_UART_Init+0x94>
  }

  /* In asynchronous mode, the following bits must be kept cleared:
  - LINEN and CLKEN bits in the USART_CR2 register,
  - SCEN, HDSEL and IREN  bits in the USART_CR3 register.*/
  CLEAR_BIT(huart->Instance->CR2, (USART_CR2_LINEN | USART_CR2_CLKEN));
 80037a4:	687b      	ldr	r3, [r7, #4]
 80037a6:	681b      	ldr	r3, [r3, #0]
 80037a8:	685a      	ldr	r2, [r3, #4]
 80037aa:	687b      	ldr	r3, [r7, #4]
 80037ac:	681b      	ldr	r3, [r3, #0]
 80037ae:	f422 4290 	bic.w	r2, r2, #18432	@ 0x4800
 80037b2:	605a      	str	r2, [r3, #4]
  CLEAR_BIT(huart->Instance->CR3, (USART_CR3_SCEN | USART_CR3_HDSEL | USART_CR3_IREN));
 80037b4:	687b      	ldr	r3, [r7, #4]
 80037b6:	681b      	ldr	r3, [r3, #0]
 80037b8:	689a      	ldr	r2, [r3, #8]
 80037ba:	687b      	ldr	r3, [r7, #4]
 80037bc:	681b      	ldr	r3, [r3, #0]
 80037be:	f022 022a 	bic.w	r2, r2, #42	@ 0x2a
 80037c2:	609a      	str	r2, [r3, #8]

  __HAL_UART_ENABLE(huart);
 80037c4:	687b      	ldr	r3, [r7, #4]
 80037c6:	681b      	ldr	r3, [r3, #0]
 80037c8:	681a      	ldr	r2, [r3, #0]
 80037ca:	687b      	ldr	r3, [r7, #4]
 80037cc:	681b      	ldr	r3, [r3, #0]
 80037ce:	f042 0201 	orr.w	r2, r2, #1
 80037d2:	601a      	str	r2, [r3, #0]

  /* TEACK and/or REACK to check before moving huart->gState and huart->RxState to Ready */
  return (UART_CheckIdleState(huart));
 80037d4:	6878      	ldr	r0, [r7, #4]
 80037d6:	f000 fb95 	bl	8003f04 <UART_CheckIdleState>
 80037da:	4603      	mov	r3, r0
}
 80037dc:	4618      	mov	r0, r3
 80037de:	3708      	adds	r7, #8
 80037e0:	46bd      	mov	sp, r7
 80037e2:	bd80      	pop	{r7, pc}

080037e4 <HAL_UART_Transmit>:
  * @param Size    Amount of data elements (u8 or u16) to be sent.
  * @param Timeout Timeout duration.
  * @retval HAL status
  */
HAL_StatusTypeDef HAL_UART_Transmit(UART_HandleTypeDef *huart, const uint8_t *pData, uint16_t Size, uint32_t Timeout)
{
 80037e4:	b580      	push	{r7, lr}
 80037e6:	b08a      	sub	sp, #40	@ 0x28
 80037e8:	af02      	add	r7, sp, #8
 80037ea:	60f8      	str	r0, [r7, #12]
 80037ec:	60b9      	str	r1, [r7, #8]
 80037ee:	603b      	str	r3, [r7, #0]
 80037f0:	4613      	mov	r3, r2
 80037f2:	80fb      	strh	r3, [r7, #6]
  const uint8_t  *pdata8bits;
  const uint16_t *pdata16bits;
  uint32_t tickstart;

  /* Check that a Tx process is not already ongoing */
  if (huart->gState == HAL_UART_STATE_READY)
 80037f4:	68fb      	ldr	r3, [r7, #12]
 80037f6:	6fdb      	ldr	r3, [r3, #124]	@ 0x7c
 80037f8:	2b20      	cmp	r3, #32
 80037fa:	d177      	bne.n	80038ec <HAL_UART_Transmit+0x108>
  {
    if ((pData == NULL) || (Size == 0U))
 80037fc:	68bb      	ldr	r3, [r7, #8]
 80037fe:	2b00      	cmp	r3, #0
 8003800:	d002      	beq.n	8003808 <HAL_UART_Transmit+0x24>
 8003802:	88fb      	ldrh	r3, [r7, #6]
 8003804:	2b00      	cmp	r3, #0
 8003806:	d101      	bne.n	800380c <HAL_UART_Transmit+0x28>
    {
      return  HAL_ERROR;
 8003808:	2301      	movs	r3, #1
 800380a:	e070      	b.n	80038ee <HAL_UART_Transmit+0x10a>
    }

    huart->ErrorCode = HAL_UART_ERROR_NONE;
 800380c:	68fb      	ldr	r3, [r7, #12]
 800380e:	2200      	movs	r2, #0
 8003810:	f8c3 2084 	str.w	r2, [r3, #132]	@ 0x84
    huart->gState = HAL_UART_STATE_BUSY_TX;
 8003814:	68fb      	ldr	r3, [r7, #12]
 8003816:	2221      	movs	r2, #33	@ 0x21
 8003818:	67da      	str	r2, [r3, #124]	@ 0x7c

    /* Init tickstart for timeout management */
    tickstart = HAL_GetTick();
 800381a:	f7fe f8d7 	bl	80019cc <HAL_GetTick>
 800381e:	6178      	str	r0, [r7, #20]

    huart->TxXferSize  = Size;
 8003820:	68fb      	ldr	r3, [r7, #12]
 8003822:	88fa      	ldrh	r2, [r7, #6]
 8003824:	f8a3 2050 	strh.w	r2, [r3, #80]	@ 0x50
    huart->TxXferCount = Size;
 8003828:	68fb      	ldr	r3, [r7, #12]
 800382a:	88fa      	ldrh	r2, [r7, #6]
 800382c:	f8a3 2052 	strh.w	r2, [r3, #82]	@ 0x52

    /* In case of 9bits/No Parity transfer, pData needs to be handled as a uint16_t pointer */
    if ((huart->Init.WordLength == UART_WORDLENGTH_9B) && (huart->Init.Parity == UART_PARITY_NONE))
 8003830:	68fb      	ldr	r3, [r7, #12]
 8003832:	689b      	ldr	r3, [r3, #8]
 8003834:	f5b3 5f80 	cmp.w	r3, #4096	@ 0x1000
 8003838:	d108      	bne.n	800384c <HAL_UART_Transmit+0x68>
 800383a:	68fb      	ldr	r3, [r7, #12]
 800383c:	691b      	ldr	r3, [r3, #16]
 800383e:	2b00      	cmp	r3, #0
 8003840:	d104      	bne.n	800384c <HAL_UART_Transmit+0x68>
    {
      pdata8bits  = NULL;
 8003842:	2300      	movs	r3, #0
 8003844:	61fb      	str	r3, [r7, #28]
      pdata16bits = (const uint16_t *) pData;
 8003846:	68bb      	ldr	r3, [r7, #8]
 8003848:	61bb      	str	r3, [r7, #24]
 800384a:	e003      	b.n	8003854 <HAL_UART_Transmit+0x70>
    }
    else
    {
      pdata8bits  = pData;
 800384c:	68bb      	ldr	r3, [r7, #8]
 800384e:	61fb      	str	r3, [r7, #28]
      pdata16bits = NULL;
 8003850:	2300      	movs	r3, #0
 8003852:	61bb      	str	r3, [r7, #24]
    }

    while (huart->TxXferCount > 0U)
 8003854:	e02f      	b.n	80038b6 <HAL_UART_Transmit+0xd2>
    {
      if (UART_WaitOnFlagUntilTimeout(huart, UART_FLAG_TXE, RESET, tickstart, Timeout) != HAL_OK)
 8003856:	683b      	ldr	r3, [r7, #0]
 8003858:	9300      	str	r3, [sp, #0]
 800385a:	697b      	ldr	r3, [r7, #20]
 800385c:	2200      	movs	r2, #0
 800385e:	2180      	movs	r1, #128	@ 0x80
 8003860:	68f8      	ldr	r0, [r7, #12]
 8003862:	f000 fba6 	bl	8003fb2 <UART_WaitOnFlagUntilTimeout>
 8003866:	4603      	mov	r3, r0
 8003868:	2b00      	cmp	r3, #0
 800386a:	d004      	beq.n	8003876 <HAL_UART_Transmit+0x92>
      {

        huart->gState = HAL_UART_STATE_READY;
 800386c:	68fb      	ldr	r3, [r7, #12]
 800386e:	2220      	movs	r2, #32
 8003870:	67da      	str	r2, [r3, #124]	@ 0x7c

        return HAL_TIMEOUT;
 8003872:	2303      	movs	r3, #3
 8003874:	e03b      	b.n	80038ee <HAL_UART_Transmit+0x10a>
      }
      if (pdata8bits == NULL)
 8003876:	69fb      	ldr	r3, [r7, #28]
 8003878:	2b00      	cmp	r3, #0
 800387a:	d10b      	bne.n	8003894 <HAL_UART_Transmit+0xb0>
      {
        huart->Instance->TDR = (uint16_t)(*pdata16bits & 0x01FFU);
 800387c:	69bb      	ldr	r3, [r7, #24]
 800387e:	881b      	ldrh	r3, [r3, #0]
 8003880:	461a      	mov	r2, r3
 8003882:	68fb      	ldr	r3, [r7, #12]
 8003884:	681b      	ldr	r3, [r3, #0]
 8003886:	f3c2 0208 	ubfx	r2, r2, #0, #9
 800388a:	629a      	str	r2, [r3, #40]	@ 0x28
        pdata16bits++;
 800388c:	69bb      	ldr	r3, [r7, #24]
 800388e:	3302      	adds	r3, #2
 8003890:	61bb      	str	r3, [r7, #24]
 8003892:	e007      	b.n	80038a4 <HAL_UART_Transmit+0xc0>
      }
      else
      {
        huart->Instance->TDR = (uint8_t)(*pdata8bits & 0xFFU);
 8003894:	69fb      	ldr	r3, [r7, #28]
 8003896:	781a      	ldrb	r2, [r3, #0]
 8003898:	68fb      	ldr	r3, [r7, #12]
 800389a:	681b      	ldr	r3, [r3, #0]
 800389c:	629a      	str	r2, [r3, #40]	@ 0x28
        pdata8bits++;
 800389e:	69fb      	ldr	r3, [r7, #28]
 80038a0:	3301      	adds	r3, #1
 80038a2:	61fb      	str	r3, [r7, #28]
      }
      huart->TxXferCount--;
 80038a4:	68fb      	ldr	r3, [r7, #12]
 80038a6:	f8b3 3052 	ldrh.w	r3, [r3, #82]	@ 0x52
 80038aa:	b29b      	uxth	r3, r3
 80038ac:	3b01      	subs	r3, #1
 80038ae:	b29a      	uxth	r2, r3
 80038b0:	68fb      	ldr	r3, [r7, #12]
 80038b2:	f8a3 2052 	strh.w	r2, [r3, #82]	@ 0x52
    while (huart->TxXferCount > 0U)
 80038b6:	68fb      	ldr	r3, [r7, #12]
 80038b8:	f8b3 3052 	ldrh.w	r3, [r3, #82]	@ 0x52
 80038bc:	b29b      	uxth	r3, r3
 80038be:	2b00      	cmp	r3, #0
 80038c0:	d1c9      	bne.n	8003856 <HAL_UART_Transmit+0x72>
    }

    if (UART_WaitOnFlagUntilTimeout(huart, UART_FLAG_TC, RESET, tickstart, Timeout) != HAL_OK)
 80038c2:	683b      	ldr	r3, [r7, #0]
 80038c4:	9300      	str	r3, [sp, #0]
 80038c6:	697b      	ldr	r3, [r7, #20]
 80038c8:	2200      	movs	r2, #0
 80038ca:	2140      	movs	r1, #64	@ 0x40
 80038cc:	68f8      	ldr	r0, [r7, #12]
 80038ce:	f000 fb70 	bl	8003fb2 <UART_WaitOnFlagUntilTimeout>
 80038d2:	4603      	mov	r3, r0
 80038d4:	2b00      	cmp	r3, #0
 80038d6:	d004      	beq.n	80038e2 <HAL_UART_Transmit+0xfe>
    {
      huart->gState = HAL_UART_STATE_READY;
 80038d8:	68fb      	ldr	r3, [r7, #12]
 80038da:	2220      	movs	r2, #32
 80038dc:	67da      	str	r2, [r3, #124]	@ 0x7c

      return HAL_TIMEOUT;
 80038de:	2303      	movs	r3, #3
 80038e0:	e005      	b.n	80038ee <HAL_UART_Transmit+0x10a>
    }

    /* At end of Tx process, restore huart->gState to Ready */
    huart->gState = HAL_UART_STATE_READY;
 80038e2:	68fb      	ldr	r3, [r7, #12]
 80038e4:	2220      	movs	r2, #32
 80038e6:	67da      	str	r2, [r3, #124]	@ 0x7c

    return HAL_OK;
 80038e8:	2300      	movs	r3, #0
 80038ea:	e000      	b.n	80038ee <HAL_UART_Transmit+0x10a>
  }
  else
  {
    return HAL_BUSY;
 80038ec:	2302      	movs	r3, #2
  }
}
 80038ee:	4618      	mov	r0, r3
 80038f0:	3720      	adds	r7, #32
 80038f2:	46bd      	mov	sp, r7
 80038f4:	bd80      	pop	{r7, pc}
	...

080038f8 <UART_SetConfig>:
  * @brief Configure the UART peripheral.
  * @param huart UART handle.
  * @retval HAL status
  */
HAL_StatusTypeDef UART_SetConfig(UART_HandleTypeDef *huart)
{
 80038f8:	b580      	push	{r7, lr}
 80038fa:	b088      	sub	sp, #32
 80038fc:	af00      	add	r7, sp, #0
 80038fe:	6078      	str	r0, [r7, #4]
  uint32_t tmpreg;
  uint16_t brrtemp;
  UART_ClockSourceTypeDef clocksource;
  uint32_t usartdiv;
  HAL_StatusTypeDef ret               = HAL_OK;
 8003900:	2300      	movs	r3, #0
 8003902:	77bb      	strb	r3, [r7, #30]
  *  the UART Word Length, Parity, Mode and oversampling:
  *  set the M bits according to huart->Init.WordLength value
  *  set PCE and PS bits according to huart->Init.Parity value
  *  set TE and RE bits according to huart->Init.Mode value
  *  set OVER8 bit according to huart->Init.OverSampling value */
  tmpreg = (uint32_t)huart->Init.WordLength | huart->Init.Parity | huart->Init.Mode | huart->Init.OverSampling ;
 8003904:	687b      	ldr	r3, [r7, #4]
 8003906:	689a      	ldr	r2, [r3, #8]
 8003908:	687b      	ldr	r3, [r7, #4]
 800390a:	691b      	ldr	r3, [r3, #16]
 800390c:	431a      	orrs	r2, r3
 800390e:	687b      	ldr	r3, [r7, #4]
 8003910:	695b      	ldr	r3, [r3, #20]
 8003912:	431a      	orrs	r2, r3
 8003914:	687b      	ldr	r3, [r7, #4]
 8003916:	69db      	ldr	r3, [r3, #28]
 8003918:	4313      	orrs	r3, r2
 800391a:	617b      	str	r3, [r7, #20]
  MODIFY_REG(huart->Instance->CR1, USART_CR1_FIELDS, tmpreg);
 800391c:	687b      	ldr	r3, [r7, #4]
 800391e:	681b      	ldr	r3, [r3, #0]
 8003920:	681a      	ldr	r2, [r3, #0]
 8003922:	4ba6      	ldr	r3, [pc, #664]	@ (8003bbc <UART_SetConfig+0x2c4>)
 8003924:	4013      	ands	r3, r2
 8003926:	687a      	ldr	r2, [r7, #4]
 8003928:	6812      	ldr	r2, [r2, #0]
 800392a:	6979      	ldr	r1, [r7, #20]
 800392c:	430b      	orrs	r3, r1
 800392e:	6013      	str	r3, [r2, #0]

  /*-------------------------- USART CR2 Configuration -----------------------*/
  /* Configure the UART Stop Bits: Set STOP[13:12] bits according
  * to huart->Init.StopBits value */
  MODIFY_REG(huart->Instance->CR2, USART_CR2_STOP, huart->Init.StopBits);
 8003930:	687b      	ldr	r3, [r7, #4]
 8003932:	681b      	ldr	r3, [r3, #0]
 8003934:	685b      	ldr	r3, [r3, #4]
 8003936:	f423 5140 	bic.w	r1, r3, #12288	@ 0x3000
 800393a:	687b      	ldr	r3, [r7, #4]
 800393c:	68da      	ldr	r2, [r3, #12]
 800393e:	687b      	ldr	r3, [r7, #4]
 8003940:	681b      	ldr	r3, [r3, #0]
 8003942:	430a      	orrs	r2, r1
 8003944:	605a      	str	r2, [r3, #4]
  /* Configure
  * - UART HardWare Flow Control: set CTSE and RTSE bits according
  *   to huart->Init.HwFlowCtl value
  * - one-bit sampling method versus three samples' majority rule according
  *   to huart->Init.OneBitSampling (not applicable to LPUART) */
  tmpreg = (uint32_t)huart->Init.HwFlowCtl;
 8003946:	687b      	ldr	r3, [r7, #4]
 8003948:	699b      	ldr	r3, [r3, #24]
 800394a:	617b      	str	r3, [r7, #20]

  tmpreg |= huart->Init.OneBitSampling;
 800394c:	687b      	ldr	r3, [r7, #4]
 800394e:	6a1b      	ldr	r3, [r3, #32]
 8003950:	697a      	ldr	r2, [r7, #20]
 8003952:	4313      	orrs	r3, r2
 8003954:	617b      	str	r3, [r7, #20]
  MODIFY_REG(huart->Instance->CR3, USART_CR3_FIELDS, tmpreg);
 8003956:	687b      	ldr	r3, [r7, #4]
 8003958:	681b      	ldr	r3, [r3, #0]
 800395a:	689b      	ldr	r3, [r3, #8]
 800395c:	f423 6130 	bic.w	r1, r3, #2816	@ 0xb00
 8003960:	687b      	ldr	r3, [r7, #4]
 8003962:	681b      	ldr	r3, [r3, #0]
 8003964:	697a      	ldr	r2, [r7, #20]
 8003966:	430a      	orrs	r2, r1
 8003968:	609a      	str	r2, [r3, #8]


  /*-------------------------- USART BRR Configuration -----------------------*/
  UART_GETCLOCKSOURCE(huart, clocksource);
 800396a:	687b      	ldr	r3, [r7, #4]
 800396c:	681b      	ldr	r3, [r3, #0]
 800396e:	4a94      	ldr	r2, [pc, #592]	@ (8003bc0 <UART_SetConfig+0x2c8>)
 8003970:	4293      	cmp	r3, r2
 8003972:	d120      	bne.n	80039b6 <UART_SetConfig+0xbe>
 8003974:	4b93      	ldr	r3, [pc, #588]	@ (8003bc4 <UART_SetConfig+0x2cc>)
 8003976:	f8d3 3090 	ldr.w	r3, [r3, #144]	@ 0x90
 800397a:	f003 0303 	and.w	r3, r3, #3
 800397e:	2b03      	cmp	r3, #3
 8003980:	d816      	bhi.n	80039b0 <UART_SetConfig+0xb8>
 8003982:	a201      	add	r2, pc, #4	@ (adr r2, 8003988 <UART_SetConfig+0x90>)
 8003984:	f852 f023 	ldr.w	pc, [r2, r3, lsl #2]
 8003988:	08003999 	.word	0x08003999
 800398c:	080039a5 	.word	0x080039a5
 8003990:	0800399f 	.word	0x0800399f
 8003994:	080039ab 	.word	0x080039ab
 8003998:	2301      	movs	r3, #1
 800399a:	77fb      	strb	r3, [r7, #31]
 800399c:	e150      	b.n	8003c40 <UART_SetConfig+0x348>
 800399e:	2302      	movs	r3, #2
 80039a0:	77fb      	strb	r3, [r7, #31]
 80039a2:	e14d      	b.n	8003c40 <UART_SetConfig+0x348>
 80039a4:	2304      	movs	r3, #4
 80039a6:	77fb      	strb	r3, [r7, #31]
 80039a8:	e14a      	b.n	8003c40 <UART_SetConfig+0x348>
 80039aa:	2308      	movs	r3, #8
 80039ac:	77fb      	strb	r3, [r7, #31]
 80039ae:	e147      	b.n	8003c40 <UART_SetConfig+0x348>
 80039b0:	2310      	movs	r3, #16
 80039b2:	77fb      	strb	r3, [r7, #31]
 80039b4:	e144      	b.n	8003c40 <UART_SetConfig+0x348>
 80039b6:	687b      	ldr	r3, [r7, #4]
 80039b8:	681b      	ldr	r3, [r3, #0]
 80039ba:	4a83      	ldr	r2, [pc, #524]	@ (8003bc8 <UART_SetConfig+0x2d0>)
 80039bc:	4293      	cmp	r3, r2
 80039be:	d132      	bne.n	8003a26 <UART_SetConfig+0x12e>
 80039c0:	4b80      	ldr	r3, [pc, #512]	@ (8003bc4 <UART_SetConfig+0x2cc>)
 80039c2:	f8d3 3090 	ldr.w	r3, [r3, #144]	@ 0x90
 80039c6:	f003 030c 	and.w	r3, r3, #12
 80039ca:	2b0c      	cmp	r3, #12
 80039cc:	d828      	bhi.n	8003a20 <UART_SetConfig+0x128>
 80039ce:	a201      	add	r2, pc, #4	@ (adr r2, 80039d4 <UART_SetConfig+0xdc>)
 80039d0:	f852 f023 	ldr.w	pc, [r2, r3, lsl #2]
 80039d4:	08003a09 	.word	0x08003a09
 80039d8:	08003a21 	.word	0x08003a21
 80039dc:	08003a21 	.word	0x08003a21
 80039e0:	08003a21 	.word	0x08003a21
 80039e4:	08003a15 	.word	0x08003a15
 80039e8:	08003a21 	.word	0x08003a21
 80039ec:	08003a21 	.word	0x08003a21
 80039f0:	08003a21 	.word	0x08003a21
 80039f4:	08003a0f 	.word	0x08003a0f
 80039f8:	08003a21 	.word	0x08003a21
 80039fc:	08003a21 	.word	0x08003a21
 8003a00:	08003a21 	.word	0x08003a21
 8003a04:	08003a1b 	.word	0x08003a1b
 8003a08:	2300      	movs	r3, #0
 8003a0a:	77fb      	strb	r3, [r7, #31]
 8003a0c:	e118      	b.n	8003c40 <UART_SetConfig+0x348>
 8003a0e:	2302      	movs	r3, #2
 8003a10:	77fb      	strb	r3, [r7, #31]
 8003a12:	e115      	b.n	8003c40 <UART_SetConfig+0x348>
 8003a14:	2304      	movs	r3, #4
 8003a16:	77fb      	strb	r3, [r7, #31]
 8003a18:	e112      	b.n	8003c40 <UART_SetConfig+0x348>
 8003a1a:	2308      	movs	r3, #8
 8003a1c:	77fb      	strb	r3, [r7, #31]
 8003a1e:	e10f      	b.n	8003c40 <UART_SetConfig+0x348>
 8003a20:	2310      	movs	r3, #16
 8003a22:	77fb      	strb	r3, [r7, #31]
 8003a24:	e10c      	b.n	8003c40 <UART_SetConfig+0x348>
 8003a26:	687b      	ldr	r3, [r7, #4]
 8003a28:	681b      	ldr	r3, [r3, #0]
 8003a2a:	4a68      	ldr	r2, [pc, #416]	@ (8003bcc <UART_SetConfig+0x2d4>)
 8003a2c:	4293      	cmp	r3, r2
 8003a2e:	d120      	bne.n	8003a72 <UART_SetConfig+0x17a>
 8003a30:	4b64      	ldr	r3, [pc, #400]	@ (8003bc4 <UART_SetConfig+0x2cc>)
 8003a32:	f8d3 3090 	ldr.w	r3, [r3, #144]	@ 0x90
 8003a36:	f003 0330 	and.w	r3, r3, #48	@ 0x30
 8003a3a:	2b30      	cmp	r3, #48	@ 0x30
 8003a3c:	d013      	beq.n	8003a66 <UART_SetConfig+0x16e>
 8003a3e:	2b30      	cmp	r3, #48	@ 0x30
 8003a40:	d814      	bhi.n	8003a6c <UART_SetConfig+0x174>
 8003a42:	2b20      	cmp	r3, #32
 8003a44:	d009      	beq.n	8003a5a <UART_SetConfig+0x162>
 8003a46:	2b20      	cmp	r3, #32
 8003a48:	d810      	bhi.n	8003a6c <UART_SetConfig+0x174>
 8003a4a:	2b00      	cmp	r3, #0
 8003a4c:	d002      	beq.n	8003a54 <UART_SetConfig+0x15c>
 8003a4e:	2b10      	cmp	r3, #16
 8003a50:	d006      	beq.n	8003a60 <UART_SetConfig+0x168>
 8003a52:	e00b      	b.n	8003a6c <UART_SetConfig+0x174>
 8003a54:	2300      	movs	r3, #0
 8003a56:	77fb      	strb	r3, [r7, #31]
 8003a58:	e0f2      	b.n	8003c40 <UART_SetConfig+0x348>
 8003a5a:	2302      	movs	r3, #2
 8003a5c:	77fb      	strb	r3, [r7, #31]
 8003a5e:	e0ef      	b.n	8003c40 <UART_SetConfig+0x348>
 8003a60:	2304      	movs	r3, #4
 8003a62:	77fb      	strb	r3, [r7, #31]
 8003a64:	e0ec      	b.n	8003c40 <UART_SetConfig+0x348>
 8003a66:	2308      	movs	r3, #8
 8003a68:	77fb      	strb	r3, [r7, #31]
 8003a6a:	e0e9      	b.n	8003c40 <UART_SetConfig+0x348>
 8003a6c:	2310      	movs	r3, #16
 8003a6e:	77fb      	strb	r3, [r7, #31]
 8003a70:	e0e6      	b.n	8003c40 <UART_SetConfig+0x348>
 8003a72:	687b      	ldr	r3, [r7, #4]
 8003a74:	681b      	ldr	r3, [r3, #0]
 8003a76:	4a56      	ldr	r2, [pc, #344]	@ (8003bd0 <UART_SetConfig+0x2d8>)
 8003a78:	4293      	cmp	r3, r2
 8003a7a:	d120      	bne.n	8003abe <UART_SetConfig+0x1c6>
 8003a7c:	4b51      	ldr	r3, [pc, #324]	@ (8003bc4 <UART_SetConfig+0x2cc>)
 8003a7e:	f8d3 3090 	ldr.w	r3, [r3, #144]	@ 0x90
 8003a82:	f003 03c0 	and.w	r3, r3, #192	@ 0xc0
 8003a86:	2bc0      	cmp	r3, #192	@ 0xc0
 8003a88:	d013      	beq.n	8003ab2 <UART_SetConfig+0x1ba>
 8003a8a:	2bc0      	cmp	r3, #192	@ 0xc0
 8003a8c:	d814      	bhi.n	8003ab8 <UART_SetConfig+0x1c0>
 8003a8e:	2b80      	cmp	r3, #128	@ 0x80
 8003a90:	d009      	beq.n	8003aa6 <UART_SetConfig+0x1ae>
 8003a92:	2b80      	cmp	r3, #128	@ 0x80
 8003a94:	d810      	bhi.n	8003ab8 <UART_SetConfig+0x1c0>
 8003a96:	2b00      	cmp	r3, #0
 8003a98:	d002      	beq.n	8003aa0 <UART_SetConfig+0x1a8>
 8003a9a:	2b40      	cmp	r3, #64	@ 0x40
 8003a9c:	d006      	beq.n	8003aac <UART_SetConfig+0x1b4>
 8003a9e:	e00b      	b.n	8003ab8 <UART_SetConfig+0x1c0>
 8003aa0:	2300      	movs	r3, #0
 8003aa2:	77fb      	strb	r3, [r7, #31]
 8003aa4:	e0cc      	b.n	8003c40 <UART_SetConfig+0x348>
 8003aa6:	2302      	movs	r3, #2
 8003aa8:	77fb      	strb	r3, [r7, #31]
 8003aaa:	e0c9      	b.n	8003c40 <UART_SetConfig+0x348>
 8003aac:	2304      	movs	r3, #4
 8003aae:	77fb      	strb	r3, [r7, #31]
 8003ab0:	e0c6      	b.n	8003c40 <UART_SetConfig+0x348>
 8003ab2:	2308      	movs	r3, #8
 8003ab4:	77fb      	strb	r3, [r7, #31]
 8003ab6:	e0c3      	b.n	8003c40 <UART_SetConfig+0x348>
 8003ab8:	2310      	movs	r3, #16
 8003aba:	77fb      	strb	r3, [r7, #31]
 8003abc:	e0c0      	b.n	8003c40 <UART_SetConfig+0x348>
 8003abe:	687b      	ldr	r3, [r7, #4]
 8003ac0:	681b      	ldr	r3, [r3, #0]
 8003ac2:	4a44      	ldr	r2, [pc, #272]	@ (8003bd4 <UART_SetConfig+0x2dc>)
 8003ac4:	4293      	cmp	r3, r2
 8003ac6:	d125      	bne.n	8003b14 <UART_SetConfig+0x21c>
 8003ac8:	4b3e      	ldr	r3, [pc, #248]	@ (8003bc4 <UART_SetConfig+0x2cc>)
 8003aca:	f8d3 3090 	ldr.w	r3, [r3, #144]	@ 0x90
 8003ace:	f403 7340 	and.w	r3, r3, #768	@ 0x300
 8003ad2:	f5b3 7f40 	cmp.w	r3, #768	@ 0x300
 8003ad6:	d017      	beq.n	8003b08 <UART_SetConfig+0x210>
 8003ad8:	f5b3 7f40 	cmp.w	r3, #768	@ 0x300
 8003adc:	d817      	bhi.n	8003b0e <UART_SetConfig+0x216>
 8003ade:	f5b3 7f00 	cmp.w	r3, #512	@ 0x200
 8003ae2:	d00b      	beq.n	8003afc <UART_SetConfig+0x204>
 8003ae4:	f5b3 7f00 	cmp.w	r3, #512	@ 0x200
 8003ae8:	d811      	bhi.n	8003b0e <UART_SetConfig+0x216>
 8003aea:	2b00      	cmp	r3, #0
 8003aec:	d003      	beq.n	8003af6 <UART_SetConfig+0x1fe>
 8003aee:	f5b3 7f80 	cmp.w	r3, #256	@ 0x100
 8003af2:	d006      	beq.n	8003b02 <UART_SetConfig+0x20a>
 8003af4:	e00b      	b.n	8003b0e <UART_SetConfig+0x216>
 8003af6:	2300      	movs	r3, #0
 8003af8:	77fb      	strb	r3, [r7, #31]
 8003afa:	e0a1      	b.n	8003c40 <UART_SetConfig+0x348>
 8003afc:	2302      	movs	r3, #2
 8003afe:	77fb      	strb	r3, [r7, #31]
 8003b00:	e09e      	b.n	8003c40 <UART_SetConfig+0x348>
 8003b02:	2304      	movs	r3, #4
 8003b04:	77fb      	strb	r3, [r7, #31]
 8003b06:	e09b      	b.n	8003c40 <UART_SetConfig+0x348>
 8003b08:	2308      	movs	r3, #8
 8003b0a:	77fb      	strb	r3, [r7, #31]
 8003b0c:	e098      	b.n	8003c40 <UART_SetConfig+0x348>
 8003b0e:	2310      	movs	r3, #16
 8003b10:	77fb      	strb	r3, [r7, #31]
 8003b12:	e095      	b.n	8003c40 <UART_SetConfig+0x348>
 8003b14:	687b      	ldr	r3, [r7, #4]
 8003b16:	681b      	ldr	r3, [r3, #0]
 8003b18:	4a2f      	ldr	r2, [pc, #188]	@ (8003bd8 <UART_SetConfig+0x2e0>)
 8003b1a:	4293      	cmp	r3, r2
 8003b1c:	d125      	bne.n	8003b6a <UART_SetConfig+0x272>
 8003b1e:	4b29      	ldr	r3, [pc, #164]	@ (8003bc4 <UART_SetConfig+0x2cc>)
 8003b20:	f8d3 3090 	ldr.w	r3, [r3, #144]	@ 0x90
 8003b24:	f403 6340 	and.w	r3, r3, #3072	@ 0xc00
 8003b28:	f5b3 6f40 	cmp.w	r3, #3072	@ 0xc00
 8003b2c:	d017      	beq.n	8003b5e <UART_SetConfig+0x266>
 8003b2e:	f5b3 6f40 	cmp.w	r3, #3072	@ 0xc00
 8003b32:	d817      	bhi.n	8003b64 <UART_SetConfig+0x26c>
 8003b34:	f5b3 6f00 	cmp.w	r3, #2048	@ 0x800
 8003b38:	d00b      	beq.n	8003b52 <UART_SetConfig+0x25a>
 8003b3a:	f5b3 6f00 	cmp.w	r3, #2048	@ 0x800
 8003b3e:	d811      	bhi.n	8003b64 <UART_SetConfig+0x26c>
 8003b40:	2b00      	cmp	r3, #0
 8003b42:	d003      	beq.n	8003b4c <UART_SetConfig+0x254>
 8003b44:	f5b3 6f80 	cmp.w	r3, #1024	@ 0x400
 8003b48:	d006      	beq.n	8003b58 <UART_SetConfig+0x260>
 8003b4a:	e00b      	b.n	8003b64 <UART_SetConfig+0x26c>
 8003b4c:	2301      	movs	r3, #1
 8003b4e:	77fb      	strb	r3, [r7, #31]
 8003b50:	e076      	b.n	8003c40 <UART_SetConfig+0x348>
 8003b52:	2302      	movs	r3, #2
 8003b54:	77fb      	strb	r3, [r7, #31]
 8003b56:	e073      	b.n	8003c40 <UART_SetConfig+0x348>
 8003b58:	2304      	movs	r3, #4
 8003b5a:	77fb      	strb	r3, [r7, #31]
 8003b5c:	e070      	b.n	8003c40 <UART_SetConfig+0x348>
 8003b5e:	2308      	movs	r3, #8
 8003b60:	77fb      	strb	r3, [r7, #31]
 8003b62:	e06d      	b.n	8003c40 <UART_SetConfig+0x348>
 8003b64:	2310      	movs	r3, #16
 8003b66:	77fb      	strb	r3, [r7, #31]
 8003b68:	e06a      	b.n	8003c40 <UART_SetConfig+0x348>
 8003b6a:	687b      	ldr	r3, [r7, #4]
 8003b6c:	681b      	ldr	r3, [r3, #0]
 8003b6e:	4a1b      	ldr	r2, [pc, #108]	@ (8003bdc <UART_SetConfig+0x2e4>)
 8003b70:	4293      	cmp	r3, r2
 8003b72:	d138      	bne.n	8003be6 <UART_SetConfig+0x2ee>
 8003b74:	4b13      	ldr	r3, [pc, #76]	@ (8003bc4 <UART_SetConfig+0x2cc>)
 8003b76:	f8d3 3090 	ldr.w	r3, [r3, #144]	@ 0x90
 8003b7a:	f403 5340 	and.w	r3, r3, #12288	@ 0x3000
 8003b7e:	f5b3 5f40 	cmp.w	r3, #12288	@ 0x3000
 8003b82:	d017      	beq.n	8003bb4 <UART_SetConfig+0x2bc>
 8003b84:	f5b3 5f40 	cmp.w	r3, #12288	@ 0x3000
 8003b88:	d82a      	bhi.n	8003be0 <UART_SetConfig+0x2e8>
 8003b8a:	f5b3 5f00 	cmp.w	r3, #8192	@ 0x2000
 8003b8e:	d00b      	beq.n	8003ba8 <UART_SetConfig+0x2b0>
 8003b90:	f5b3 5f00 	cmp.w	r3, #8192	@ 0x2000
 8003b94:	d824      	bhi.n	8003be0 <UART_SetConfig+0x2e8>
 8003b96:	2b00      	cmp	r3, #0
 8003b98:	d003      	beq.n	8003ba2 <UART_SetConfig+0x2aa>
 8003b9a:	f5b3 5f80 	cmp.w	r3, #4096	@ 0x1000
 8003b9e:	d006      	beq.n	8003bae <UART_SetConfig+0x2b6>
 8003ba0:	e01e      	b.n	8003be0 <UART_SetConfig+0x2e8>
 8003ba2:	2300      	movs	r3, #0
 8003ba4:	77fb      	strb	r3, [r7, #31]
 8003ba6:	e04b      	b.n	8003c40 <UART_SetConfig+0x348>
 8003ba8:	2302      	movs	r3, #2
 8003baa:	77fb      	strb	r3, [r7, #31]
 8003bac:	e048      	b.n	8003c40 <UART_SetConfig+0x348>
 8003bae:	2304      	movs	r3, #4
 8003bb0:	77fb      	strb	r3, [r7, #31]
 8003bb2:	e045      	b.n	8003c40 <UART_SetConfig+0x348>
 8003bb4:	2308      	movs	r3, #8
 8003bb6:	77fb      	strb	r3, [r7, #31]
 8003bb8:	e042      	b.n	8003c40 <UART_SetConfig+0x348>
 8003bba:	bf00      	nop
 8003bbc:	efff69f3 	.word	0xefff69f3
 8003bc0:	40011000 	.word	0x40011000
 8003bc4:	40023800 	.word	0x40023800
 8003bc8:	40004400 	.word	0x40004400
 8003bcc:	40004800 	.word	0x40004800
 8003bd0:	40004c00 	.word	0x40004c00
 8003bd4:	40005000 	.word	0x40005000
 8003bd8:	40011400 	.word	0x40011400
 8003bdc:	40007800 	.word	0x40007800
 8003be0:	2310      	movs	r3, #16
 8003be2:	77fb      	strb	r3, [r7, #31]
 8003be4:	e02c      	b.n	8003c40 <UART_SetConfig+0x348>
 8003be6:	687b      	ldr	r3, [r7, #4]
 8003be8:	681b      	ldr	r3, [r3, #0]
 8003bea:	4a72      	ldr	r2, [pc, #456]	@ (8003db4 <UART_SetConfig+0x4bc>)
 8003bec:	4293      	cmp	r3, r2
 8003bee:	d125      	bne.n	8003c3c <UART_SetConfig+0x344>
 8003bf0:	4b71      	ldr	r3, [pc, #452]	@ (8003db8 <UART_SetConfig+0x4c0>)
 8003bf2:	f8d3 3090 	ldr.w	r3, [r3, #144]	@ 0x90
 8003bf6:	f403 4340 	and.w	r3, r3, #49152	@ 0xc000
 8003bfa:	f5b3 4f40 	cmp.w	r3, #49152	@ 0xc000
 8003bfe:	d017      	beq.n	8003c30 <UART_SetConfig+0x338>
 8003c00:	f5b3 4f40 	cmp.w	r3, #49152	@ 0xc000
 8003c04:	d817      	bhi.n	8003c36 <UART_SetConfig+0x33e>
 8003c06:	f5b3 4f00 	cmp.w	r3, #32768	@ 0x8000
 8003c0a:	d00b      	beq.n	8003c24 <UART_SetConfig+0x32c>
 8003c0c:	f5b3 4f00 	cmp.w	r3, #32768	@ 0x8000
 8003c10:	d811      	bhi.n	8003c36 <UART_SetConfig+0x33e>
 8003c12:	2b00      	cmp	r3, #0
 8003c14:	d003      	beq.n	8003c1e <UART_SetConfig+0x326>
 8003c16:	f5b3 4f80 	cmp.w	r3, #16384	@ 0x4000
 8003c1a:	d006      	beq.n	8003c2a <UART_SetConfig+0x332>
 8003c1c:	e00b      	b.n	8003c36 <UART_SetConfig+0x33e>
 8003c1e:	2300      	movs	r3, #0
 8003c20:	77fb      	strb	r3, [r7, #31]
 8003c22:	e00d      	b.n	8003c40 <UART_SetConfig+0x348>
 8003c24:	2302      	movs	r3, #2
 8003c26:	77fb      	strb	r3, [r7, #31]
 8003c28:	e00a      	b.n	8003c40 <UART_SetConfig+0x348>
 8003c2a:	2304      	movs	r3, #4
 8003c2c:	77fb      	strb	r3, [r7, #31]
 8003c2e:	e007      	b.n	8003c40 <UART_SetConfig+0x348>
 8003c30:	2308      	movs	r3, #8
 8003c32:	77fb      	strb	r3, [r7, #31]
 8003c34:	e004      	b.n	8003c40 <UART_SetConfig+0x348>
 8003c36:	2310      	movs	r3, #16
 8003c38:	77fb      	strb	r3, [r7, #31]
 8003c3a:	e001      	b.n	8003c40 <UART_SetConfig+0x348>
 8003c3c:	2310      	movs	r3, #16
 8003c3e:	77fb      	strb	r3, [r7, #31]

  if (huart->Init.OverSampling == UART_OVERSAMPLING_8)
 8003c40:	687b      	ldr	r3, [r7, #4]
 8003c42:	69db      	ldr	r3, [r3, #28]
 8003c44:	f5b3 4f00 	cmp.w	r3, #32768	@ 0x8000
 8003c48:	d15b      	bne.n	8003d02 <UART_SetConfig+0x40a>
  {
    switch (clocksource)
 8003c4a:	7ffb      	ldrb	r3, [r7, #31]
 8003c4c:	2b08      	cmp	r3, #8
 8003c4e:	d828      	bhi.n	8003ca2 <UART_SetConfig+0x3aa>
 8003c50:	a201      	add	r2, pc, #4	@ (adr r2, 8003c58 <UART_SetConfig+0x360>)
 8003c52:	f852 f023 	ldr.w	pc, [r2, r3, lsl #2]
 8003c56:	bf00      	nop
 8003c58:	08003c7d 	.word	0x08003c7d
 8003c5c:	08003c85 	.word	0x08003c85
 8003c60:	08003c8d 	.word	0x08003c8d
 8003c64:	08003ca3 	.word	0x08003ca3
 8003c68:	08003c93 	.word	0x08003c93
 8003c6c:	08003ca3 	.word	0x08003ca3
 8003c70:	08003ca3 	.word	0x08003ca3
 8003c74:	08003ca3 	.word	0x08003ca3
 8003c78:	08003c9b 	.word	0x08003c9b
    {
      case UART_CLOCKSOURCE_PCLK1:
        pclk = HAL_RCC_GetPCLK1Freq();
 8003c7c:	f7ff f94c 	bl	8002f18 <HAL_RCC_GetPCLK1Freq>
 8003c80:	61b8      	str	r0, [r7, #24]
        break;
 8003c82:	e013      	b.n	8003cac <UART_SetConfig+0x3b4>
      case UART_CLOCKSOURCE_PCLK2:
        pclk = HAL_RCC_GetPCLK2Freq();
 8003c84:	f7ff f95c 	bl	8002f40 <HAL_RCC_GetPCLK2Freq>
 8003c88:	61b8      	str	r0, [r7, #24]
        break;
 8003c8a:	e00f      	b.n	8003cac <UART_SetConfig+0x3b4>
      case UART_CLOCKSOURCE_HSI:
        pclk = (uint32_t) HSI_VALUE;
 8003c8c:	4b4b      	ldr	r3, [pc, #300]	@ (8003dbc <UART_SetConfig+0x4c4>)
 8003c8e:	61bb      	str	r3, [r7, #24]
        break;
 8003c90:	e00c      	b.n	8003cac <UART_SetConfig+0x3b4>
      case UART_CLOCKSOURCE_SYSCLK:
        pclk = HAL_RCC_GetSysClockFreq();
 8003c92:	f7ff f86f 	bl	8002d74 <HAL_RCC_GetSysClockFreq>
 8003c96:	61b8      	str	r0, [r7, #24]
        break;
 8003c98:	e008      	b.n	8003cac <UART_SetConfig+0x3b4>
      case UART_CLOCKSOURCE_LSE:
        pclk = (uint32_t) LSE_VALUE;
 8003c9a:	f44f 4300 	mov.w	r3, #32768	@ 0x8000
 8003c9e:	61bb      	str	r3, [r7, #24]
        break;
 8003ca0:	e004      	b.n	8003cac <UART_SetConfig+0x3b4>
      default:
        pclk = 0U;
 8003ca2:	2300      	movs	r3, #0
 8003ca4:	61bb      	str	r3, [r7, #24]
        ret = HAL_ERROR;
 8003ca6:	2301      	movs	r3, #1
 8003ca8:	77bb      	strb	r3, [r7, #30]
        break;
 8003caa:	bf00      	nop
    }

    /* USARTDIV must be greater than or equal to 0d16 */
    if (pclk != 0U)
 8003cac:	69bb      	ldr	r3, [r7, #24]
 8003cae:	2b00      	cmp	r3, #0
 8003cb0:	d074      	beq.n	8003d9c <UART_SetConfig+0x4a4>
    {
      usartdiv = (uint32_t)(UART_DIV_SAMPLING8(pclk, huart->Init.BaudRate));
 8003cb2:	69bb      	ldr	r3, [r7, #24]
 8003cb4:	005a      	lsls	r2, r3, #1
 8003cb6:	687b      	ldr	r3, [r7, #4]
 8003cb8:	685b      	ldr	r3, [r3, #4]
 8003cba:	085b      	lsrs	r3, r3, #1
 8003cbc:	441a      	add	r2, r3
 8003cbe:	687b      	ldr	r3, [r7, #4]
 8003cc0:	685b      	ldr	r3, [r3, #4]
 8003cc2:	fbb2 f3f3 	udiv	r3, r2, r3
 8003cc6:	613b      	str	r3, [r7, #16]
      if ((usartdiv >= UART_BRR_MIN) && (usartdiv <= UART_BRR_MAX))
 8003cc8:	693b      	ldr	r3, [r7, #16]
 8003cca:	2b0f      	cmp	r3, #15
 8003ccc:	d916      	bls.n	8003cfc <UART_SetConfig+0x404>
 8003cce:	693b      	ldr	r3, [r7, #16]
 8003cd0:	f5b3 3f80 	cmp.w	r3, #65536	@ 0x10000
 8003cd4:	d212      	bcs.n	8003cfc <UART_SetConfig+0x404>
      {
        brrtemp = (uint16_t)(usartdiv & 0xFFF0U);
 8003cd6:	693b      	ldr	r3, [r7, #16]
 8003cd8:	b29b      	uxth	r3, r3
 8003cda:	f023 030f 	bic.w	r3, r3, #15
 8003cde:	81fb      	strh	r3, [r7, #14]
        brrtemp |= (uint16_t)((usartdiv & (uint16_t)0x000FU) >> 1U);
 8003ce0:	693b      	ldr	r3, [r7, #16]
 8003ce2:	085b      	lsrs	r3, r3, #1
 8003ce4:	b29b      	uxth	r3, r3
 8003ce6:	f003 0307 	and.w	r3, r3, #7
 8003cea:	b29a      	uxth	r2, r3
 8003cec:	89fb      	ldrh	r3, [r7, #14]
 8003cee:	4313      	orrs	r3, r2
 8003cf0:	81fb      	strh	r3, [r7, #14]
        huart->Instance->BRR = brrtemp;
 8003cf2:	687b      	ldr	r3, [r7, #4]
 8003cf4:	681b      	ldr	r3, [r3, #0]
 8003cf6:	89fa      	ldrh	r2, [r7, #14]
 8003cf8:	60da      	str	r2, [r3, #12]
 8003cfa:	e04f      	b.n	8003d9c <UART_SetConfig+0x4a4>
      }
      else
      {
        ret = HAL_ERROR;
 8003cfc:	2301      	movs	r3, #1
 8003cfe:	77bb      	strb	r3, [r7, #30]
 8003d00:	e04c      	b.n	8003d9c <UART_SetConfig+0x4a4>
      }
    }
  }
  else
  {
    switch (clocksource)
 8003d02:	7ffb      	ldrb	r3, [r7, #31]
 8003d04:	2b08      	cmp	r3, #8
 8003d06:	d828      	bhi.n	8003d5a <UART_SetConfig+0x462>
 8003d08:	a201      	add	r2, pc, #4	@ (adr r2, 8003d10 <UART_SetConfig+0x418>)
 8003d0a:	f852 f023 	ldr.w	pc, [r2, r3, lsl #2]
 8003d0e:	bf00      	nop
 8003d10:	08003d35 	.word	0x08003d35
 8003d14:	08003d3d 	.word	0x08003d3d
 8003d18:	08003d45 	.word	0x08003d45
 8003d1c:	08003d5b 	.word	0x08003d5b
 8003d20:	08003d4b 	.word	0x08003d4b
 8003d24:	08003d5b 	.word	0x08003d5b
 8003d28:	08003d5b 	.word	0x08003d5b
 8003d2c:	08003d5b 	.word	0x08003d5b
 8003d30:	08003d53 	.word	0x08003d53
    {
      case UART_CLOCKSOURCE_PCLK1:
        pclk = HAL_RCC_GetPCLK1Freq();
 8003d34:	f7ff f8f0 	bl	8002f18 <HAL_RCC_GetPCLK1Freq>
 8003d38:	61b8      	str	r0, [r7, #24]
        break;
 8003d3a:	e013      	b.n	8003d64 <UART_SetConfig+0x46c>
      case UART_CLOCKSOURCE_PCLK2:
        pclk = HAL_RCC_GetPCLK2Freq();
 8003d3c:	f7ff f900 	bl	8002f40 <HAL_RCC_GetPCLK2Freq>
 8003d40:	61b8      	str	r0, [r7, #24]
        break;
 8003d42:	e00f      	b.n	8003d64 <UART_SetConfig+0x46c>
      case UART_CLOCKSOURCE_HSI:
        pclk = (uint32_t) HSI_VALUE;
 8003d44:	4b1d      	ldr	r3, [pc, #116]	@ (8003dbc <UART_SetConfig+0x4c4>)
 8003d46:	61bb      	str	r3, [r7, #24]
        break;
 8003d48:	e00c      	b.n	8003d64 <UART_SetConfig+0x46c>
      case UART_CLOCKSOURCE_SYSCLK:
        pclk = HAL_RCC_GetSysClockFreq();
 8003d4a:	f7ff f813 	bl	8002d74 <HAL_RCC_GetSysClockFreq>
 8003d4e:	61b8      	str	r0, [r7, #24]
        break;
 8003d50:	e008      	b.n	8003d64 <UART_SetConfig+0x46c>
      case UART_CLOCKSOURCE_LSE:
        pclk = (uint32_t) LSE_VALUE;
 8003d52:	f44f 4300 	mov.w	r3, #32768	@ 0x8000
 8003d56:	61bb      	str	r3, [r7, #24]
        break;
 8003d58:	e004      	b.n	8003d64 <UART_SetConfig+0x46c>
      default:
        pclk = 0U;
 8003d5a:	2300      	movs	r3, #0
 8003d5c:	61bb      	str	r3, [r7, #24]
        ret = HAL_ERROR;
 8003d5e:	2301      	movs	r3, #1
 8003d60:	77bb      	strb	r3, [r7, #30]
        break;
 8003d62:	bf00      	nop
    }

    if (pclk != 0U)
 8003d64:	69bb      	ldr	r3, [r7, #24]
 8003d66:	2b00      	cmp	r3, #0
 8003d68:	d018      	beq.n	8003d9c <UART_SetConfig+0x4a4>
    {
      /* USARTDIV must be greater than or equal to 0d16 */
      usartdiv = (uint32_t)(UART_DIV_SAMPLING16(pclk, huart->Init.BaudRate));
 8003d6a:	687b      	ldr	r3, [r7, #4]
 8003d6c:	685b      	ldr	r3, [r3, #4]
 8003d6e:	085a      	lsrs	r2, r3, #1
 8003d70:	69bb      	ldr	r3, [r7, #24]
 8003d72:	441a      	add	r2, r3
 8003d74:	687b      	ldr	r3, [r7, #4]
 8003d76:	685b      	ldr	r3, [r3, #4]
 8003d78:	fbb2 f3f3 	udiv	r3, r2, r3
 8003d7c:	613b      	str	r3, [r7, #16]
      if ((usartdiv >= UART_BRR_MIN) && (usartdiv <= UART_BRR_MAX))
 8003d7e:	693b      	ldr	r3, [r7, #16]
 8003d80:	2b0f      	cmp	r3, #15
 8003d82:	d909      	bls.n	8003d98 <UART_SetConfig+0x4a0>
 8003d84:	693b      	ldr	r3, [r7, #16]
 8003d86:	f5b3 3f80 	cmp.w	r3, #65536	@ 0x10000
 8003d8a:	d205      	bcs.n	8003d98 <UART_SetConfig+0x4a0>
      {
        huart->Instance->BRR = (uint16_t)usartdiv;
 8003d8c:	693b      	ldr	r3, [r7, #16]
 8003d8e:	b29a      	uxth	r2, r3
 8003d90:	687b      	ldr	r3, [r7, #4]
 8003d92:	681b      	ldr	r3, [r3, #0]
 8003d94:	60da      	str	r2, [r3, #12]
 8003d96:	e001      	b.n	8003d9c <UART_SetConfig+0x4a4>
      }
      else
      {
        ret = HAL_ERROR;
 8003d98:	2301      	movs	r3, #1
 8003d9a:	77bb      	strb	r3, [r7, #30]
    }
  }


  /* Clear ISR function pointers */
  huart->RxISR = NULL;
 8003d9c:	687b      	ldr	r3, [r7, #4]
 8003d9e:	2200      	movs	r2, #0
 8003da0:	669a      	str	r2, [r3, #104]	@ 0x68
  huart->TxISR = NULL;
 8003da2:	687b      	ldr	r3, [r7, #4]
 8003da4:	2200      	movs	r2, #0
 8003da6:	66da      	str	r2, [r3, #108]	@ 0x6c

  return ret;
 8003da8:	7fbb      	ldrb	r3, [r7, #30]
}
 8003daa:	4618      	mov	r0, r3
 8003dac:	3720      	adds	r7, #32
 8003dae:	46bd      	mov	sp, r7
 8003db0:	bd80      	pop	{r7, pc}
 8003db2:	bf00      	nop
 8003db4:	40007c00 	.word	0x40007c00
 8003db8:	40023800 	.word	0x40023800
 8003dbc:	00f42400 	.word	0x00f42400

08003dc0 <UART_AdvFeatureConfig>:
  * @brief Configure the UART peripheral advanced features.
  * @param huart UART handle.
  * @retval None
  */
void UART_AdvFeatureConfig(UART_HandleTypeDef *huart)
{
 8003dc0:	b480      	push	{r7}
 8003dc2:	b083      	sub	sp, #12
 8003dc4:	af00      	add	r7, sp, #0
 8003dc6:	6078      	str	r0, [r7, #4]
  /* Check whether the set of advanced features to configure is properly set */
  assert_param(IS_UART_ADVFEATURE_INIT(huart->AdvancedInit.AdvFeatureInit));

  /* if required, configure RX/TX pins swap */
  if (HAL_IS_BIT_SET(huart->AdvancedInit.AdvFeatureInit, UART_ADVFEATURE_SWAP_INIT))
 8003dc8:	687b      	ldr	r3, [r7, #4]
 8003dca:	6a5b      	ldr	r3, [r3, #36]	@ 0x24
 8003dcc:	f003 0308 	and.w	r3, r3, #8
 8003dd0:	2b00      	cmp	r3, #0
 8003dd2:	d00a      	beq.n	8003dea <UART_AdvFeatureConfig+0x2a>
  {
    assert_param(IS_UART_ADVFEATURE_SWAP(huart->AdvancedInit.Swap));
    MODIFY_REG(huart->Instance->CR2, USART_CR2_SWAP, huart->AdvancedInit.Swap);
 8003dd4:	687b      	ldr	r3, [r7, #4]
 8003dd6:	681b      	ldr	r3, [r3, #0]
 8003dd8:	685b      	ldr	r3, [r3, #4]
 8003dda:	f423 4100 	bic.w	r1, r3, #32768	@ 0x8000
 8003dde:	687b      	ldr	r3, [r7, #4]
 8003de0:	6b5a      	ldr	r2, [r3, #52]	@ 0x34
 8003de2:	687b      	ldr	r3, [r7, #4]
 8003de4:	681b      	ldr	r3, [r3, #0]
 8003de6:	430a      	orrs	r2, r1
 8003de8:	605a      	str	r2, [r3, #4]
  }

  /* if required, configure TX pin active level inversion */
  if (HAL_IS_BIT_SET(huart->AdvancedInit.AdvFeatureInit, UART_ADVFEATURE_TXINVERT_INIT))
 8003dea:	687b      	ldr	r3, [r7, #4]
 8003dec:	6a5b      	ldr	r3, [r3, #36]	@ 0x24
 8003dee:	f003 0301 	and.w	r3, r3, #1
 8003df2:	2b00      	cmp	r3, #0
 8003df4:	d00a      	beq.n	8003e0c <UART_AdvFeatureConfig+0x4c>
  {
    assert_param(IS_UART_ADVFEATURE_TXINV(huart->AdvancedInit.TxPinLevelInvert));
    MODIFY_REG(huart->Instance->CR2, USART_CR2_TXINV, huart->AdvancedInit.TxPinLevelInvert);
 8003df6:	687b      	ldr	r3, [r7, #4]
 8003df8:	681b      	ldr	r3, [r3, #0]
 8003dfa:	685b      	ldr	r3, [r3, #4]
 8003dfc:	f423 3100 	bic.w	r1, r3, #131072	@ 0x20000
 8003e00:	687b      	ldr	r3, [r7, #4]
 8003e02:	6a9a      	ldr	r2, [r3, #40]	@ 0x28
 8003e04:	687b      	ldr	r3, [r7, #4]
 8003e06:	681b      	ldr	r3, [r3, #0]
 8003e08:	430a      	orrs	r2, r1
 8003e0a:	605a      	str	r2, [r3, #4]
  }

  /* if required, configure RX pin active level inversion */
  if (HAL_IS_BIT_SET(huart->AdvancedInit.AdvFeatureInit, UART_ADVFEATURE_RXINVERT_INIT))
 8003e0c:	687b      	ldr	r3, [r7, #4]
 8003e0e:	6a5b      	ldr	r3, [r3, #36]	@ 0x24
 8003e10:	f003 0302 	and.w	r3, r3, #2
 8003e14:	2b00      	cmp	r3, #0
 8003e16:	d00a      	beq.n	8003e2e <UART_AdvFeatureConfig+0x6e>
  {
    assert_param(IS_UART_ADVFEATURE_RXINV(huart->AdvancedInit.RxPinLevelInvert));
    MODIFY_REG(huart->Instance->CR2, USART_CR2_RXINV, huart->AdvancedInit.RxPinLevelInvert);
 8003e18:	687b      	ldr	r3, [r7, #4]
 8003e1a:	681b      	ldr	r3, [r3, #0]
 8003e1c:	685b      	ldr	r3, [r3, #4]
 8003e1e:	f423 3180 	bic.w	r1, r3, #65536	@ 0x10000
 8003e22:	687b      	ldr	r3, [r7, #4]
 8003e24:	6ada      	ldr	r2, [r3, #44]	@ 0x2c
 8003e26:	687b      	ldr	r3, [r7, #4]
 8003e28:	681b      	ldr	r3, [r3, #0]
 8003e2a:	430a      	orrs	r2, r1
 8003e2c:	605a      	str	r2, [r3, #4]
  }

  /* if required, configure data inversion */
  if (HAL_IS_BIT_SET(huart->AdvancedInit.AdvFeatureInit, UART_ADVFEATURE_DATAINVERT_INIT))
 8003e2e:	687b      	ldr	r3, [r7, #4]
 8003e30:	6a5b      	ldr	r3, [r3, #36]	@ 0x24
 8003e32:	f003 0304 	and.w	r3, r3, #4
 8003e36:	2b00      	cmp	r3, #0
 8003e38:	d00a      	beq.n	8003e50 <UART_AdvFeatureConfig+0x90>
  {
    assert_param(IS_UART_ADVFEATURE_DATAINV(huart->AdvancedInit.DataInvert));
    MODIFY_REG(huart->Instance->CR2, USART_CR2_DATAINV, huart->AdvancedInit.DataInvert);
 8003e3a:	687b      	ldr	r3, [r7, #4]
 8003e3c:	681b      	ldr	r3, [r3, #0]
 8003e3e:	685b      	ldr	r3, [r3, #4]
 8003e40:	f423 2180 	bic.w	r1, r3, #262144	@ 0x40000
 8003e44:	687b      	ldr	r3, [r7, #4]
 8003e46:	6b1a      	ldr	r2, [r3, #48]	@ 0x30
 8003e48:	687b      	ldr	r3, [r7, #4]
 8003e4a:	681b      	ldr	r3, [r3, #0]
 8003e4c:	430a      	orrs	r2, r1
 8003e4e:	605a      	str	r2, [r3, #4]
  }

  /* if required, configure RX overrun detection disabling */
  if (HAL_IS_BIT_SET(huart->AdvancedInit.AdvFeatureInit, UART_ADVFEATURE_RXOVERRUNDISABLE_INIT))
 8003e50:	687b      	ldr	r3, [r7, #4]
 8003e52:	6a5b      	ldr	r3, [r3, #36]	@ 0x24
 8003e54:	f003 0310 	and.w	r3, r3, #16
 8003e58:	2b00      	cmp	r3, #0
 8003e5a:	d00a      	beq.n	8003e72 <UART_AdvFeatureConfig+0xb2>
  {
    assert_param(IS_UART_OVERRUN(huart->AdvancedInit.OverrunDisable));
    MODIFY_REG(huart->Instance->CR3, USART_CR3_OVRDIS, huart->AdvancedInit.OverrunDisable);
 8003e5c:	687b      	ldr	r3, [r7, #4]
 8003e5e:	681b      	ldr	r3, [r3, #0]
 8003e60:	689b      	ldr	r3, [r3, #8]
 8003e62:	f423 5180 	bic.w	r1, r3, #4096	@ 0x1000
 8003e66:	687b      	ldr	r3, [r7, #4]
 8003e68:	6b9a      	ldr	r2, [r3, #56]	@ 0x38
 8003e6a:	687b      	ldr	r3, [r7, #4]
 8003e6c:	681b      	ldr	r3, [r3, #0]
 8003e6e:	430a      	orrs	r2, r1
 8003e70:	609a      	str	r2, [r3, #8]
  }

  /* if required, configure DMA disabling on reception error */
  if (HAL_IS_BIT_SET(huart->AdvancedInit.AdvFeatureInit, UART_ADVFEATURE_DMADISABLEONERROR_INIT))
 8003e72:	687b      	ldr	r3, [r7, #4]
 8003e74:	6a5b      	ldr	r3, [r3, #36]	@ 0x24
 8003e76:	f003 0320 	and.w	r3, r3, #32
 8003e7a:	2b00      	cmp	r3, #0
 8003e7c:	d00a      	beq.n	8003e94 <UART_AdvFeatureConfig+0xd4>
  {
    assert_param(IS_UART_ADVFEATURE_DMAONRXERROR(huart->AdvancedInit.DMADisableonRxError));
    MODIFY_REG(huart->Instance->CR3, USART_CR3_DDRE, huart->AdvancedInit.DMADisableonRxError);
 8003e7e:	687b      	ldr	r3, [r7, #4]
 8003e80:	681b      	ldr	r3, [r3, #0]
 8003e82:	689b      	ldr	r3, [r3, #8]
 8003e84:	f423 5100 	bic.w	r1, r3, #8192	@ 0x2000
 8003e88:	687b      	ldr	r3, [r7, #4]
 8003e8a:	6bda      	ldr	r2, [r3, #60]	@ 0x3c
 8003e8c:	687b      	ldr	r3, [r7, #4]
 8003e8e:	681b      	ldr	r3, [r3, #0]
 8003e90:	430a      	orrs	r2, r1
 8003e92:	609a      	str	r2, [r3, #8]
  }

  /* if required, configure auto Baud rate detection scheme */
  if (HAL_IS_BIT_SET(huart->AdvancedInit.AdvFeatureInit, UART_ADVFEATURE_AUTOBAUDRATE_INIT))
 8003e94:	687b      	ldr	r3, [r7, #4]
 8003e96:	6a5b      	ldr	r3, [r3, #36]	@ 0x24
 8003e98:	f003 0340 	and.w	r3, r3, #64	@ 0x40
 8003e9c:	2b00      	cmp	r3, #0
 8003e9e:	d01a      	beq.n	8003ed6 <UART_AdvFeatureConfig+0x116>
  {
    assert_param(IS_USART_AUTOBAUDRATE_DETECTION_INSTANCE(huart->Instance));
    assert_param(IS_UART_ADVFEATURE_AUTOBAUDRATE(huart->AdvancedInit.AutoBaudRateEnable));
    MODIFY_REG(huart->Instance->CR2, USART_CR2_ABREN, huart->AdvancedInit.AutoBaudRateEnable);
 8003ea0:	687b      	ldr	r3, [r7, #4]
 8003ea2:	681b      	ldr	r3, [r3, #0]
 8003ea4:	685b      	ldr	r3, [r3, #4]
 8003ea6:	f423 1180 	bic.w	r1, r3, #1048576	@ 0x100000
 8003eaa:	687b      	ldr	r3, [r7, #4]
 8003eac:	6c1a      	ldr	r2, [r3, #64]	@ 0x40
 8003eae:	687b      	ldr	r3, [r7, #4]
 8003eb0:	681b      	ldr	r3, [r3, #0]
 8003eb2:	430a      	orrs	r2, r1
 8003eb4:	605a      	str	r2, [r3, #4]
    /* set auto Baudrate detection parameters if detection is enabled */
    if (huart->AdvancedInit.AutoBaudRateEnable == UART_ADVFEATURE_AUTOBAUDRATE_ENABLE)
 8003eb6:	687b      	ldr	r3, [r7, #4]
 8003eb8:	6c1b      	ldr	r3, [r3, #64]	@ 0x40
 8003eba:	f5b3 1f80 	cmp.w	r3, #1048576	@ 0x100000
 8003ebe:	d10a      	bne.n	8003ed6 <UART_AdvFeatureConfig+0x116>
    {
      assert_param(IS_UART_ADVFEATURE_AUTOBAUDRATEMODE(huart->AdvancedInit.AutoBaudRateMode));
      MODIFY_REG(huart->Instance->CR2, USART_CR2_ABRMODE, huart->AdvancedInit.AutoBaudRateMode);
 8003ec0:	687b      	ldr	r3, [r7, #4]
 8003ec2:	681b      	ldr	r3, [r3, #0]
 8003ec4:	685b      	ldr	r3, [r3, #4]
 8003ec6:	f423 01c0 	bic.w	r1, r3, #6291456	@ 0x600000
 8003eca:	687b      	ldr	r3, [r7, #4]
 8003ecc:	6c5a      	ldr	r2, [r3, #68]	@ 0x44
 8003ece:	687b      	ldr	r3, [r7, #4]
 8003ed0:	681b      	ldr	r3, [r3, #0]
 8003ed2:	430a      	orrs	r2, r1
 8003ed4:	605a      	str	r2, [r3, #4]
    }
  }

  /* if required, configure MSB first on communication line */
  if (HAL_IS_BIT_SET(huart->AdvancedInit.AdvFeatureInit, UART_ADVFEATURE_MSBFIRST_INIT))
 8003ed6:	687b      	ldr	r3, [r7, #4]
 8003ed8:	6a5b      	ldr	r3, [r3, #36]	@ 0x24
 8003eda:	f003 0380 	and.w	r3, r3, #128	@ 0x80
 8003ede:	2b00      	cmp	r3, #0
 8003ee0:	d00a      	beq.n	8003ef8 <UART_AdvFeatureConfig+0x138>
  {
    assert_param(IS_UART_ADVFEATURE_MSBFIRST(huart->AdvancedInit.MSBFirst));
    MODIFY_REG(huart->Instance->CR2, USART_CR2_MSBFIRST, huart->AdvancedInit.MSBFirst);
 8003ee2:	687b      	ldr	r3, [r7, #4]
 8003ee4:	681b      	ldr	r3, [r3, #0]
 8003ee6:	685b      	ldr	r3, [r3, #4]
 8003ee8:	f423 2100 	bic.w	r1, r3, #524288	@ 0x80000
 8003eec:	687b      	ldr	r3, [r7, #4]
 8003eee:	6c9a      	ldr	r2, [r3, #72]	@ 0x48
 8003ef0:	687b      	ldr	r3, [r7, #4]
 8003ef2:	681b      	ldr	r3, [r3, #0]
 8003ef4:	430a      	orrs	r2, r1
 8003ef6:	605a      	str	r2, [r3, #4]
  }
}
 8003ef8:	bf00      	nop
 8003efa:	370c      	adds	r7, #12
 8003efc:	46bd      	mov	sp, r7
 8003efe:	f85d 7b04 	ldr.w	r7, [sp], #4
 8003f02:	4770      	bx	lr

08003f04 <UART_CheckIdleState>:
  * @brief Check the UART Idle State.
  * @param huart UART handle.
  * @retval HAL status
  */
HAL_StatusTypeDef UART_CheckIdleState(UART_HandleTypeDef *huart)
{
 8003f04:	b580      	push	{r7, lr}
 8003f06:	b08c      	sub	sp, #48	@ 0x30
 8003f08:	af02      	add	r7, sp, #8
 8003f0a:	6078      	str	r0, [r7, #4]
  uint32_t tickstart;

  /* Initialize the UART ErrorCode */
  huart->ErrorCode = HAL_UART_ERROR_NONE;
 8003f0c:	687b      	ldr	r3, [r7, #4]
 8003f0e:	2200      	movs	r2, #0
 8003f10:	f8c3 2084 	str.w	r2, [r3, #132]	@ 0x84

  /* Init tickstart for timeout management */
  tickstart = HAL_GetTick();
 8003f14:	f7fd fd5a 	bl	80019cc <HAL_GetTick>
 8003f18:	6278      	str	r0, [r7, #36]	@ 0x24

  /* Check if the Transmitter is enabled */
  if ((huart->Instance->CR1 & USART_CR1_TE) == USART_CR1_TE)
 8003f1a:	687b      	ldr	r3, [r7, #4]
 8003f1c:	681b      	ldr	r3, [r3, #0]
 8003f1e:	681b      	ldr	r3, [r3, #0]
 8003f20:	f003 0308 	and.w	r3, r3, #8
 8003f24:	2b08      	cmp	r3, #8
 8003f26:	d12e      	bne.n	8003f86 <UART_CheckIdleState+0x82>
  {
    /* Wait until TEACK flag is set */
    if (UART_WaitOnFlagUntilTimeout(huart, USART_ISR_TEACK, RESET, tickstart, HAL_UART_TIMEOUT_VALUE) != HAL_OK)
 8003f28:	f06f 437e 	mvn.w	r3, #4261412864	@ 0xfe000000
 8003f2c:	9300      	str	r3, [sp, #0]
 8003f2e:	6a7b      	ldr	r3, [r7, #36]	@ 0x24
 8003f30:	2200      	movs	r2, #0
 8003f32:	f44f 1100 	mov.w	r1, #2097152	@ 0x200000
 8003f36:	6878      	ldr	r0, [r7, #4]
 8003f38:	f000 f83b 	bl	8003fb2 <UART_WaitOnFlagUntilTimeout>
 8003f3c:	4603      	mov	r3, r0
 8003f3e:	2b00      	cmp	r3, #0
 8003f40:	d021      	beq.n	8003f86 <UART_CheckIdleState+0x82>
    {
      /* Disable TXE interrupt for the interrupt process */
      ATOMIC_CLEAR_BIT(huart->Instance->CR1, (USART_CR1_TXEIE));
 8003f42:	687b      	ldr	r3, [r7, #4]
 8003f44:	681b      	ldr	r3, [r3, #0]
 8003f46:	613b      	str	r3, [r7, #16]
 */
__STATIC_FORCEINLINE uint32_t __LDREXW(volatile uint32_t *addr)
{
    uint32_t result;

   __ASM volatile ("ldrex %0, %1" : "=r" (result) : "Q" (*addr) );
 8003f48:	693b      	ldr	r3, [r7, #16]
 8003f4a:	e853 3f00 	ldrex	r3, [r3]
 8003f4e:	60fb      	str	r3, [r7, #12]
   return(result);
 8003f50:	68fb      	ldr	r3, [r7, #12]
 8003f52:	f023 0380 	bic.w	r3, r3, #128	@ 0x80
 8003f56:	623b      	str	r3, [r7, #32]
 8003f58:	687b      	ldr	r3, [r7, #4]
 8003f5a:	681b      	ldr	r3, [r3, #0]
 8003f5c:	461a      	mov	r2, r3
 8003f5e:	6a3b      	ldr	r3, [r7, #32]
 8003f60:	61fb      	str	r3, [r7, #28]
 8003f62:	61ba      	str	r2, [r7, #24]
 */
__STATIC_FORCEINLINE uint32_t __STREXW(uint32_t value, volatile uint32_t *addr)
{
   uint32_t result;

   __ASM volatile ("strex %0, %2, %1" : "=&r" (result), "=Q" (*addr) : "r" (value) );
 8003f64:	69b9      	ldr	r1, [r7, #24]
 8003f66:	69fa      	ldr	r2, [r7, #28]
 8003f68:	e841 2300 	strex	r3, r2, [r1]
 8003f6c:	617b      	str	r3, [r7, #20]
   return(result);
 8003f6e:	697b      	ldr	r3, [r7, #20]
 8003f70:	2b00      	cmp	r3, #0
 8003f72:	d1e6      	bne.n	8003f42 <UART_CheckIdleState+0x3e>

      huart->gState = HAL_UART_STATE_READY;
 8003f74:	687b      	ldr	r3, [r7, #4]
 8003f76:	2220      	movs	r2, #32
 8003f78:	67da      	str	r2, [r3, #124]	@ 0x7c

      __HAL_UNLOCK(huart);
 8003f7a:	687b      	ldr	r3, [r7, #4]
 8003f7c:	2200      	movs	r2, #0
 8003f7e:	f883 2078 	strb.w	r2, [r3, #120]	@ 0x78

      /* Timeout occurred */
      return HAL_TIMEOUT;
 8003f82:	2303      	movs	r3, #3
 8003f84:	e011      	b.n	8003faa <UART_CheckIdleState+0xa6>
    }
  }
#endif /* USART_ISR_REACK */

  /* Initialize the UART State */
  huart->gState = HAL_UART_STATE_READY;
 8003f86:	687b      	ldr	r3, [r7, #4]
 8003f88:	2220      	movs	r2, #32
 8003f8a:	67da      	str	r2, [r3, #124]	@ 0x7c
  huart->RxState = HAL_UART_STATE_READY;
 8003f8c:	687b      	ldr	r3, [r7, #4]
 8003f8e:	2220      	movs	r2, #32
 8003f90:	f8c3 2080 	str.w	r2, [r3, #128]	@ 0x80
  huart->ReceptionType = HAL_UART_RECEPTION_STANDARD;
 8003f94:	687b      	ldr	r3, [r7, #4]
 8003f96:	2200      	movs	r2, #0
 8003f98:	661a      	str	r2, [r3, #96]	@ 0x60
  huart->RxEventType = HAL_UART_RXEVENT_TC;
 8003f9a:	687b      	ldr	r3, [r7, #4]
 8003f9c:	2200      	movs	r2, #0
 8003f9e:	665a      	str	r2, [r3, #100]	@ 0x64

  __HAL_UNLOCK(huart);
 8003fa0:	687b      	ldr	r3, [r7, #4]
 8003fa2:	2200      	movs	r2, #0
 8003fa4:	f883 2078 	strb.w	r2, [r3, #120]	@ 0x78

  return HAL_OK;
 8003fa8:	2300      	movs	r3, #0
}
 8003faa:	4618      	mov	r0, r3
 8003fac:	3728      	adds	r7, #40	@ 0x28
 8003fae:	46bd      	mov	sp, r7
 8003fb0:	bd80      	pop	{r7, pc}

08003fb2 <UART_WaitOnFlagUntilTimeout>:
  * @param Timeout   Timeout duration
  * @retval HAL status
  */
HAL_StatusTypeDef UART_WaitOnFlagUntilTimeout(UART_HandleTypeDef *huart, uint32_t Flag, FlagStatus Status,
                                              uint32_t Tickstart, uint32_t Timeout)
{
 8003fb2:	b580      	push	{r7, lr}
 8003fb4:	b084      	sub	sp, #16
 8003fb6:	af00      	add	r7, sp, #0
 8003fb8:	60f8      	str	r0, [r7, #12]
 8003fba:	60b9      	str	r1, [r7, #8]
 8003fbc:	603b      	str	r3, [r7, #0]
 8003fbe:	4613      	mov	r3, r2
 8003fc0:	71fb      	strb	r3, [r7, #7]
  /* Wait until flag is set */
  while ((__HAL_UART_GET_FLAG(huart, Flag) ? SET : RESET) == Status)
 8003fc2:	e04f      	b.n	8004064 <UART_WaitOnFlagUntilTimeout+0xb2>
  {
    /* Check for the Timeout */
    if (Timeout != HAL_MAX_DELAY)
 8003fc4:	69bb      	ldr	r3, [r7, #24]
 8003fc6:	f1b3 3fff 	cmp.w	r3, #4294967295
 8003fca:	d04b      	beq.n	8004064 <UART_WaitOnFlagUntilTimeout+0xb2>
    {
      if (((HAL_GetTick() - Tickstart) > Timeout) || (Timeout == 0U))
 8003fcc:	f7fd fcfe 	bl	80019cc <HAL_GetTick>
 8003fd0:	4602      	mov	r2, r0
 8003fd2:	683b      	ldr	r3, [r7, #0]
 8003fd4:	1ad3      	subs	r3, r2, r3
 8003fd6:	69ba      	ldr	r2, [r7, #24]
 8003fd8:	429a      	cmp	r2, r3
 8003fda:	d302      	bcc.n	8003fe2 <UART_WaitOnFlagUntilTimeout+0x30>
 8003fdc:	69bb      	ldr	r3, [r7, #24]
 8003fde:	2b00      	cmp	r3, #0
 8003fe0:	d101      	bne.n	8003fe6 <UART_WaitOnFlagUntilTimeout+0x34>
      {

        return HAL_TIMEOUT;
 8003fe2:	2303      	movs	r3, #3
 8003fe4:	e04e      	b.n	8004084 <UART_WaitOnFlagUntilTimeout+0xd2>
      }

      if ((READ_BIT(huart->Instance->CR1, USART_CR1_RE) != 0U) && (Flag != UART_FLAG_TXE) && (Flag != UART_FLAG_TC))
 8003fe6:	68fb      	ldr	r3, [r7, #12]
 8003fe8:	681b      	ldr	r3, [r3, #0]
 8003fea:	681b      	ldr	r3, [r3, #0]
 8003fec:	f003 0304 	and.w	r3, r3, #4
 8003ff0:	2b00      	cmp	r3, #0
 8003ff2:	d037      	beq.n	8004064 <UART_WaitOnFlagUntilTimeout+0xb2>
 8003ff4:	68bb      	ldr	r3, [r7, #8]
 8003ff6:	2b80      	cmp	r3, #128	@ 0x80
 8003ff8:	d034      	beq.n	8004064 <UART_WaitOnFlagUntilTimeout+0xb2>
 8003ffa:	68bb      	ldr	r3, [r7, #8]
 8003ffc:	2b40      	cmp	r3, #64	@ 0x40
 8003ffe:	d031      	beq.n	8004064 <UART_WaitOnFlagUntilTimeout+0xb2>
      {
        if (__HAL_UART_GET_FLAG(huart, UART_FLAG_ORE) == SET)
 8004000:	68fb      	ldr	r3, [r7, #12]
 8004002:	681b      	ldr	r3, [r3, #0]
 8004004:	69db      	ldr	r3, [r3, #28]
 8004006:	f003 0308 	and.w	r3, r3, #8
 800400a:	2b08      	cmp	r3, #8
 800400c:	d110      	bne.n	8004030 <UART_WaitOnFlagUntilTimeout+0x7e>
        {
          /* Clear Overrun Error flag*/
          __HAL_UART_CLEAR_FLAG(huart, UART_CLEAR_OREF);
 800400e:	68fb      	ldr	r3, [r7, #12]
 8004010:	681b      	ldr	r3, [r3, #0]
 8004012:	2208      	movs	r2, #8
 8004014:	621a      	str	r2, [r3, #32]

          /* Blocking error : transfer is aborted
          Set the UART state ready to be able to start again the process,
          Disable Rx Interrupts if ongoing */
          UART_EndRxTransfer(huart);
 8004016:	68f8      	ldr	r0, [r7, #12]
 8004018:	f000 f838 	bl	800408c <UART_EndRxTransfer>

          huart->ErrorCode = HAL_UART_ERROR_ORE;
 800401c:	68fb      	ldr	r3, [r7, #12]
 800401e:	2208      	movs	r2, #8
 8004020:	f8c3 2084 	str.w	r2, [r3, #132]	@ 0x84

          /* Process Unlocked */
          __HAL_UNLOCK(huart);
 8004024:	68fb      	ldr	r3, [r7, #12]
 8004026:	2200      	movs	r2, #0
 8004028:	f883 2078 	strb.w	r2, [r3, #120]	@ 0x78

          return HAL_ERROR;
 800402c:	2301      	movs	r3, #1
 800402e:	e029      	b.n	8004084 <UART_WaitOnFlagUntilTimeout+0xd2>
        }
        if (__HAL_UART_GET_FLAG(huart, UART_FLAG_RTOF) == SET)
 8004030:	68fb      	ldr	r3, [r7, #12]
 8004032:	681b      	ldr	r3, [r3, #0]
 8004034:	69db      	ldr	r3, [r3, #28]
 8004036:	f403 6300 	and.w	r3, r3, #2048	@ 0x800
 800403a:	f5b3 6f00 	cmp.w	r3, #2048	@ 0x800
 800403e:	d111      	bne.n	8004064 <UART_WaitOnFlagUntilTimeout+0xb2>
        {
          /* Clear Receiver Timeout flag*/
          __HAL_UART_CLEAR_FLAG(huart, UART_CLEAR_RTOF);
 8004040:	68fb      	ldr	r3, [r7, #12]
 8004042:	681b      	ldr	r3, [r3, #0]
 8004044:	f44f 6200 	mov.w	r2, #2048	@ 0x800
 8004048:	621a      	str	r2, [r3, #32]

          /* Blocking error : transfer is aborted
          Set the UART state ready to be able to start again the process,
          Disable Rx Interrupts if ongoing */
          UART_EndRxTransfer(huart);
 800404a:	68f8      	ldr	r0, [r7, #12]
 800404c:	f000 f81e 	bl	800408c <UART_EndRxTransfer>

          huart->ErrorCode = HAL_UART_ERROR_RTO;
 8004050:	68fb      	ldr	r3, [r7, #12]
 8004052:	2220      	movs	r2, #32
 8004054:	f8c3 2084 	str.w	r2, [r3, #132]	@ 0x84

          /* Process Unlocked */
          __HAL_UNLOCK(huart);
 8004058:	68fb      	ldr	r3, [r7, #12]
 800405a:	2200      	movs	r2, #0
 800405c:	f883 2078 	strb.w	r2, [r3, #120]	@ 0x78

          return HAL_TIMEOUT;
 8004060:	2303      	movs	r3, #3
 8004062:	e00f      	b.n	8004084 <UART_WaitOnFlagUntilTimeout+0xd2>
  while ((__HAL_UART_GET_FLAG(huart, Flag) ? SET : RESET) == Status)
 8004064:	68fb      	ldr	r3, [r7, #12]
 8004066:	681b      	ldr	r3, [r3, #0]
 8004068:	69da      	ldr	r2, [r3, #28]
 800406a:	68bb      	ldr	r3, [r7, #8]
 800406c:	4013      	ands	r3, r2
 800406e:	68ba      	ldr	r2, [r7, #8]
 8004070:	429a      	cmp	r2, r3
 8004072:	bf0c      	ite	eq
 8004074:	2301      	moveq	r3, #1
 8004076:	2300      	movne	r3, #0
 8004078:	b2db      	uxtb	r3, r3
 800407a:	461a      	mov	r2, r3
 800407c:	79fb      	ldrb	r3, [r7, #7]
 800407e:	429a      	cmp	r2, r3
 8004080:	d0a0      	beq.n	8003fc4 <UART_WaitOnFlagUntilTimeout+0x12>
        }
      }
    }
  }
  return HAL_OK;
 8004082:	2300      	movs	r3, #0
}
 8004084:	4618      	mov	r0, r3
 8004086:	3710      	adds	r7, #16
 8004088:	46bd      	mov	sp, r7
 800408a:	bd80      	pop	{r7, pc}

0800408c <UART_EndRxTransfer>:
  * @brief  End ongoing Rx transfer on UART peripheral (following error detection or Reception completion).
  * @param  huart UART handle.
  * @retval None
  */
static void UART_EndRxTransfer(UART_HandleTypeDef *huart)
{
 800408c:	b480      	push	{r7}
 800408e:	b095      	sub	sp, #84	@ 0x54
 8004090:	af00      	add	r7, sp, #0
 8004092:	6078      	str	r0, [r7, #4]
  /* Disable RXNE, PE and ERR (Frame error, noise error, overrun error) interrupts */
  ATOMIC_CLEAR_BIT(huart->Instance->CR1, (USART_CR1_RXNEIE | USART_CR1_PEIE));
 8004094:	687b      	ldr	r3, [r7, #4]
 8004096:	681b      	ldr	r3, [r3, #0]
 8004098:	637b      	str	r3, [r7, #52]	@ 0x34
   __ASM volatile ("ldrex %0, %1" : "=r" (result) : "Q" (*addr) );
 800409a:	6b7b      	ldr	r3, [r7, #52]	@ 0x34
 800409c:	e853 3f00 	ldrex	r3, [r3]
 80040a0:	633b      	str	r3, [r7, #48]	@ 0x30
   return(result);
 80040a2:	6b3b      	ldr	r3, [r7, #48]	@ 0x30
 80040a4:	f423 7390 	bic.w	r3, r3, #288	@ 0x120
 80040a8:	64fb      	str	r3, [r7, #76]	@ 0x4c
 80040aa:	687b      	ldr	r3, [r7, #4]
 80040ac:	681b      	ldr	r3, [r3, #0]
 80040ae:	461a      	mov	r2, r3
 80040b0:	6cfb      	ldr	r3, [r7, #76]	@ 0x4c
 80040b2:	643b      	str	r3, [r7, #64]	@ 0x40
 80040b4:	63fa      	str	r2, [r7, #60]	@ 0x3c
   __ASM volatile ("strex %0, %2, %1" : "=&r" (result), "=Q" (*addr) : "r" (value) );
 80040b6:	6bf9      	ldr	r1, [r7, #60]	@ 0x3c
 80040b8:	6c3a      	ldr	r2, [r7, #64]	@ 0x40
 80040ba:	e841 2300 	strex	r3, r2, [r1]
 80040be:	63bb      	str	r3, [r7, #56]	@ 0x38
   return(result);
 80040c0:	6bbb      	ldr	r3, [r7, #56]	@ 0x38
 80040c2:	2b00      	cmp	r3, #0
 80040c4:	d1e6      	bne.n	8004094 <UART_EndRxTransfer+0x8>
  ATOMIC_CLEAR_BIT(huart->Instance->CR3, USART_CR3_EIE);
 80040c6:	687b      	ldr	r3, [r7, #4]
 80040c8:	681b      	ldr	r3, [r3, #0]
 80040ca:	3308      	adds	r3, #8
 80040cc:	623b      	str	r3, [r7, #32]
   __ASM volatile ("ldrex %0, %1" : "=r" (result) : "Q" (*addr) );
 80040ce:	6a3b      	ldr	r3, [r7, #32]
 80040d0:	e853 3f00 	ldrex	r3, [r3]
 80040d4:	61fb      	str	r3, [r7, #28]
   return(result);
 80040d6:	69fb      	ldr	r3, [r7, #28]
 80040d8:	f023 0301 	bic.w	r3, r3, #1
 80040dc:	64bb      	str	r3, [r7, #72]	@ 0x48
 80040de:	687b      	ldr	r3, [r7, #4]
 80040e0:	681b      	ldr	r3, [r3, #0]
 80040e2:	3308      	adds	r3, #8
 80040e4:	6cba      	ldr	r2, [r7, #72]	@ 0x48
 80040e6:	62fa      	str	r2, [r7, #44]	@ 0x2c
 80040e8:	62bb      	str	r3, [r7, #40]	@ 0x28
   __ASM volatile ("strex %0, %2, %1" : "=&r" (result), "=Q" (*addr) : "r" (value) );
 80040ea:	6ab9      	ldr	r1, [r7, #40]	@ 0x28
 80040ec:	6afa      	ldr	r2, [r7, #44]	@ 0x2c
 80040ee:	e841 2300 	strex	r3, r2, [r1]
 80040f2:	627b      	str	r3, [r7, #36]	@ 0x24
   return(result);
 80040f4:	6a7b      	ldr	r3, [r7, #36]	@ 0x24
 80040f6:	2b00      	cmp	r3, #0
 80040f8:	d1e5      	bne.n	80040c6 <UART_EndRxTransfer+0x3a>

  /* In case of reception waiting for IDLE event, disable also the IDLE IE interrupt source */
  if (huart->ReceptionType == HAL_UART_RECEPTION_TOIDLE)
 80040fa:	687b      	ldr	r3, [r7, #4]
 80040fc:	6e1b      	ldr	r3, [r3, #96]	@ 0x60
 80040fe:	2b01      	cmp	r3, #1
 8004100:	d118      	bne.n	8004134 <UART_EndRxTransfer+0xa8>
  {
    ATOMIC_CLEAR_BIT(huart->Instance->CR1, USART_CR1_IDLEIE);
 8004102:	687b      	ldr	r3, [r7, #4]
 8004104:	681b      	ldr	r3, [r3, #0]
 8004106:	60fb      	str	r3, [r7, #12]
   __ASM volatile ("ldrex %0, %1" : "=r" (result) : "Q" (*addr) );
 8004108:	68fb      	ldr	r3, [r7, #12]
 800410a:	e853 3f00 	ldrex	r3, [r3]
 800410e:	60bb      	str	r3, [r7, #8]
   return(result);
 8004110:	68bb      	ldr	r3, [r7, #8]
 8004112:	f023 0310 	bic.w	r3, r3, #16
 8004116:	647b      	str	r3, [r7, #68]	@ 0x44
 8004118:	687b      	ldr	r3, [r7, #4]
 800411a:	681b      	ldr	r3, [r3, #0]
 800411c:	461a      	mov	r2, r3
 800411e:	6c7b      	ldr	r3, [r7, #68]	@ 0x44
 8004120:	61bb      	str	r3, [r7, #24]
 8004122:	617a      	str	r2, [r7, #20]
   __ASM volatile ("strex %0, %2, %1" : "=&r" (result), "=Q" (*addr) : "r" (value) );
 8004124:	6979      	ldr	r1, [r7, #20]
 8004126:	69ba      	ldr	r2, [r7, #24]
 8004128:	e841 2300 	strex	r3, r2, [r1]
 800412c:	613b      	str	r3, [r7, #16]
   return(result);
 800412e:	693b      	ldr	r3, [r7, #16]
 8004130:	2b00      	cmp	r3, #0
 8004132:	d1e6      	bne.n	8004102 <UART_EndRxTransfer+0x76>
  }

  /* At end of Rx process, restore huart->RxState to Ready */
  huart->RxState = HAL_UART_STATE_READY;
 8004134:	687b      	ldr	r3, [r7, #4]
 8004136:	2220      	movs	r2, #32
 8004138:	f8c3 2080 	str.w	r2, [r3, #128]	@ 0x80
  huart->ReceptionType = HAL_UART_RECEPTION_STANDARD;
 800413c:	687b      	ldr	r3, [r7, #4]
 800413e:	2200      	movs	r2, #0
 8004140:	661a      	str	r2, [r3, #96]	@ 0x60

  /* Reset RxIsr function pointer */
  huart->RxISR = NULL;
 8004142:	687b      	ldr	r3, [r7, #4]
 8004144:	2200      	movs	r2, #0
 8004146:	669a      	str	r2, [r3, #104]	@ 0x68
}
 8004148:	bf00      	nop
 800414a:	3754      	adds	r7, #84	@ 0x54
 800414c:	46bd      	mov	sp, r7
 800414e:	f85d 7b04 	ldr.w	r7, [sp], #4
 8004152:	4770      	bx	lr

08004154 <tc_aes128_set_decrypt_key>:
	0x17, 0x2b, 0x04, 0x7e, 0xba, 0x77, 0xd6, 0x26, 0xe1, 0x69, 0x14, 0x63,
	0x55, 0x21, 0x0c, 0x7d
};

int tc_aes128_set_decrypt_key(TCAesKeySched_t s, const uint8_t *k)
{
 8004154:	b580      	push	{r7, lr}
 8004156:	b082      	sub	sp, #8
 8004158:	af00      	add	r7, sp, #0
 800415a:	6078      	str	r0, [r7, #4]
 800415c:	6039      	str	r1, [r7, #0]
	return tc_aes128_set_encrypt_key(s, k);
 800415e:	6839      	ldr	r1, [r7, #0]
 8004160:	6878      	ldr	r0, [r7, #4]
 8004162:	f000 fbef 	bl	8004944 <tc_aes128_set_encrypt_key>
 8004166:	4603      	mov	r3, r0
}
 8004168:	4618      	mov	r0, r3
 800416a:	3708      	adds	r7, #8
 800416c:	46bd      	mov	sp, r7
 800416e:	bd80      	pop	{r7, pc}

08004170 <mult_row_column>:
#define multb(a)(mult8(a)^_double_byte(a)^(a))
#define multd(a)(mult8(a)^_double_byte(_double_byte(a))^(a))
#define multe(a)(mult8(a)^_double_byte(_double_byte(a))^_double_byte(a))

static inline void mult_row_column(uint8_t *out, const uint8_t *in)
{
 8004170:	b5b0      	push	{r4, r5, r7, lr}
 8004172:	b082      	sub	sp, #8
 8004174:	af00      	add	r7, sp, #0
 8004176:	6078      	str	r0, [r7, #4]
 8004178:	6039      	str	r1, [r7, #0]
	out[0] = multe(in[0]) ^ multb(in[1]) ^ multd(in[2]) ^ mult9(in[3]);
 800417a:	683b      	ldr	r3, [r7, #0]
 800417c:	781b      	ldrb	r3, [r3, #0]
 800417e:	4618      	mov	r0, r3
 8004180:	f002 ff72 	bl	8007068 <_double_byte>
 8004184:	4603      	mov	r3, r0
 8004186:	4618      	mov	r0, r3
 8004188:	f002 ff6e 	bl	8007068 <_double_byte>
 800418c:	4603      	mov	r3, r0
 800418e:	4618      	mov	r0, r3
 8004190:	f002 ff6a 	bl	8007068 <_double_byte>
 8004194:	4603      	mov	r3, r0
 8004196:	461c      	mov	r4, r3
 8004198:	683b      	ldr	r3, [r7, #0]
 800419a:	781b      	ldrb	r3, [r3, #0]
 800419c:	4618      	mov	r0, r3
 800419e:	f002 ff63 	bl	8007068 <_double_byte>
 80041a2:	4603      	mov	r3, r0
 80041a4:	4618      	mov	r0, r3
 80041a6:	f002 ff5f 	bl	8007068 <_double_byte>
 80041aa:	4603      	mov	r3, r0
 80041ac:	4063      	eors	r3, r4
 80041ae:	b2dc      	uxtb	r4, r3
 80041b0:	683b      	ldr	r3, [r7, #0]
 80041b2:	781b      	ldrb	r3, [r3, #0]
 80041b4:	4618      	mov	r0, r3
 80041b6:	f002 ff57 	bl	8007068 <_double_byte>
 80041ba:	4603      	mov	r3, r0
 80041bc:	4063      	eors	r3, r4
 80041be:	b2dc      	uxtb	r4, r3
 80041c0:	683b      	ldr	r3, [r7, #0]
 80041c2:	3301      	adds	r3, #1
 80041c4:	781b      	ldrb	r3, [r3, #0]
 80041c6:	4618      	mov	r0, r3
 80041c8:	f002 ff4e 	bl	8007068 <_double_byte>
 80041cc:	4603      	mov	r3, r0
 80041ce:	4618      	mov	r0, r3
 80041d0:	f002 ff4a 	bl	8007068 <_double_byte>
 80041d4:	4603      	mov	r3, r0
 80041d6:	4618      	mov	r0, r3
 80041d8:	f002 ff46 	bl	8007068 <_double_byte>
 80041dc:	4603      	mov	r3, r0
 80041de:	461d      	mov	r5, r3
 80041e0:	683b      	ldr	r3, [r7, #0]
 80041e2:	3301      	adds	r3, #1
 80041e4:	781b      	ldrb	r3, [r3, #0]
 80041e6:	4618      	mov	r0, r3
 80041e8:	f002 ff3e 	bl	8007068 <_double_byte>
 80041ec:	4603      	mov	r3, r0
 80041ee:	406b      	eors	r3, r5
 80041f0:	b2da      	uxtb	r2, r3
 80041f2:	683b      	ldr	r3, [r7, #0]
 80041f4:	3301      	adds	r3, #1
 80041f6:	781b      	ldrb	r3, [r3, #0]
 80041f8:	4053      	eors	r3, r2
 80041fa:	b2db      	uxtb	r3, r3
 80041fc:	4063      	eors	r3, r4
 80041fe:	b2dc      	uxtb	r4, r3
 8004200:	683b      	ldr	r3, [r7, #0]
 8004202:	3302      	adds	r3, #2
 8004204:	781b      	ldrb	r3, [r3, #0]
 8004206:	4618      	mov	r0, r3
 8004208:	f002 ff2e 	bl	8007068 <_double_byte>
 800420c:	4603      	mov	r3, r0
 800420e:	4618      	mov	r0, r3
 8004210:	f002 ff2a 	bl	8007068 <_double_byte>
 8004214:	4603      	mov	r3, r0
 8004216:	4618      	mov	r0, r3
 8004218:	f002 ff26 	bl	8007068 <_double_byte>
 800421c:	4603      	mov	r3, r0
 800421e:	461d      	mov	r5, r3
 8004220:	683b      	ldr	r3, [r7, #0]
 8004222:	3302      	adds	r3, #2
 8004224:	781b      	ldrb	r3, [r3, #0]
 8004226:	4618      	mov	r0, r3
 8004228:	f002 ff1e 	bl	8007068 <_double_byte>
 800422c:	4603      	mov	r3, r0
 800422e:	4618      	mov	r0, r3
 8004230:	f002 ff1a 	bl	8007068 <_double_byte>
 8004234:	4603      	mov	r3, r0
 8004236:	406b      	eors	r3, r5
 8004238:	b2da      	uxtb	r2, r3
 800423a:	683b      	ldr	r3, [r7, #0]
 800423c:	3302      	adds	r3, #2
 800423e:	781b      	ldrb	r3, [r3, #0]
 8004240:	4053      	eors	r3, r2
 8004242:	b2db      	uxtb	r3, r3
 8004244:	4063      	eors	r3, r4
 8004246:	b2dc      	uxtb	r4, r3
 8004248:	683b      	ldr	r3, [r7, #0]
 800424a:	3303      	adds	r3, #3
 800424c:	781b      	ldrb	r3, [r3, #0]
 800424e:	4618      	mov	r0, r3
 8004250:	f002 ff0a 	bl	8007068 <_double_byte>
 8004254:	4603      	mov	r3, r0
 8004256:	4618      	mov	r0, r3
 8004258:	f002 ff06 	bl	8007068 <_double_byte>
 800425c:	4603      	mov	r3, r0
 800425e:	4618      	mov	r0, r3
 8004260:	f002 ff02 	bl	8007068 <_double_byte>
 8004264:	4603      	mov	r3, r0
 8004266:	461a      	mov	r2, r3
 8004268:	683b      	ldr	r3, [r7, #0]
 800426a:	3303      	adds	r3, #3
 800426c:	781b      	ldrb	r3, [r3, #0]
 800426e:	4053      	eors	r3, r2
 8004270:	b2db      	uxtb	r3, r3
 8004272:	4063      	eors	r3, r4
 8004274:	b2da      	uxtb	r2, r3
 8004276:	687b      	ldr	r3, [r7, #4]
 8004278:	701a      	strb	r2, [r3, #0]
	out[1] = mult9(in[0]) ^ multe(in[1]) ^ multb(in[2]) ^ multd(in[3]);
 800427a:	683b      	ldr	r3, [r7, #0]
 800427c:	781b      	ldrb	r3, [r3, #0]
 800427e:	4618      	mov	r0, r3
 8004280:	f002 fef2 	bl	8007068 <_double_byte>
 8004284:	4603      	mov	r3, r0
 8004286:	4618      	mov	r0, r3
 8004288:	f002 feee 	bl	8007068 <_double_byte>
 800428c:	4603      	mov	r3, r0
 800428e:	4618      	mov	r0, r3
 8004290:	f002 feea 	bl	8007068 <_double_byte>
 8004294:	4603      	mov	r3, r0
 8004296:	461a      	mov	r2, r3
 8004298:	683b      	ldr	r3, [r7, #0]
 800429a:	781b      	ldrb	r3, [r3, #0]
 800429c:	4053      	eors	r3, r2
 800429e:	b2dc      	uxtb	r4, r3
 80042a0:	683b      	ldr	r3, [r7, #0]
 80042a2:	3301      	adds	r3, #1
 80042a4:	781b      	ldrb	r3, [r3, #0]
 80042a6:	4618      	mov	r0, r3
 80042a8:	f002 fede 	bl	8007068 <_double_byte>
 80042ac:	4603      	mov	r3, r0
 80042ae:	4618      	mov	r0, r3
 80042b0:	f002 feda 	bl	8007068 <_double_byte>
 80042b4:	4603      	mov	r3, r0
 80042b6:	4618      	mov	r0, r3
 80042b8:	f002 fed6 	bl	8007068 <_double_byte>
 80042bc:	4603      	mov	r3, r0
 80042be:	461d      	mov	r5, r3
 80042c0:	683b      	ldr	r3, [r7, #0]
 80042c2:	3301      	adds	r3, #1
 80042c4:	781b      	ldrb	r3, [r3, #0]
 80042c6:	4618      	mov	r0, r3
 80042c8:	f002 fece 	bl	8007068 <_double_byte>
 80042cc:	4603      	mov	r3, r0
 80042ce:	4618      	mov	r0, r3
 80042d0:	f002 feca 	bl	8007068 <_double_byte>
 80042d4:	4603      	mov	r3, r0
 80042d6:	406b      	eors	r3, r5
 80042d8:	b2dd      	uxtb	r5, r3
 80042da:	683b      	ldr	r3, [r7, #0]
 80042dc:	3301      	adds	r3, #1
 80042de:	781b      	ldrb	r3, [r3, #0]
 80042e0:	4618      	mov	r0, r3
 80042e2:	f002 fec1 	bl	8007068 <_double_byte>
 80042e6:	4603      	mov	r3, r0
 80042e8:	406b      	eors	r3, r5
 80042ea:	b2db      	uxtb	r3, r3
 80042ec:	4063      	eors	r3, r4
 80042ee:	b2dc      	uxtb	r4, r3
 80042f0:	683b      	ldr	r3, [r7, #0]
 80042f2:	3302      	adds	r3, #2
 80042f4:	781b      	ldrb	r3, [r3, #0]
 80042f6:	4618      	mov	r0, r3
 80042f8:	f002 feb6 	bl	8007068 <_double_byte>
 80042fc:	4603      	mov	r3, r0
 80042fe:	4618      	mov	r0, r3
 8004300:	f002 feb2 	bl	8007068 <_double_byte>
 8004304:	4603      	mov	r3, r0
 8004306:	4618      	mov	r0, r3
 8004308:	f002 feae 	bl	8007068 <_double_byte>
 800430c:	4603      	mov	r3, r0
 800430e:	461d      	mov	r5, r3
 8004310:	683b      	ldr	r3, [r7, #0]
 8004312:	3302      	adds	r3, #2
 8004314:	781b      	ldrb	r3, [r3, #0]
 8004316:	4618      	mov	r0, r3
 8004318:	f002 fea6 	bl	8007068 <_double_byte>
 800431c:	4603      	mov	r3, r0
 800431e:	406b      	eors	r3, r5
 8004320:	b2da      	uxtb	r2, r3
 8004322:	683b      	ldr	r3, [r7, #0]
 8004324:	3302      	adds	r3, #2
 8004326:	781b      	ldrb	r3, [r3, #0]
 8004328:	4053      	eors	r3, r2
 800432a:	b2db      	uxtb	r3, r3
 800432c:	4063      	eors	r3, r4
 800432e:	b2dc      	uxtb	r4, r3
 8004330:	683b      	ldr	r3, [r7, #0]
 8004332:	3303      	adds	r3, #3
 8004334:	781b      	ldrb	r3, [r3, #0]
 8004336:	4618      	mov	r0, r3
 8004338:	f002 fe96 	bl	8007068 <_double_byte>
 800433c:	4603      	mov	r3, r0
 800433e:	4618      	mov	r0, r3
 8004340:	f002 fe92 	bl	8007068 <_double_byte>
 8004344:	4603      	mov	r3, r0
 8004346:	4618      	mov	r0, r3
 8004348:	f002 fe8e 	bl	8007068 <_double_byte>
 800434c:	4603      	mov	r3, r0
 800434e:	461d      	mov	r5, r3
 8004350:	683b      	ldr	r3, [r7, #0]
 8004352:	3303      	adds	r3, #3
 8004354:	781b      	ldrb	r3, [r3, #0]
 8004356:	4618      	mov	r0, r3
 8004358:	f002 fe86 	bl	8007068 <_double_byte>
 800435c:	4603      	mov	r3, r0
 800435e:	4618      	mov	r0, r3
 8004360:	f002 fe82 	bl	8007068 <_double_byte>
 8004364:	4603      	mov	r3, r0
 8004366:	406b      	eors	r3, r5
 8004368:	b2da      	uxtb	r2, r3
 800436a:	683b      	ldr	r3, [r7, #0]
 800436c:	3303      	adds	r3, #3
 800436e:	781b      	ldrb	r3, [r3, #0]
 8004370:	4053      	eors	r3, r2
 8004372:	b2da      	uxtb	r2, r3
 8004374:	687b      	ldr	r3, [r7, #4]
 8004376:	3301      	adds	r3, #1
 8004378:	4062      	eors	r2, r4
 800437a:	b2d2      	uxtb	r2, r2
 800437c:	701a      	strb	r2, [r3, #0]
	out[2] = multd(in[0]) ^ mult9(in[1]) ^ multe(in[2]) ^ multb(in[3]);
 800437e:	683b      	ldr	r3, [r7, #0]
 8004380:	781b      	ldrb	r3, [r3, #0]
 8004382:	4618      	mov	r0, r3
 8004384:	f002 fe70 	bl	8007068 <_double_byte>
 8004388:	4603      	mov	r3, r0
 800438a:	4618      	mov	r0, r3
 800438c:	f002 fe6c 	bl	8007068 <_double_byte>
 8004390:	4603      	mov	r3, r0
 8004392:	4618      	mov	r0, r3
 8004394:	f002 fe68 	bl	8007068 <_double_byte>
 8004398:	4603      	mov	r3, r0
 800439a:	461c      	mov	r4, r3
 800439c:	683b      	ldr	r3, [r7, #0]
 800439e:	781b      	ldrb	r3, [r3, #0]
 80043a0:	4618      	mov	r0, r3
 80043a2:	f002 fe61 	bl	8007068 <_double_byte>
 80043a6:	4603      	mov	r3, r0
 80043a8:	4618      	mov	r0, r3
 80043aa:	f002 fe5d 	bl	8007068 <_double_byte>
 80043ae:	4603      	mov	r3, r0
 80043b0:	4063      	eors	r3, r4
 80043b2:	b2da      	uxtb	r2, r3
 80043b4:	683b      	ldr	r3, [r7, #0]
 80043b6:	781b      	ldrb	r3, [r3, #0]
 80043b8:	4053      	eors	r3, r2
 80043ba:	b2dc      	uxtb	r4, r3
 80043bc:	683b      	ldr	r3, [r7, #0]
 80043be:	3301      	adds	r3, #1
 80043c0:	781b      	ldrb	r3, [r3, #0]
 80043c2:	4618      	mov	r0, r3
 80043c4:	f002 fe50 	bl	8007068 <_double_byte>
 80043c8:	4603      	mov	r3, r0
 80043ca:	4618      	mov	r0, r3
 80043cc:	f002 fe4c 	bl	8007068 <_double_byte>
 80043d0:	4603      	mov	r3, r0
 80043d2:	4618      	mov	r0, r3
 80043d4:	f002 fe48 	bl	8007068 <_double_byte>
 80043d8:	4603      	mov	r3, r0
 80043da:	461a      	mov	r2, r3
 80043dc:	683b      	ldr	r3, [r7, #0]
 80043de:	3301      	adds	r3, #1
 80043e0:	781b      	ldrb	r3, [r3, #0]
 80043e2:	4053      	eors	r3, r2
 80043e4:	b2db      	uxtb	r3, r3
 80043e6:	4063      	eors	r3, r4
 80043e8:	b2dc      	uxtb	r4, r3
 80043ea:	683b      	ldr	r3, [r7, #0]
 80043ec:	3302      	adds	r3, #2
 80043ee:	781b      	ldrb	r3, [r3, #0]
 80043f0:	4618      	mov	r0, r3
 80043f2:	f002 fe39 	bl	8007068 <_double_byte>
 80043f6:	4603      	mov	r3, r0
 80043f8:	4618      	mov	r0, r3
 80043fa:	f002 fe35 	bl	8007068 <_double_byte>
 80043fe:	4603      	mov	r3, r0
 8004400:	4618      	mov	r0, r3
 8004402:	f002 fe31 	bl	8007068 <_double_byte>
 8004406:	4603      	mov	r3, r0
 8004408:	461d      	mov	r5, r3
 800440a:	683b      	ldr	r3, [r7, #0]
 800440c:	3302      	adds	r3, #2
 800440e:	781b      	ldrb	r3, [r3, #0]
 8004410:	4618      	mov	r0, r3
 8004412:	f002 fe29 	bl	8007068 <_double_byte>
 8004416:	4603      	mov	r3, r0
 8004418:	4618      	mov	r0, r3
 800441a:	f002 fe25 	bl	8007068 <_double_byte>
 800441e:	4603      	mov	r3, r0
 8004420:	406b      	eors	r3, r5
 8004422:	b2dd      	uxtb	r5, r3
 8004424:	683b      	ldr	r3, [r7, #0]
 8004426:	3302      	adds	r3, #2
 8004428:	781b      	ldrb	r3, [r3, #0]
 800442a:	4618      	mov	r0, r3
 800442c:	f002 fe1c 	bl	8007068 <_double_byte>
 8004430:	4603      	mov	r3, r0
 8004432:	406b      	eors	r3, r5
 8004434:	b2db      	uxtb	r3, r3
 8004436:	4063      	eors	r3, r4
 8004438:	b2dc      	uxtb	r4, r3
 800443a:	683b      	ldr	r3, [r7, #0]
 800443c:	3303      	adds	r3, #3
 800443e:	781b      	ldrb	r3, [r3, #0]
 8004440:	4618      	mov	r0, r3
 8004442:	f002 fe11 	bl	8007068 <_double_byte>
 8004446:	4603      	mov	r3, r0
 8004448:	4618      	mov	r0, r3
 800444a:	f002 fe0d 	bl	8007068 <_double_byte>
 800444e:	4603      	mov	r3, r0
 8004450:	4618      	mov	r0, r3
 8004452:	f002 fe09 	bl	8007068 <_double_byte>
 8004456:	4603      	mov	r3, r0
 8004458:	461d      	mov	r5, r3
 800445a:	683b      	ldr	r3, [r7, #0]
 800445c:	3303      	adds	r3, #3
 800445e:	781b      	ldrb	r3, [r3, #0]
 8004460:	4618      	mov	r0, r3
 8004462:	f002 fe01 	bl	8007068 <_double_byte>
 8004466:	4603      	mov	r3, r0
 8004468:	406b      	eors	r3, r5
 800446a:	b2da      	uxtb	r2, r3
 800446c:	683b      	ldr	r3, [r7, #0]
 800446e:	3303      	adds	r3, #3
 8004470:	781b      	ldrb	r3, [r3, #0]
 8004472:	4053      	eors	r3, r2
 8004474:	b2da      	uxtb	r2, r3
 8004476:	687b      	ldr	r3, [r7, #4]
 8004478:	3302      	adds	r3, #2
 800447a:	4062      	eors	r2, r4
 800447c:	b2d2      	uxtb	r2, r2
 800447e:	701a      	strb	r2, [r3, #0]
	out[3] = multb(in[0]) ^ multd(in[1]) ^ mult9(in[2]) ^ multe(in[3]);
 8004480:	683b      	ldr	r3, [r7, #0]
 8004482:	781b      	ldrb	r3, [r3, #0]
 8004484:	4618      	mov	r0, r3
 8004486:	f002 fdef 	bl	8007068 <_double_byte>
 800448a:	4603      	mov	r3, r0
 800448c:	4618      	mov	r0, r3
 800448e:	f002 fdeb 	bl	8007068 <_double_byte>
 8004492:	4603      	mov	r3, r0
 8004494:	4618      	mov	r0, r3
 8004496:	f002 fde7 	bl	8007068 <_double_byte>
 800449a:	4603      	mov	r3, r0
 800449c:	461c      	mov	r4, r3
 800449e:	683b      	ldr	r3, [r7, #0]
 80044a0:	781b      	ldrb	r3, [r3, #0]
 80044a2:	4618      	mov	r0, r3
 80044a4:	f002 fde0 	bl	8007068 <_double_byte>
 80044a8:	4603      	mov	r3, r0
 80044aa:	4063      	eors	r3, r4
 80044ac:	b2da      	uxtb	r2, r3
 80044ae:	683b      	ldr	r3, [r7, #0]
 80044b0:	781b      	ldrb	r3, [r3, #0]
 80044b2:	4053      	eors	r3, r2
 80044b4:	b2dc      	uxtb	r4, r3
 80044b6:	683b      	ldr	r3, [r7, #0]
 80044b8:	3301      	adds	r3, #1
 80044ba:	781b      	ldrb	r3, [r3, #0]
 80044bc:	4618      	mov	r0, r3
 80044be:	f002 fdd3 	bl	8007068 <_double_byte>
 80044c2:	4603      	mov	r3, r0
 80044c4:	4618      	mov	r0, r3
 80044c6:	f002 fdcf 	bl	8007068 <_double_byte>
 80044ca:	4603      	mov	r3, r0
 80044cc:	4618      	mov	r0, r3
 80044ce:	f002 fdcb 	bl	8007068 <_double_byte>
 80044d2:	4603      	mov	r3, r0
 80044d4:	461d      	mov	r5, r3
 80044d6:	683b      	ldr	r3, [r7, #0]
 80044d8:	3301      	adds	r3, #1
 80044da:	781b      	ldrb	r3, [r3, #0]
 80044dc:	4618      	mov	r0, r3
 80044de:	f002 fdc3 	bl	8007068 <_double_byte>
 80044e2:	4603      	mov	r3, r0
 80044e4:	4618      	mov	r0, r3
 80044e6:	f002 fdbf 	bl	8007068 <_double_byte>
 80044ea:	4603      	mov	r3, r0
 80044ec:	406b      	eors	r3, r5
 80044ee:	b2da      	uxtb	r2, r3
 80044f0:	683b      	ldr	r3, [r7, #0]
 80044f2:	3301      	adds	r3, #1
 80044f4:	781b      	ldrb	r3, [r3, #0]
 80044f6:	4053      	eors	r3, r2
 80044f8:	b2db      	uxtb	r3, r3
 80044fa:	4063      	eors	r3, r4
 80044fc:	b2dc      	uxtb	r4, r3
 80044fe:	683b      	ldr	r3, [r7, #0]
 8004500:	3302      	adds	r3, #2
 8004502:	781b      	ldrb	r3, [r3, #0]
 8004504:	4618      	mov	r0, r3
 8004506:	f002 fdaf 	bl	8007068 <_double_byte>
 800450a:	4603      	mov	r3, r0
 800450c:	4618      	mov	r0, r3
 800450e:	f002 fdab 	bl	8007068 <_double_byte>
 8004512:	4603      	mov	r3, r0
 8004514:	4618      	mov	r0, r3
 8004516:	f002 fda7 	bl	8007068 <_double_byte>
 800451a:	4603      	mov	r3, r0
 800451c:	461a      	mov	r2, r3
 800451e:	683b      	ldr	r3, [r7, #0]
 8004520:	3302      	adds	r3, #2
 8004522:	781b      	ldrb	r3, [r3, #0]
 8004524:	4053      	eors	r3, r2
 8004526:	b2db      	uxtb	r3, r3
 8004528:	4063      	eors	r3, r4
 800452a:	b2dc      	uxtb	r4, r3
 800452c:	683b      	ldr	r3, [r7, #0]
 800452e:	3303      	adds	r3, #3
 8004530:	781b      	ldrb	r3, [r3, #0]
 8004532:	4618      	mov	r0, r3
 8004534:	f002 fd98 	bl	8007068 <_double_byte>
 8004538:	4603      	mov	r3, r0
 800453a:	4618      	mov	r0, r3
 800453c:	f002 fd94 	bl	8007068 <_double_byte>
 8004540:	4603      	mov	r3, r0
 8004542:	4618      	mov	r0, r3
 8004544:	f002 fd90 	bl	8007068 <_double_byte>
 8004548:	4603      	mov	r3, r0
 800454a:	461d      	mov	r5, r3
 800454c:	683b      	ldr	r3, [r7, #0]
 800454e:	3303      	adds	r3, #3
 8004550:	781b      	ldrb	r3, [r3, #0]
 8004552:	4618      	mov	r0, r3
 8004554:	f002 fd88 	bl	8007068 <_double_byte>
 8004558:	4603      	mov	r3, r0
 800455a:	4618      	mov	r0, r3
 800455c:	f002 fd84 	bl	8007068 <_double_byte>
 8004560:	4603      	mov	r3, r0
 8004562:	406b      	eors	r3, r5
 8004564:	b2dd      	uxtb	r5, r3
 8004566:	683b      	ldr	r3, [r7, #0]
 8004568:	3303      	adds	r3, #3
 800456a:	781b      	ldrb	r3, [r3, #0]
 800456c:	4618      	mov	r0, r3
 800456e:	f002 fd7b 	bl	8007068 <_double_byte>
 8004572:	4603      	mov	r3, r0
 8004574:	406b      	eors	r3, r5
 8004576:	b2da      	uxtb	r2, r3
 8004578:	687b      	ldr	r3, [r7, #4]
 800457a:	3303      	adds	r3, #3
 800457c:	4062      	eors	r2, r4
 800457e:	b2d2      	uxtb	r2, r2
 8004580:	701a      	strb	r2, [r3, #0]
}
 8004582:	bf00      	nop
 8004584:	3708      	adds	r7, #8
 8004586:	46bd      	mov	sp, r7
 8004588:	bdb0      	pop	{r4, r5, r7, pc}

0800458a <inv_mix_columns>:

static inline void inv_mix_columns(uint8_t *s)
{
 800458a:	b580      	push	{r7, lr}
 800458c:	b086      	sub	sp, #24
 800458e:	af00      	add	r7, sp, #0
 8004590:	6078      	str	r0, [r7, #4]
	uint8_t t[Nb*Nk];

	mult_row_column(t, s);
 8004592:	f107 0308 	add.w	r3, r7, #8
 8004596:	6879      	ldr	r1, [r7, #4]
 8004598:	4618      	mov	r0, r3
 800459a:	f7ff fde9 	bl	8004170 <mult_row_column>
	mult_row_column(&t[Nb], s+Nb);
 800459e:	687b      	ldr	r3, [r7, #4]
 80045a0:	1d1a      	adds	r2, r3, #4
 80045a2:	f107 0308 	add.w	r3, r7, #8
 80045a6:	3304      	adds	r3, #4
 80045a8:	4611      	mov	r1, r2
 80045aa:	4618      	mov	r0, r3
 80045ac:	f7ff fde0 	bl	8004170 <mult_row_column>
	mult_row_column(&t[2*Nb], s+(2*Nb));
 80045b0:	687b      	ldr	r3, [r7, #4]
 80045b2:	f103 0208 	add.w	r2, r3, #8
 80045b6:	f107 0308 	add.w	r3, r7, #8
 80045ba:	3308      	adds	r3, #8
 80045bc:	4611      	mov	r1, r2
 80045be:	4618      	mov	r0, r3
 80045c0:	f7ff fdd6 	bl	8004170 <mult_row_column>
	mult_row_column(&t[3*Nb], s+(3*Nb));
 80045c4:	687b      	ldr	r3, [r7, #4]
 80045c6:	f103 020c 	add.w	r2, r3, #12
 80045ca:	f107 0308 	add.w	r3, r7, #8
 80045ce:	330c      	adds	r3, #12
 80045d0:	4611      	mov	r1, r2
 80045d2:	4618      	mov	r0, r3
 80045d4:	f7ff fdcc 	bl	8004170 <mult_row_column>
	(void)_copy(s, sizeof(t), t, sizeof(t));
 80045d8:	f107 0208 	add.w	r2, r7, #8
 80045dc:	2310      	movs	r3, #16
 80045de:	2110      	movs	r1, #16
 80045e0:	6878      	ldr	r0, [r7, #4]
 80045e2:	f002 fd19 	bl	8007018 <_copy>
}
 80045e6:	bf00      	nop
 80045e8:	3718      	adds	r7, #24
 80045ea:	46bd      	mov	sp, r7
 80045ec:	bd80      	pop	{r7, pc}

080045ee <add_round_key>:

static inline void add_round_key(uint8_t *s, const unsigned int *k)
{
 80045ee:	b480      	push	{r7}
 80045f0:	b083      	sub	sp, #12
 80045f2:	af00      	add	r7, sp, #0
 80045f4:	6078      	str	r0, [r7, #4]
 80045f6:	6039      	str	r1, [r7, #0]
	s[0] ^= (uint8_t)(k[0] >> 24); s[1] ^= (uint8_t)(k[0] >> 16);
 80045f8:	687b      	ldr	r3, [r7, #4]
 80045fa:	781a      	ldrb	r2, [r3, #0]
 80045fc:	683b      	ldr	r3, [r7, #0]
 80045fe:	681b      	ldr	r3, [r3, #0]
 8004600:	0e1b      	lsrs	r3, r3, #24
 8004602:	b2db      	uxtb	r3, r3
 8004604:	4053      	eors	r3, r2
 8004606:	b2da      	uxtb	r2, r3
 8004608:	687b      	ldr	r3, [r7, #4]
 800460a:	701a      	strb	r2, [r3, #0]
 800460c:	687b      	ldr	r3, [r7, #4]
 800460e:	3301      	adds	r3, #1
 8004610:	7819      	ldrb	r1, [r3, #0]
 8004612:	683b      	ldr	r3, [r7, #0]
 8004614:	681b      	ldr	r3, [r3, #0]
 8004616:	0c1b      	lsrs	r3, r3, #16
 8004618:	b2da      	uxtb	r2, r3
 800461a:	687b      	ldr	r3, [r7, #4]
 800461c:	3301      	adds	r3, #1
 800461e:	404a      	eors	r2, r1
 8004620:	b2d2      	uxtb	r2, r2
 8004622:	701a      	strb	r2, [r3, #0]
	s[2] ^= (uint8_t)(k[0] >> 8); s[3] ^= (uint8_t)(k[0]);
 8004624:	687b      	ldr	r3, [r7, #4]
 8004626:	3302      	adds	r3, #2
 8004628:	7819      	ldrb	r1, [r3, #0]
 800462a:	683b      	ldr	r3, [r7, #0]
 800462c:	681b      	ldr	r3, [r3, #0]
 800462e:	0a1b      	lsrs	r3, r3, #8
 8004630:	b2da      	uxtb	r2, r3
 8004632:	687b      	ldr	r3, [r7, #4]
 8004634:	3302      	adds	r3, #2
 8004636:	404a      	eors	r2, r1
 8004638:	b2d2      	uxtb	r2, r2
 800463a:	701a      	strb	r2, [r3, #0]
 800463c:	687b      	ldr	r3, [r7, #4]
 800463e:	3303      	adds	r3, #3
 8004640:	7819      	ldrb	r1, [r3, #0]
 8004642:	683b      	ldr	r3, [r7, #0]
 8004644:	681b      	ldr	r3, [r3, #0]
 8004646:	b2da      	uxtb	r2, r3
 8004648:	687b      	ldr	r3, [r7, #4]
 800464a:	3303      	adds	r3, #3
 800464c:	404a      	eors	r2, r1
 800464e:	b2d2      	uxtb	r2, r2
 8004650:	701a      	strb	r2, [r3, #0]
	s[4] ^= (uint8_t)(k[1] >> 24); s[5] ^= (uint8_t)(k[1] >> 16);
 8004652:	687b      	ldr	r3, [r7, #4]
 8004654:	3304      	adds	r3, #4
 8004656:	7819      	ldrb	r1, [r3, #0]
 8004658:	683b      	ldr	r3, [r7, #0]
 800465a:	3304      	adds	r3, #4
 800465c:	681b      	ldr	r3, [r3, #0]
 800465e:	0e1b      	lsrs	r3, r3, #24
 8004660:	b2da      	uxtb	r2, r3
 8004662:	687b      	ldr	r3, [r7, #4]
 8004664:	3304      	adds	r3, #4
 8004666:	404a      	eors	r2, r1
 8004668:	b2d2      	uxtb	r2, r2
 800466a:	701a      	strb	r2, [r3, #0]
 800466c:	687b      	ldr	r3, [r7, #4]
 800466e:	3305      	adds	r3, #5
 8004670:	7819      	ldrb	r1, [r3, #0]
 8004672:	683b      	ldr	r3, [r7, #0]
 8004674:	3304      	adds	r3, #4
 8004676:	681b      	ldr	r3, [r3, #0]
 8004678:	0c1b      	lsrs	r3, r3, #16
 800467a:	b2da      	uxtb	r2, r3
 800467c:	687b      	ldr	r3, [r7, #4]
 800467e:	3305      	adds	r3, #5
 8004680:	404a      	eors	r2, r1
 8004682:	b2d2      	uxtb	r2, r2
 8004684:	701a      	strb	r2, [r3, #0]
	s[6] ^= (uint8_t)(k[1] >> 8); s[7] ^= (uint8_t)(k[1]);
 8004686:	687b      	ldr	r3, [r7, #4]
 8004688:	3306      	adds	r3, #6
 800468a:	7819      	ldrb	r1, [r3, #0]
 800468c:	683b      	ldr	r3, [r7, #0]
 800468e:	3304      	adds	r3, #4
 8004690:	681b      	ldr	r3, [r3, #0]
 8004692:	0a1b      	lsrs	r3, r3, #8
 8004694:	b2da      	uxtb	r2, r3
 8004696:	687b      	ldr	r3, [r7, #4]
 8004698:	3306      	adds	r3, #6
 800469a:	404a      	eors	r2, r1
 800469c:	b2d2      	uxtb	r2, r2
 800469e:	701a      	strb	r2, [r3, #0]
 80046a0:	687b      	ldr	r3, [r7, #4]
 80046a2:	3307      	adds	r3, #7
 80046a4:	7819      	ldrb	r1, [r3, #0]
 80046a6:	683b      	ldr	r3, [r7, #0]
 80046a8:	3304      	adds	r3, #4
 80046aa:	681b      	ldr	r3, [r3, #0]
 80046ac:	b2da      	uxtb	r2, r3
 80046ae:	687b      	ldr	r3, [r7, #4]
 80046b0:	3307      	adds	r3, #7
 80046b2:	404a      	eors	r2, r1
 80046b4:	b2d2      	uxtb	r2, r2
 80046b6:	701a      	strb	r2, [r3, #0]
	s[8] ^= (uint8_t)(k[2] >> 24); s[9] ^= (uint8_t)(k[2] >> 16);
 80046b8:	687b      	ldr	r3, [r7, #4]
 80046ba:	3308      	adds	r3, #8
 80046bc:	7819      	ldrb	r1, [r3, #0]
 80046be:	683b      	ldr	r3, [r7, #0]
 80046c0:	3308      	adds	r3, #8
 80046c2:	681b      	ldr	r3, [r3, #0]
 80046c4:	0e1b      	lsrs	r3, r3, #24
 80046c6:	b2da      	uxtb	r2, r3
 80046c8:	687b      	ldr	r3, [r7, #4]
 80046ca:	3308      	adds	r3, #8
 80046cc:	404a      	eors	r2, r1
 80046ce:	b2d2      	uxtb	r2, r2
 80046d0:	701a      	strb	r2, [r3, #0]
 80046d2:	687b      	ldr	r3, [r7, #4]
 80046d4:	3309      	adds	r3, #9
 80046d6:	7819      	ldrb	r1, [r3, #0]
 80046d8:	683b      	ldr	r3, [r7, #0]
 80046da:	3308      	adds	r3, #8
 80046dc:	681b      	ldr	r3, [r3, #0]
 80046de:	0c1b      	lsrs	r3, r3, #16
 80046e0:	b2da      	uxtb	r2, r3
 80046e2:	687b      	ldr	r3, [r7, #4]
 80046e4:	3309      	adds	r3, #9
 80046e6:	404a      	eors	r2, r1
 80046e8:	b2d2      	uxtb	r2, r2
 80046ea:	701a      	strb	r2, [r3, #0]
	s[10] ^= (uint8_t)(k[2] >> 8); s[11] ^= (uint8_t)(k[2]);
 80046ec:	687b      	ldr	r3, [r7, #4]
 80046ee:	330a      	adds	r3, #10
 80046f0:	7819      	ldrb	r1, [r3, #0]
 80046f2:	683b      	ldr	r3, [r7, #0]
 80046f4:	3308      	adds	r3, #8
 80046f6:	681b      	ldr	r3, [r3, #0]
 80046f8:	0a1b      	lsrs	r3, r3, #8
 80046fa:	b2da      	uxtb	r2, r3
 80046fc:	687b      	ldr	r3, [r7, #4]
 80046fe:	330a      	adds	r3, #10
 8004700:	404a      	eors	r2, r1
 8004702:	b2d2      	uxtb	r2, r2
 8004704:	701a      	strb	r2, [r3, #0]
 8004706:	687b      	ldr	r3, [r7, #4]
 8004708:	330b      	adds	r3, #11
 800470a:	7819      	ldrb	r1, [r3, #0]
 800470c:	683b      	ldr	r3, [r7, #0]
 800470e:	3308      	adds	r3, #8
 8004710:	681b      	ldr	r3, [r3, #0]
 8004712:	b2da      	uxtb	r2, r3
 8004714:	687b      	ldr	r3, [r7, #4]
 8004716:	330b      	adds	r3, #11
 8004718:	404a      	eors	r2, r1
 800471a:	b2d2      	uxtb	r2, r2
 800471c:	701a      	strb	r2, [r3, #0]
	s[12] ^= (uint8_t)(k[3] >> 24); s[13] ^= (uint8_t)(k[3] >> 16);
 800471e:	687b      	ldr	r3, [r7, #4]
 8004720:	330c      	adds	r3, #12
 8004722:	7819      	ldrb	r1, [r3, #0]
 8004724:	683b      	ldr	r3, [r7, #0]
 8004726:	330c      	adds	r3, #12
 8004728:	681b      	ldr	r3, [r3, #0]
 800472a:	0e1b      	lsrs	r3, r3, #24
 800472c:	b2da      	uxtb	r2, r3
 800472e:	687b      	ldr	r3, [r7, #4]
 8004730:	330c      	adds	r3, #12
 8004732:	404a      	eors	r2, r1
 8004734:	b2d2      	uxtb	r2, r2
 8004736:	701a      	strb	r2, [r3, #0]
 8004738:	687b      	ldr	r3, [r7, #4]
 800473a:	330d      	adds	r3, #13
 800473c:	7819      	ldrb	r1, [r3, #0]
 800473e:	683b      	ldr	r3, [r7, #0]
 8004740:	330c      	adds	r3, #12
 8004742:	681b      	ldr	r3, [r3, #0]
 8004744:	0c1b      	lsrs	r3, r3, #16
 8004746:	b2da      	uxtb	r2, r3
 8004748:	687b      	ldr	r3, [r7, #4]
 800474a:	330d      	adds	r3, #13
 800474c:	404a      	eors	r2, r1
 800474e:	b2d2      	uxtb	r2, r2
 8004750:	701a      	strb	r2, [r3, #0]
	s[14] ^= (uint8_t)(k[3] >> 8); s[15] ^= (uint8_t)(k[3]);
 8004752:	687b      	ldr	r3, [r7, #4]
 8004754:	330e      	adds	r3, #14
 8004756:	7819      	ldrb	r1, [r3, #0]
 8004758:	683b      	ldr	r3, [r7, #0]
 800475a:	330c      	adds	r3, #12
 800475c:	681b      	ldr	r3, [r3, #0]
 800475e:	0a1b      	lsrs	r3, r3, #8
 8004760:	b2da      	uxtb	r2, r3
 8004762:	687b      	ldr	r3, [r7, #4]
 8004764:	330e      	adds	r3, #14
 8004766:	404a      	eors	r2, r1
 8004768:	b2d2      	uxtb	r2, r2
 800476a:	701a      	strb	r2, [r3, #0]
 800476c:	687b      	ldr	r3, [r7, #4]
 800476e:	330f      	adds	r3, #15
 8004770:	7819      	ldrb	r1, [r3, #0]
 8004772:	683b      	ldr	r3, [r7, #0]
 8004774:	330c      	adds	r3, #12
 8004776:	681b      	ldr	r3, [r3, #0]
 8004778:	b2da      	uxtb	r2, r3
 800477a:	687b      	ldr	r3, [r7, #4]
 800477c:	330f      	adds	r3, #15
 800477e:	404a      	eors	r2, r1
 8004780:	b2d2      	uxtb	r2, r2
 8004782:	701a      	strb	r2, [r3, #0]
}
 8004784:	bf00      	nop
 8004786:	370c      	adds	r7, #12
 8004788:	46bd      	mov	sp, r7
 800478a:	f85d 7b04 	ldr.w	r7, [sp], #4
 800478e:	4770      	bx	lr

08004790 <inv_sub_bytes>:

static inline void inv_sub_bytes(uint8_t *s)
{
 8004790:	b480      	push	{r7}
 8004792:	b085      	sub	sp, #20
 8004794:	af00      	add	r7, sp, #0
 8004796:	6078      	str	r0, [r7, #4]
	unsigned int i;

	for (i = 0; i < (Nb*Nk); ++i) {
 8004798:	2300      	movs	r3, #0
 800479a:	60fb      	str	r3, [r7, #12]
 800479c:	e00d      	b.n	80047ba <inv_sub_bytes+0x2a>
		s[i] = inv_sbox[s[i]];
 800479e:	687a      	ldr	r2, [r7, #4]
 80047a0:	68fb      	ldr	r3, [r7, #12]
 80047a2:	4413      	add	r3, r2
 80047a4:	781b      	ldrb	r3, [r3, #0]
 80047a6:	4619      	mov	r1, r3
 80047a8:	687a      	ldr	r2, [r7, #4]
 80047aa:	68fb      	ldr	r3, [r7, #12]
 80047ac:	4413      	add	r3, r2
 80047ae:	4a08      	ldr	r2, [pc, #32]	@ (80047d0 <inv_sub_bytes+0x40>)
 80047b0:	5c52      	ldrb	r2, [r2, r1]
 80047b2:	701a      	strb	r2, [r3, #0]
	for (i = 0; i < (Nb*Nk); ++i) {
 80047b4:	68fb      	ldr	r3, [r7, #12]
 80047b6:	3301      	adds	r3, #1
 80047b8:	60fb      	str	r3, [r7, #12]
 80047ba:	68fb      	ldr	r3, [r7, #12]
 80047bc:	2b0f      	cmp	r3, #15
 80047be:	d9ee      	bls.n	800479e <inv_sub_bytes+0xe>
	}
}
 80047c0:	bf00      	nop
 80047c2:	bf00      	nop
 80047c4:	3714      	adds	r7, #20
 80047c6:	46bd      	mov	sp, r7
 80047c8:	f85d 7b04 	ldr.w	r7, [sp], #4
 80047cc:	4770      	bx	lr
 80047ce:	bf00      	nop
 80047d0:	08007b4c 	.word	0x08007b4c

080047d4 <inv_shift_rows>:
 * This inv_shift_rows also implements the matrix flip required for
 * inv_mix_columns, but performs it here to reduce the number of memory
 * operations.
 */
static inline void inv_shift_rows(uint8_t *s)
{
 80047d4:	b580      	push	{r7, lr}
 80047d6:	b086      	sub	sp, #24
 80047d8:	af00      	add	r7, sp, #0
 80047da:	6078      	str	r0, [r7, #4]
	uint8_t t[Nb*Nk];

	t[0]  = s[0]; t[1] = s[13]; t[2] = s[10]; t[3] = s[7];
 80047dc:	687b      	ldr	r3, [r7, #4]
 80047de:	781b      	ldrb	r3, [r3, #0]
 80047e0:	723b      	strb	r3, [r7, #8]
 80047e2:	687b      	ldr	r3, [r7, #4]
 80047e4:	7b5b      	ldrb	r3, [r3, #13]
 80047e6:	727b      	strb	r3, [r7, #9]
 80047e8:	687b      	ldr	r3, [r7, #4]
 80047ea:	7a9b      	ldrb	r3, [r3, #10]
 80047ec:	72bb      	strb	r3, [r7, #10]
 80047ee:	687b      	ldr	r3, [r7, #4]
 80047f0:	79db      	ldrb	r3, [r3, #7]
 80047f2:	72fb      	strb	r3, [r7, #11]
	t[4]  = s[4]; t[5] = s[1]; t[6] = s[14]; t[7] = s[11];
 80047f4:	687b      	ldr	r3, [r7, #4]
 80047f6:	791b      	ldrb	r3, [r3, #4]
 80047f8:	733b      	strb	r3, [r7, #12]
 80047fa:	687b      	ldr	r3, [r7, #4]
 80047fc:	785b      	ldrb	r3, [r3, #1]
 80047fe:	737b      	strb	r3, [r7, #13]
 8004800:	687b      	ldr	r3, [r7, #4]
 8004802:	7b9b      	ldrb	r3, [r3, #14]
 8004804:	73bb      	strb	r3, [r7, #14]
 8004806:	687b      	ldr	r3, [r7, #4]
 8004808:	7adb      	ldrb	r3, [r3, #11]
 800480a:	73fb      	strb	r3, [r7, #15]
	t[8]  = s[8]; t[9] = s[5]; t[10] = s[2]; t[11] = s[15];
 800480c:	687b      	ldr	r3, [r7, #4]
 800480e:	7a1b      	ldrb	r3, [r3, #8]
 8004810:	743b      	strb	r3, [r7, #16]
 8004812:	687b      	ldr	r3, [r7, #4]
 8004814:	795b      	ldrb	r3, [r3, #5]
 8004816:	747b      	strb	r3, [r7, #17]
 8004818:	687b      	ldr	r3, [r7, #4]
 800481a:	789b      	ldrb	r3, [r3, #2]
 800481c:	74bb      	strb	r3, [r7, #18]
 800481e:	687b      	ldr	r3, [r7, #4]
 8004820:	7bdb      	ldrb	r3, [r3, #15]
 8004822:	74fb      	strb	r3, [r7, #19]
	t[12] = s[12]; t[13] = s[9]; t[14] = s[6]; t[15] = s[3];
 8004824:	687b      	ldr	r3, [r7, #4]
 8004826:	7b1b      	ldrb	r3, [r3, #12]
 8004828:	753b      	strb	r3, [r7, #20]
 800482a:	687b      	ldr	r3, [r7, #4]
 800482c:	7a5b      	ldrb	r3, [r3, #9]
 800482e:	757b      	strb	r3, [r7, #21]
 8004830:	687b      	ldr	r3, [r7, #4]
 8004832:	799b      	ldrb	r3, [r3, #6]
 8004834:	75bb      	strb	r3, [r7, #22]
 8004836:	687b      	ldr	r3, [r7, #4]
 8004838:	78db      	ldrb	r3, [r3, #3]
 800483a:	75fb      	strb	r3, [r7, #23]
	(void)_copy(s, sizeof(t), t, sizeof(t));
 800483c:	f107 0208 	add.w	r2, r7, #8
 8004840:	2310      	movs	r3, #16
 8004842:	2110      	movs	r1, #16
 8004844:	6878      	ldr	r0, [r7, #4]
 8004846:	f002 fbe7 	bl	8007018 <_copy>
}
 800484a:	bf00      	nop
 800484c:	3718      	adds	r7, #24
 800484e:	46bd      	mov	sp, r7
 8004850:	bd80      	pop	{r7, pc}

08004852 <tc_aes_decrypt>:

int tc_aes_decrypt(uint8_t *out, const uint8_t *in, const TCAesKeySched_t s)
{
 8004852:	b580      	push	{r7, lr}
 8004854:	b08a      	sub	sp, #40	@ 0x28
 8004856:	af00      	add	r7, sp, #0
 8004858:	60f8      	str	r0, [r7, #12]
 800485a:	60b9      	str	r1, [r7, #8]
 800485c:	607a      	str	r2, [r7, #4]
	uint8_t state[Nk*Nb];
	unsigned int i;

	if (out == (uint8_t *) 0) {
 800485e:	68fb      	ldr	r3, [r7, #12]
 8004860:	2b00      	cmp	r3, #0
 8004862:	d101      	bne.n	8004868 <tc_aes_decrypt+0x16>
		return TC_CRYPTO_FAIL;
 8004864:	2300      	movs	r3, #0
 8004866:	e05b      	b.n	8004920 <tc_aes_decrypt+0xce>
	} else if (in == (const uint8_t *) 0) {
 8004868:	68bb      	ldr	r3, [r7, #8]
 800486a:	2b00      	cmp	r3, #0
 800486c:	d101      	bne.n	8004872 <tc_aes_decrypt+0x20>
		return TC_CRYPTO_FAIL;
 800486e:	2300      	movs	r3, #0
 8004870:	e056      	b.n	8004920 <tc_aes_decrypt+0xce>
	} else if (s == (TCAesKeySched_t) 0) {
 8004872:	687b      	ldr	r3, [r7, #4]
 8004874:	2b00      	cmp	r3, #0
 8004876:	d101      	bne.n	800487c <tc_aes_decrypt+0x2a>
		return TC_CRYPTO_FAIL;
 8004878:	2300      	movs	r3, #0
 800487a:	e051      	b.n	8004920 <tc_aes_decrypt+0xce>
	}

	(void)_copy(state, sizeof(state), in, sizeof(state));
 800487c:	f107 0014 	add.w	r0, r7, #20
 8004880:	2310      	movs	r3, #16
 8004882:	68ba      	ldr	r2, [r7, #8]
 8004884:	2110      	movs	r1, #16
 8004886:	f002 fbc7 	bl	8007018 <_copy>

	add_round_key(state, s->words + Nb*Nr);
 800488a:	687b      	ldr	r3, [r7, #4]
 800488c:	f103 02a0 	add.w	r2, r3, #160	@ 0xa0
 8004890:	f107 0314 	add.w	r3, r7, #20
 8004894:	4611      	mov	r1, r2
 8004896:	4618      	mov	r0, r3
 8004898:	f7ff fea9 	bl	80045ee <add_round_key>

	for (i = Nr - 1; i > 0; --i) {
 800489c:	2309      	movs	r3, #9
 800489e:	627b      	str	r3, [r7, #36]	@ 0x24
 80048a0:	e01b      	b.n	80048da <tc_aes_decrypt+0x88>
		inv_shift_rows(state);
 80048a2:	f107 0314 	add.w	r3, r7, #20
 80048a6:	4618      	mov	r0, r3
 80048a8:	f7ff ff94 	bl	80047d4 <inv_shift_rows>
		inv_sub_bytes(state);
 80048ac:	f107 0314 	add.w	r3, r7, #20
 80048b0:	4618      	mov	r0, r3
 80048b2:	f7ff ff6d 	bl	8004790 <inv_sub_bytes>
		add_round_key(state, s->words + Nb*i);
 80048b6:	687a      	ldr	r2, [r7, #4]
 80048b8:	6a7b      	ldr	r3, [r7, #36]	@ 0x24
 80048ba:	011b      	lsls	r3, r3, #4
 80048bc:	441a      	add	r2, r3
 80048be:	f107 0314 	add.w	r3, r7, #20
 80048c2:	4611      	mov	r1, r2
 80048c4:	4618      	mov	r0, r3
 80048c6:	f7ff fe92 	bl	80045ee <add_round_key>
		inv_mix_columns(state);
 80048ca:	f107 0314 	add.w	r3, r7, #20
 80048ce:	4618      	mov	r0, r3
 80048d0:	f7ff fe5b 	bl	800458a <inv_mix_columns>
	for (i = Nr - 1; i > 0; --i) {
 80048d4:	6a7b      	ldr	r3, [r7, #36]	@ 0x24
 80048d6:	3b01      	subs	r3, #1
 80048d8:	627b      	str	r3, [r7, #36]	@ 0x24
 80048da:	6a7b      	ldr	r3, [r7, #36]	@ 0x24
 80048dc:	2b00      	cmp	r3, #0
 80048de:	d1e0      	bne.n	80048a2 <tc_aes_decrypt+0x50>
	}

	inv_shift_rows(state);
 80048e0:	f107 0314 	add.w	r3, r7, #20
 80048e4:	4618      	mov	r0, r3
 80048e6:	f7ff ff75 	bl	80047d4 <inv_shift_rows>
	inv_sub_bytes(state);
 80048ea:	f107 0314 	add.w	r3, r7, #20
 80048ee:	4618      	mov	r0, r3
 80048f0:	f7ff ff4e 	bl	8004790 <inv_sub_bytes>
	add_round_key(state, s->words);
 80048f4:	687a      	ldr	r2, [r7, #4]
 80048f6:	f107 0314 	add.w	r3, r7, #20
 80048fa:	4611      	mov	r1, r2
 80048fc:	4618      	mov	r0, r3
 80048fe:	f7ff fe76 	bl	80045ee <add_round_key>

	(void)_copy(out, sizeof(state), state, sizeof(state));
 8004902:	f107 0214 	add.w	r2, r7, #20
 8004906:	2310      	movs	r3, #16
 8004908:	2110      	movs	r1, #16
 800490a:	68f8      	ldr	r0, [r7, #12]
 800490c:	f002 fb84 	bl	8007018 <_copy>

	/*zeroing out the state buffer */
	_set(state, TC_ZERO_BYTE, sizeof(state));
 8004910:	f107 0314 	add.w	r3, r7, #20
 8004914:	2210      	movs	r2, #16
 8004916:	2100      	movs	r1, #0
 8004918:	4618      	mov	r0, r3
 800491a:	f002 fb94 	bl	8007046 <_set>


	return TC_CRYPTO_SUCCESS;
 800491e:	2301      	movs	r3, #1
}
 8004920:	4618      	mov	r0, r3
 8004922:	3728      	adds	r7, #40	@ 0x28
 8004924:	46bd      	mov	sp, r7
 8004926:	bd80      	pop	{r7, pc}

08004928 <rotword>:
	0x8c, 0xa1, 0x89, 0x0d, 0xbf, 0xe6, 0x42, 0x68, 0x41, 0x99, 0x2d, 0x0f,
	0xb0, 0x54, 0xbb, 0x16
};

static inline unsigned int rotword(unsigned int a)
{
 8004928:	b480      	push	{r7}
 800492a:	b083      	sub	sp, #12
 800492c:	af00      	add	r7, sp, #0
 800492e:	6078      	str	r0, [r7, #4]
	return (((a) >> 24)|((a) << 8));
 8004930:	687b      	ldr	r3, [r7, #4]
 8004932:	ea4f 6333 	mov.w	r3, r3, ror #24
}
 8004936:	4618      	mov	r0, r3
 8004938:	370c      	adds	r7, #12
 800493a:	46bd      	mov	sp, r7
 800493c:	f85d 7b04 	ldr.w	r7, [sp], #4
 8004940:	4770      	bx	lr
	...

08004944 <tc_aes128_set_encrypt_key>:

#define subbyte(a, o)(sbox[((a) >> (o))&0xff] << (o))
#define subword(a)(subbyte(a, 24)|subbyte(a, 16)|subbyte(a, 8)|subbyte(a, 0))

int tc_aes128_set_encrypt_key(TCAesKeySched_t s, const uint8_t *k)
{
 8004944:	b5b0      	push	{r4, r5, r7, lr}
 8004946:	b090      	sub	sp, #64	@ 0x40
 8004948:	af00      	add	r7, sp, #0
 800494a:	6078      	str	r0, [r7, #4]
 800494c:	6039      	str	r1, [r7, #0]
	const unsigned int rconst[11] = {
 800494e:	4b49      	ldr	r3, [pc, #292]	@ (8004a74 <tc_aes128_set_encrypt_key+0x130>)
 8004950:	f107 040c 	add.w	r4, r7, #12
 8004954:	461d      	mov	r5, r3
 8004956:	cd0f      	ldmia	r5!, {r0, r1, r2, r3}
 8004958:	c40f      	stmia	r4!, {r0, r1, r2, r3}
 800495a:	cd0f      	ldmia	r5!, {r0, r1, r2, r3}
 800495c:	c40f      	stmia	r4!, {r0, r1, r2, r3}
 800495e:	e895 0007 	ldmia.w	r5, {r0, r1, r2}
 8004962:	e884 0007 	stmia.w	r4, {r0, r1, r2}
		0x20000000, 0x40000000, 0x80000000, 0x1b000000, 0x36000000
	};
	unsigned int i;
	unsigned int t;

	if (s == (TCAesKeySched_t) 0) {
 8004966:	687b      	ldr	r3, [r7, #4]
 8004968:	2b00      	cmp	r3, #0
 800496a:	d101      	bne.n	8004970 <tc_aes128_set_encrypt_key+0x2c>
		return TC_CRYPTO_FAIL;
 800496c:	2300      	movs	r3, #0
 800496e:	e07d      	b.n	8004a6c <tc_aes128_set_encrypt_key+0x128>
	} else if (k == (const uint8_t *) 0) {
 8004970:	683b      	ldr	r3, [r7, #0]
 8004972:	2b00      	cmp	r3, #0
 8004974:	d101      	bne.n	800497a <tc_aes128_set_encrypt_key+0x36>
		return TC_CRYPTO_FAIL;
 8004976:	2300      	movs	r3, #0
 8004978:	e078      	b.n	8004a6c <tc_aes128_set_encrypt_key+0x128>
	}

	for (i = 0; i < Nk; ++i) {
 800497a:	2300      	movs	r3, #0
 800497c:	63fb      	str	r3, [r7, #60]	@ 0x3c
 800497e:	e024      	b.n	80049ca <tc_aes128_set_encrypt_key+0x86>
		s->words[i] = (k[Nb*i]<<24) | (k[Nb*i+1]<<16) |
 8004980:	6bfb      	ldr	r3, [r7, #60]	@ 0x3c
 8004982:	009b      	lsls	r3, r3, #2
 8004984:	683a      	ldr	r2, [r7, #0]
 8004986:	4413      	add	r3, r2
 8004988:	781b      	ldrb	r3, [r3, #0]
 800498a:	061a      	lsls	r2, r3, #24
 800498c:	6bfb      	ldr	r3, [r7, #60]	@ 0x3c
 800498e:	009b      	lsls	r3, r3, #2
 8004990:	3301      	adds	r3, #1
 8004992:	6839      	ldr	r1, [r7, #0]
 8004994:	440b      	add	r3, r1
 8004996:	781b      	ldrb	r3, [r3, #0]
 8004998:	041b      	lsls	r3, r3, #16
 800499a:	431a      	orrs	r2, r3
			      (k[Nb*i+2]<<8) | (k[Nb*i+3]);
 800499c:	6bfb      	ldr	r3, [r7, #60]	@ 0x3c
 800499e:	009b      	lsls	r3, r3, #2
 80049a0:	3302      	adds	r3, #2
 80049a2:	6839      	ldr	r1, [r7, #0]
 80049a4:	440b      	add	r3, r1
 80049a6:	781b      	ldrb	r3, [r3, #0]
 80049a8:	021b      	lsls	r3, r3, #8
		s->words[i] = (k[Nb*i]<<24) | (k[Nb*i+1]<<16) |
 80049aa:	4313      	orrs	r3, r2
			      (k[Nb*i+2]<<8) | (k[Nb*i+3]);
 80049ac:	6bfa      	ldr	r2, [r7, #60]	@ 0x3c
 80049ae:	0092      	lsls	r2, r2, #2
 80049b0:	3203      	adds	r2, #3
 80049b2:	6839      	ldr	r1, [r7, #0]
 80049b4:	440a      	add	r2, r1
 80049b6:	7812      	ldrb	r2, [r2, #0]
 80049b8:	4313      	orrs	r3, r2
 80049ba:	4619      	mov	r1, r3
		s->words[i] = (k[Nb*i]<<24) | (k[Nb*i+1]<<16) |
 80049bc:	687b      	ldr	r3, [r7, #4]
 80049be:	6bfa      	ldr	r2, [r7, #60]	@ 0x3c
 80049c0:	f843 1022 	str.w	r1, [r3, r2, lsl #2]
	for (i = 0; i < Nk; ++i) {
 80049c4:	6bfb      	ldr	r3, [r7, #60]	@ 0x3c
 80049c6:	3301      	adds	r3, #1
 80049c8:	63fb      	str	r3, [r7, #60]	@ 0x3c
 80049ca:	6bfb      	ldr	r3, [r7, #60]	@ 0x3c
 80049cc:	2b03      	cmp	r3, #3
 80049ce:	d9d7      	bls.n	8004980 <tc_aes128_set_encrypt_key+0x3c>
	}

	for (; i < (Nb * (Nr + 1)); ++i) {
 80049d0:	e048      	b.n	8004a64 <tc_aes128_set_encrypt_key+0x120>
		t = s->words[i-1];
 80049d2:	6bfb      	ldr	r3, [r7, #60]	@ 0x3c
 80049d4:	1e5a      	subs	r2, r3, #1
 80049d6:	687b      	ldr	r3, [r7, #4]
 80049d8:	f853 3022 	ldr.w	r3, [r3, r2, lsl #2]
 80049dc:	63bb      	str	r3, [r7, #56]	@ 0x38
		if ((i % Nk) == 0) {
 80049de:	6bfb      	ldr	r3, [r7, #60]	@ 0x3c
 80049e0:	f003 0303 	and.w	r3, r3, #3
 80049e4:	2b00      	cmp	r3, #0
 80049e6:	d12e      	bne.n	8004a46 <tc_aes128_set_encrypt_key+0x102>
			t = subword(rotword(t)) ^ rconst[i/Nk];
 80049e8:	6bb8      	ldr	r0, [r7, #56]	@ 0x38
 80049ea:	f7ff ff9d 	bl	8004928 <rotword>
 80049ee:	4603      	mov	r3, r0
 80049f0:	0e1b      	lsrs	r3, r3, #24
 80049f2:	b2db      	uxtb	r3, r3
 80049f4:	4a20      	ldr	r2, [pc, #128]	@ (8004a78 <tc_aes128_set_encrypt_key+0x134>)
 80049f6:	5cd3      	ldrb	r3, [r2, r3]
 80049f8:	061c      	lsls	r4, r3, #24
 80049fa:	6bb8      	ldr	r0, [r7, #56]	@ 0x38
 80049fc:	f7ff ff94 	bl	8004928 <rotword>
 8004a00:	4603      	mov	r3, r0
 8004a02:	0c1b      	lsrs	r3, r3, #16
 8004a04:	b2db      	uxtb	r3, r3
 8004a06:	4a1c      	ldr	r2, [pc, #112]	@ (8004a78 <tc_aes128_set_encrypt_key+0x134>)
 8004a08:	5cd3      	ldrb	r3, [r2, r3]
 8004a0a:	041b      	lsls	r3, r3, #16
 8004a0c:	431c      	orrs	r4, r3
 8004a0e:	6bb8      	ldr	r0, [r7, #56]	@ 0x38
 8004a10:	f7ff ff8a 	bl	8004928 <rotword>
 8004a14:	4603      	mov	r3, r0
 8004a16:	0a1b      	lsrs	r3, r3, #8
 8004a18:	b2db      	uxtb	r3, r3
 8004a1a:	4a17      	ldr	r2, [pc, #92]	@ (8004a78 <tc_aes128_set_encrypt_key+0x134>)
 8004a1c:	5cd3      	ldrb	r3, [r2, r3]
 8004a1e:	021b      	lsls	r3, r3, #8
 8004a20:	431c      	orrs	r4, r3
 8004a22:	6bb8      	ldr	r0, [r7, #56]	@ 0x38
 8004a24:	f7ff ff80 	bl	8004928 <rotword>
 8004a28:	4603      	mov	r3, r0
 8004a2a:	b2db      	uxtb	r3, r3
 8004a2c:	4a12      	ldr	r2, [pc, #72]	@ (8004a78 <tc_aes128_set_encrypt_key+0x134>)
 8004a2e:	5cd3      	ldrb	r3, [r2, r3]
 8004a30:	4323      	orrs	r3, r4
 8004a32:	461a      	mov	r2, r3
 8004a34:	6bfb      	ldr	r3, [r7, #60]	@ 0x3c
 8004a36:	089b      	lsrs	r3, r3, #2
 8004a38:	009b      	lsls	r3, r3, #2
 8004a3a:	3340      	adds	r3, #64	@ 0x40
 8004a3c:	443b      	add	r3, r7
 8004a3e:	f853 3c34 	ldr.w	r3, [r3, #-52]
 8004a42:	4053      	eors	r3, r2
 8004a44:	63bb      	str	r3, [r7, #56]	@ 0x38
		}
		s->words[i] = s->words[i-Nk] ^ t;
 8004a46:	6bfb      	ldr	r3, [r7, #60]	@ 0x3c
 8004a48:	1f1a      	subs	r2, r3, #4
 8004a4a:	687b      	ldr	r3, [r7, #4]
 8004a4c:	f853 2022 	ldr.w	r2, [r3, r2, lsl #2]
 8004a50:	6bbb      	ldr	r3, [r7, #56]	@ 0x38
 8004a52:	ea82 0103 	eor.w	r1, r2, r3
 8004a56:	687b      	ldr	r3, [r7, #4]
 8004a58:	6bfa      	ldr	r2, [r7, #60]	@ 0x3c
 8004a5a:	f843 1022 	str.w	r1, [r3, r2, lsl #2]
	for (; i < (Nb * (Nr + 1)); ++i) {
 8004a5e:	6bfb      	ldr	r3, [r7, #60]	@ 0x3c
 8004a60:	3301      	adds	r3, #1
 8004a62:	63fb      	str	r3, [r7, #60]	@ 0x3c
 8004a64:	6bfb      	ldr	r3, [r7, #60]	@ 0x3c
 8004a66:	2b2b      	cmp	r3, #43	@ 0x2b
 8004a68:	d9b3      	bls.n	80049d2 <tc_aes128_set_encrypt_key+0x8e>
	}

	return TC_CRYPTO_SUCCESS;
 8004a6a:	2301      	movs	r3, #1
}
 8004a6c:	4618      	mov	r0, r3
 8004a6e:	3740      	adds	r7, #64	@ 0x40
 8004a70:	46bd      	mov	sp, r7
 8004a72:	bdb0      	pop	{r4, r5, r7, pc}
 8004a74:	08007ab8 	.word	0x08007ab8
 8004a78:	08007c4c 	.word	0x08007c4c

08004a7c <add_round_key>:

static inline void add_round_key(uint8_t *s, const unsigned int *k)
{
 8004a7c:	b480      	push	{r7}
 8004a7e:	b083      	sub	sp, #12
 8004a80:	af00      	add	r7, sp, #0
 8004a82:	6078      	str	r0, [r7, #4]
 8004a84:	6039      	str	r1, [r7, #0]
	s[0] ^= (uint8_t)(k[0] >> 24); s[1] ^= (uint8_t)(k[0] >> 16);
 8004a86:	687b      	ldr	r3, [r7, #4]
 8004a88:	781a      	ldrb	r2, [r3, #0]
 8004a8a:	683b      	ldr	r3, [r7, #0]
 8004a8c:	681b      	ldr	r3, [r3, #0]
 8004a8e:	0e1b      	lsrs	r3, r3, #24
 8004a90:	b2db      	uxtb	r3, r3
 8004a92:	4053      	eors	r3, r2
 8004a94:	b2da      	uxtb	r2, r3
 8004a96:	687b      	ldr	r3, [r7, #4]
 8004a98:	701a      	strb	r2, [r3, #0]
 8004a9a:	687b      	ldr	r3, [r7, #4]
 8004a9c:	3301      	adds	r3, #1
 8004a9e:	7819      	ldrb	r1, [r3, #0]
 8004aa0:	683b      	ldr	r3, [r7, #0]
 8004aa2:	681b      	ldr	r3, [r3, #0]
 8004aa4:	0c1b      	lsrs	r3, r3, #16
 8004aa6:	b2da      	uxtb	r2, r3
 8004aa8:	687b      	ldr	r3, [r7, #4]
 8004aaa:	3301      	adds	r3, #1
 8004aac:	404a      	eors	r2, r1
 8004aae:	b2d2      	uxtb	r2, r2
 8004ab0:	701a      	strb	r2, [r3, #0]
	s[2] ^= (uint8_t)(k[0] >> 8); s[3] ^= (uint8_t)(k[0]);
 8004ab2:	687b      	ldr	r3, [r7, #4]
 8004ab4:	3302      	adds	r3, #2
 8004ab6:	7819      	ldrb	r1, [r3, #0]
 8004ab8:	683b      	ldr	r3, [r7, #0]
 8004aba:	681b      	ldr	r3, [r3, #0]
 8004abc:	0a1b      	lsrs	r3, r3, #8
 8004abe:	b2da      	uxtb	r2, r3
 8004ac0:	687b      	ldr	r3, [r7, #4]
 8004ac2:	3302      	adds	r3, #2
 8004ac4:	404a      	eors	r2, r1
 8004ac6:	b2d2      	uxtb	r2, r2
 8004ac8:	701a      	strb	r2, [r3, #0]
 8004aca:	687b      	ldr	r3, [r7, #4]
 8004acc:	3303      	adds	r3, #3
 8004ace:	7819      	ldrb	r1, [r3, #0]
 8004ad0:	683b      	ldr	r3, [r7, #0]
 8004ad2:	681b      	ldr	r3, [r3, #0]
 8004ad4:	b2da      	uxtb	r2, r3
 8004ad6:	687b      	ldr	r3, [r7, #4]
 8004ad8:	3303      	adds	r3, #3
 8004ada:	404a      	eors	r2, r1
 8004adc:	b2d2      	uxtb	r2, r2
 8004ade:	701a      	strb	r2, [r3, #0]
	s[4] ^= (uint8_t)(k[1] >> 24); s[5] ^= (uint8_t)(k[1] >> 16);
 8004ae0:	687b      	ldr	r3, [r7, #4]
 8004ae2:	3304      	adds	r3, #4
 8004ae4:	7819      	ldrb	r1, [r3, #0]
 8004ae6:	683b      	ldr	r3, [r7, #0]
 8004ae8:	3304      	adds	r3, #4
 8004aea:	681b      	ldr	r3, [r3, #0]
 8004aec:	0e1b      	lsrs	r3, r3, #24
 8004aee:	b2da      	uxtb	r2, r3
 8004af0:	687b      	ldr	r3, [r7, #4]
 8004af2:	3304      	adds	r3, #4
 8004af4:	404a      	eors	r2, r1
 8004af6:	b2d2      	uxtb	r2, r2
 8004af8:	701a      	strb	r2, [r3, #0]
 8004afa:	687b      	ldr	r3, [r7, #4]
 8004afc:	3305      	adds	r3, #5
 8004afe:	7819      	ldrb	r1, [r3, #0]
 8004b00:	683b      	ldr	r3, [r7, #0]
 8004b02:	3304      	adds	r3, #4
 8004b04:	681b      	ldr	r3, [r3, #0]
 8004b06:	0c1b      	lsrs	r3, r3, #16
 8004b08:	b2da      	uxtb	r2, r3
 8004b0a:	687b      	ldr	r3, [r7, #4]
 8004b0c:	3305      	adds	r3, #5
 8004b0e:	404a      	eors	r2, r1
 8004b10:	b2d2      	uxtb	r2, r2
 8004b12:	701a      	strb	r2, [r3, #0]
	s[6] ^= (uint8_t)(k[1] >> 8); s[7] ^= (uint8_t)(k[1]);
 8004b14:	687b      	ldr	r3, [r7, #4]
 8004b16:	3306      	adds	r3, #6
 8004b18:	7819      	ldrb	r1, [r3, #0]
 8004b1a:	683b      	ldr	r3, [r7, #0]
 8004b1c:	3304      	adds	r3, #4
 8004b1e:	681b      	ldr	r3, [r3, #0]
 8004b20:	0a1b      	lsrs	r3, r3, #8
 8004b22:	b2da      	uxtb	r2, r3
 8004b24:	687b      	ldr	r3, [r7, #4]
 8004b26:	3306      	adds	r3, #6
 8004b28:	404a      	eors	r2, r1
 8004b2a:	b2d2      	uxtb	r2, r2
 8004b2c:	701a      	strb	r2, [r3, #0]
 8004b2e:	687b      	ldr	r3, [r7, #4]
 8004b30:	3307      	adds	r3, #7
 8004b32:	7819      	ldrb	r1, [r3, #0]
 8004b34:	683b      	ldr	r3, [r7, #0]
 8004b36:	3304      	adds	r3, #4
 8004b38:	681b      	ldr	r3, [r3, #0]
 8004b3a:	b2da      	uxtb	r2, r3
 8004b3c:	687b      	ldr	r3, [r7, #4]
 8004b3e:	3307      	adds	r3, #7
 8004b40:	404a      	eors	r2, r1
 8004b42:	b2d2      	uxtb	r2, r2
 8004b44:	701a      	strb	r2, [r3, #0]
	s[8] ^= (uint8_t)(k[2] >> 24); s[9] ^= (uint8_t)(k[2] >> 16);
 8004b46:	687b      	ldr	r3, [r7, #4]
 8004b48:	3308      	adds	r3, #8
 8004b4a:	7819      	ldrb	r1, [r3, #0]
 8004b4c:	683b      	ldr	r3, [r7, #0]
 8004b4e:	3308      	adds	r3, #8
 8004b50:	681b      	ldr	r3, [r3, #0]
 8004b52:	0e1b      	lsrs	r3, r3, #24
 8004b54:	b2da      	uxtb	r2, r3
 8004b56:	687b      	ldr	r3, [r7, #4]
 8004b58:	3308      	adds	r3, #8
 8004b5a:	404a      	eors	r2, r1
 8004b5c:	b2d2      	uxtb	r2, r2
 8004b5e:	701a      	strb	r2, [r3, #0]
 8004b60:	687b      	ldr	r3, [r7, #4]
 8004b62:	3309      	adds	r3, #9
 8004b64:	7819      	ldrb	r1, [r3, #0]
 8004b66:	683b      	ldr	r3, [r7, #0]
 8004b68:	3308      	adds	r3, #8
 8004b6a:	681b      	ldr	r3, [r3, #0]
 8004b6c:	0c1b      	lsrs	r3, r3, #16
 8004b6e:	b2da      	uxtb	r2, r3
 8004b70:	687b      	ldr	r3, [r7, #4]
 8004b72:	3309      	adds	r3, #9
 8004b74:	404a      	eors	r2, r1
 8004b76:	b2d2      	uxtb	r2, r2
 8004b78:	701a      	strb	r2, [r3, #0]
	s[10] ^= (uint8_t)(k[2] >> 8); s[11] ^= (uint8_t)(k[2]);
 8004b7a:	687b      	ldr	r3, [r7, #4]
 8004b7c:	330a      	adds	r3, #10
 8004b7e:	7819      	ldrb	r1, [r3, #0]
 8004b80:	683b      	ldr	r3, [r7, #0]
 8004b82:	3308      	adds	r3, #8
 8004b84:	681b      	ldr	r3, [r3, #0]
 8004b86:	0a1b      	lsrs	r3, r3, #8
 8004b88:	b2da      	uxtb	r2, r3
 8004b8a:	687b      	ldr	r3, [r7, #4]
 8004b8c:	330a      	adds	r3, #10
 8004b8e:	404a      	eors	r2, r1
 8004b90:	b2d2      	uxtb	r2, r2
 8004b92:	701a      	strb	r2, [r3, #0]
 8004b94:	687b      	ldr	r3, [r7, #4]
 8004b96:	330b      	adds	r3, #11
 8004b98:	7819      	ldrb	r1, [r3, #0]
 8004b9a:	683b      	ldr	r3, [r7, #0]
 8004b9c:	3308      	adds	r3, #8
 8004b9e:	681b      	ldr	r3, [r3, #0]
 8004ba0:	b2da      	uxtb	r2, r3
 8004ba2:	687b      	ldr	r3, [r7, #4]
 8004ba4:	330b      	adds	r3, #11
 8004ba6:	404a      	eors	r2, r1
 8004ba8:	b2d2      	uxtb	r2, r2
 8004baa:	701a      	strb	r2, [r3, #0]
	s[12] ^= (uint8_t)(k[3] >> 24); s[13] ^= (uint8_t)(k[3] >> 16);
 8004bac:	687b      	ldr	r3, [r7, #4]
 8004bae:	330c      	adds	r3, #12
 8004bb0:	7819      	ldrb	r1, [r3, #0]
 8004bb2:	683b      	ldr	r3, [r7, #0]
 8004bb4:	330c      	adds	r3, #12
 8004bb6:	681b      	ldr	r3, [r3, #0]
 8004bb8:	0e1b      	lsrs	r3, r3, #24
 8004bba:	b2da      	uxtb	r2, r3
 8004bbc:	687b      	ldr	r3, [r7, #4]
 8004bbe:	330c      	adds	r3, #12
 8004bc0:	404a      	eors	r2, r1
 8004bc2:	b2d2      	uxtb	r2, r2
 8004bc4:	701a      	strb	r2, [r3, #0]
 8004bc6:	687b      	ldr	r3, [r7, #4]
 8004bc8:	330d      	adds	r3, #13
 8004bca:	7819      	ldrb	r1, [r3, #0]
 8004bcc:	683b      	ldr	r3, [r7, #0]
 8004bce:	330c      	adds	r3, #12
 8004bd0:	681b      	ldr	r3, [r3, #0]
 8004bd2:	0c1b      	lsrs	r3, r3, #16
 8004bd4:	b2da      	uxtb	r2, r3
 8004bd6:	687b      	ldr	r3, [r7, #4]
 8004bd8:	330d      	adds	r3, #13
 8004bda:	404a      	eors	r2, r1
 8004bdc:	b2d2      	uxtb	r2, r2
 8004bde:	701a      	strb	r2, [r3, #0]
	s[14] ^= (uint8_t)(k[3] >> 8); s[15] ^= (uint8_t)(k[3]);
 8004be0:	687b      	ldr	r3, [r7, #4]
 8004be2:	330e      	adds	r3, #14
 8004be4:	7819      	ldrb	r1, [r3, #0]
 8004be6:	683b      	ldr	r3, [r7, #0]
 8004be8:	330c      	adds	r3, #12
 8004bea:	681b      	ldr	r3, [r3, #0]
 8004bec:	0a1b      	lsrs	r3, r3, #8
 8004bee:	b2da      	uxtb	r2, r3
 8004bf0:	687b      	ldr	r3, [r7, #4]
 8004bf2:	330e      	adds	r3, #14
 8004bf4:	404a      	eors	r2, r1
 8004bf6:	b2d2      	uxtb	r2, r2
 8004bf8:	701a      	strb	r2, [r3, #0]
 8004bfa:	687b      	ldr	r3, [r7, #4]
 8004bfc:	330f      	adds	r3, #15
 8004bfe:	7819      	ldrb	r1, [r3, #0]
 8004c00:	683b      	ldr	r3, [r7, #0]
 8004c02:	330c      	adds	r3, #12
 8004c04:	681b      	ldr	r3, [r3, #0]
 8004c06:	b2da      	uxtb	r2, r3
 8004c08:	687b      	ldr	r3, [r7, #4]
 8004c0a:	330f      	adds	r3, #15
 8004c0c:	404a      	eors	r2, r1
 8004c0e:	b2d2      	uxtb	r2, r2
 8004c10:	701a      	strb	r2, [r3, #0]
}
 8004c12:	bf00      	nop
 8004c14:	370c      	adds	r7, #12
 8004c16:	46bd      	mov	sp, r7
 8004c18:	f85d 7b04 	ldr.w	r7, [sp], #4
 8004c1c:	4770      	bx	lr
	...

08004c20 <sub_bytes>:

static inline void sub_bytes(uint8_t *s)
{
 8004c20:	b480      	push	{r7}
 8004c22:	b085      	sub	sp, #20
 8004c24:	af00      	add	r7, sp, #0
 8004c26:	6078      	str	r0, [r7, #4]
	unsigned int i;

	for (i = 0; i < (Nb * Nk); ++i) {
 8004c28:	2300      	movs	r3, #0
 8004c2a:	60fb      	str	r3, [r7, #12]
 8004c2c:	e00d      	b.n	8004c4a <sub_bytes+0x2a>
		s[i] = sbox[s[i]];
 8004c2e:	687a      	ldr	r2, [r7, #4]
 8004c30:	68fb      	ldr	r3, [r7, #12]
 8004c32:	4413      	add	r3, r2
 8004c34:	781b      	ldrb	r3, [r3, #0]
 8004c36:	4619      	mov	r1, r3
 8004c38:	687a      	ldr	r2, [r7, #4]
 8004c3a:	68fb      	ldr	r3, [r7, #12]
 8004c3c:	4413      	add	r3, r2
 8004c3e:	4a08      	ldr	r2, [pc, #32]	@ (8004c60 <sub_bytes+0x40>)
 8004c40:	5c52      	ldrb	r2, [r2, r1]
 8004c42:	701a      	strb	r2, [r3, #0]
	for (i = 0; i < (Nb * Nk); ++i) {
 8004c44:	68fb      	ldr	r3, [r7, #12]
 8004c46:	3301      	adds	r3, #1
 8004c48:	60fb      	str	r3, [r7, #12]
 8004c4a:	68fb      	ldr	r3, [r7, #12]
 8004c4c:	2b0f      	cmp	r3, #15
 8004c4e:	d9ee      	bls.n	8004c2e <sub_bytes+0xe>
	}
}
 8004c50:	bf00      	nop
 8004c52:	bf00      	nop
 8004c54:	3714      	adds	r7, #20
 8004c56:	46bd      	mov	sp, r7
 8004c58:	f85d 7b04 	ldr.w	r7, [sp], #4
 8004c5c:	4770      	bx	lr
 8004c5e:	bf00      	nop
 8004c60:	08007c4c 	.word	0x08007c4c

08004c64 <mult_row_column>:

#define triple(a)(_double_byte(a)^(a))

static inline void mult_row_column(uint8_t *out, const uint8_t *in)
{
 8004c64:	b590      	push	{r4, r7, lr}
 8004c66:	b083      	sub	sp, #12
 8004c68:	af00      	add	r7, sp, #0
 8004c6a:	6078      	str	r0, [r7, #4]
 8004c6c:	6039      	str	r1, [r7, #0]
	out[0] = _double_byte(in[0]) ^ triple(in[1]) ^ in[2] ^ in[3];
 8004c6e:	683b      	ldr	r3, [r7, #0]
 8004c70:	781b      	ldrb	r3, [r3, #0]
 8004c72:	4618      	mov	r0, r3
 8004c74:	f002 f9f8 	bl	8007068 <_double_byte>
 8004c78:	4603      	mov	r3, r0
 8004c7a:	461c      	mov	r4, r3
 8004c7c:	683b      	ldr	r3, [r7, #0]
 8004c7e:	3301      	adds	r3, #1
 8004c80:	781b      	ldrb	r3, [r3, #0]
 8004c82:	4618      	mov	r0, r3
 8004c84:	f002 f9f0 	bl	8007068 <_double_byte>
 8004c88:	4603      	mov	r3, r0
 8004c8a:	461a      	mov	r2, r3
 8004c8c:	683b      	ldr	r3, [r7, #0]
 8004c8e:	3301      	adds	r3, #1
 8004c90:	781b      	ldrb	r3, [r3, #0]
 8004c92:	4053      	eors	r3, r2
 8004c94:	b2db      	uxtb	r3, r3
 8004c96:	4063      	eors	r3, r4
 8004c98:	b2da      	uxtb	r2, r3
 8004c9a:	683b      	ldr	r3, [r7, #0]
 8004c9c:	3302      	adds	r3, #2
 8004c9e:	781b      	ldrb	r3, [r3, #0]
 8004ca0:	4053      	eors	r3, r2
 8004ca2:	b2da      	uxtb	r2, r3
 8004ca4:	683b      	ldr	r3, [r7, #0]
 8004ca6:	3303      	adds	r3, #3
 8004ca8:	781b      	ldrb	r3, [r3, #0]
 8004caa:	4053      	eors	r3, r2
 8004cac:	b2da      	uxtb	r2, r3
 8004cae:	687b      	ldr	r3, [r7, #4]
 8004cb0:	701a      	strb	r2, [r3, #0]
	out[1] = in[0] ^ _double_byte(in[1]) ^ triple(in[2]) ^ in[3];
 8004cb2:	683b      	ldr	r3, [r7, #0]
 8004cb4:	781c      	ldrb	r4, [r3, #0]
 8004cb6:	683b      	ldr	r3, [r7, #0]
 8004cb8:	3301      	adds	r3, #1
 8004cba:	781b      	ldrb	r3, [r3, #0]
 8004cbc:	4618      	mov	r0, r3
 8004cbe:	f002 f9d3 	bl	8007068 <_double_byte>
 8004cc2:	4603      	mov	r3, r0
 8004cc4:	4063      	eors	r3, r4
 8004cc6:	b2dc      	uxtb	r4, r3
 8004cc8:	683b      	ldr	r3, [r7, #0]
 8004cca:	3302      	adds	r3, #2
 8004ccc:	781b      	ldrb	r3, [r3, #0]
 8004cce:	4618      	mov	r0, r3
 8004cd0:	f002 f9ca 	bl	8007068 <_double_byte>
 8004cd4:	4603      	mov	r3, r0
 8004cd6:	461a      	mov	r2, r3
 8004cd8:	683b      	ldr	r3, [r7, #0]
 8004cda:	3302      	adds	r3, #2
 8004cdc:	781b      	ldrb	r3, [r3, #0]
 8004cde:	4053      	eors	r3, r2
 8004ce0:	b2db      	uxtb	r3, r3
 8004ce2:	4063      	eors	r3, r4
 8004ce4:	b2d9      	uxtb	r1, r3
 8004ce6:	683b      	ldr	r3, [r7, #0]
 8004ce8:	3303      	adds	r3, #3
 8004cea:	781a      	ldrb	r2, [r3, #0]
 8004cec:	687b      	ldr	r3, [r7, #4]
 8004cee:	3301      	adds	r3, #1
 8004cf0:	404a      	eors	r2, r1
 8004cf2:	b2d2      	uxtb	r2, r2
 8004cf4:	701a      	strb	r2, [r3, #0]
	out[2] = in[0] ^ in[1] ^ _double_byte(in[2]) ^ triple(in[3]);
 8004cf6:	683b      	ldr	r3, [r7, #0]
 8004cf8:	781a      	ldrb	r2, [r3, #0]
 8004cfa:	683b      	ldr	r3, [r7, #0]
 8004cfc:	3301      	adds	r3, #1
 8004cfe:	781b      	ldrb	r3, [r3, #0]
 8004d00:	4053      	eors	r3, r2
 8004d02:	b2dc      	uxtb	r4, r3
 8004d04:	683b      	ldr	r3, [r7, #0]
 8004d06:	3302      	adds	r3, #2
 8004d08:	781b      	ldrb	r3, [r3, #0]
 8004d0a:	4618      	mov	r0, r3
 8004d0c:	f002 f9ac 	bl	8007068 <_double_byte>
 8004d10:	4603      	mov	r3, r0
 8004d12:	4063      	eors	r3, r4
 8004d14:	b2dc      	uxtb	r4, r3
 8004d16:	683b      	ldr	r3, [r7, #0]
 8004d18:	3303      	adds	r3, #3
 8004d1a:	781b      	ldrb	r3, [r3, #0]
 8004d1c:	4618      	mov	r0, r3
 8004d1e:	f002 f9a3 	bl	8007068 <_double_byte>
 8004d22:	4603      	mov	r3, r0
 8004d24:	461a      	mov	r2, r3
 8004d26:	683b      	ldr	r3, [r7, #0]
 8004d28:	3303      	adds	r3, #3
 8004d2a:	781b      	ldrb	r3, [r3, #0]
 8004d2c:	4053      	eors	r3, r2
 8004d2e:	b2da      	uxtb	r2, r3
 8004d30:	687b      	ldr	r3, [r7, #4]
 8004d32:	3302      	adds	r3, #2
 8004d34:	4062      	eors	r2, r4
 8004d36:	b2d2      	uxtb	r2, r2
 8004d38:	701a      	strb	r2, [r3, #0]
	out[3] = triple(in[0]) ^ in[1] ^ in[2] ^ _double_byte(in[3]);
 8004d3a:	683b      	ldr	r3, [r7, #0]
 8004d3c:	781b      	ldrb	r3, [r3, #0]
 8004d3e:	4618      	mov	r0, r3
 8004d40:	f002 f992 	bl	8007068 <_double_byte>
 8004d44:	4603      	mov	r3, r0
 8004d46:	461a      	mov	r2, r3
 8004d48:	683b      	ldr	r3, [r7, #0]
 8004d4a:	781b      	ldrb	r3, [r3, #0]
 8004d4c:	4053      	eors	r3, r2
 8004d4e:	b2da      	uxtb	r2, r3
 8004d50:	683b      	ldr	r3, [r7, #0]
 8004d52:	3301      	adds	r3, #1
 8004d54:	781b      	ldrb	r3, [r3, #0]
 8004d56:	4053      	eors	r3, r2
 8004d58:	b2da      	uxtb	r2, r3
 8004d5a:	683b      	ldr	r3, [r7, #0]
 8004d5c:	3302      	adds	r3, #2
 8004d5e:	781b      	ldrb	r3, [r3, #0]
 8004d60:	4053      	eors	r3, r2
 8004d62:	b2dc      	uxtb	r4, r3
 8004d64:	683b      	ldr	r3, [r7, #0]
 8004d66:	3303      	adds	r3, #3
 8004d68:	781b      	ldrb	r3, [r3, #0]
 8004d6a:	4618      	mov	r0, r3
 8004d6c:	f002 f97c 	bl	8007068 <_double_byte>
 8004d70:	4603      	mov	r3, r0
 8004d72:	461a      	mov	r2, r3
 8004d74:	687b      	ldr	r3, [r7, #4]
 8004d76:	3303      	adds	r3, #3
 8004d78:	4062      	eors	r2, r4
 8004d7a:	b2d2      	uxtb	r2, r2
 8004d7c:	701a      	strb	r2, [r3, #0]
}
 8004d7e:	bf00      	nop
 8004d80:	370c      	adds	r7, #12
 8004d82:	46bd      	mov	sp, r7
 8004d84:	bd90      	pop	{r4, r7, pc}

08004d86 <mix_columns>:

static inline void mix_columns(uint8_t *s)
{
 8004d86:	b580      	push	{r7, lr}
 8004d88:	b086      	sub	sp, #24
 8004d8a:	af00      	add	r7, sp, #0
 8004d8c:	6078      	str	r0, [r7, #4]
	uint8_t t[Nb*Nk];

	mult_row_column(t, s);
 8004d8e:	f107 0308 	add.w	r3, r7, #8
 8004d92:	6879      	ldr	r1, [r7, #4]
 8004d94:	4618      	mov	r0, r3
 8004d96:	f7ff ff65 	bl	8004c64 <mult_row_column>
	mult_row_column(&t[Nb], s+Nb);
 8004d9a:	687b      	ldr	r3, [r7, #4]
 8004d9c:	1d1a      	adds	r2, r3, #4
 8004d9e:	f107 0308 	add.w	r3, r7, #8
 8004da2:	3304      	adds	r3, #4
 8004da4:	4611      	mov	r1, r2
 8004da6:	4618      	mov	r0, r3
 8004da8:	f7ff ff5c 	bl	8004c64 <mult_row_column>
	mult_row_column(&t[2 * Nb], s + (2 * Nb));
 8004dac:	687b      	ldr	r3, [r7, #4]
 8004dae:	f103 0208 	add.w	r2, r3, #8
 8004db2:	f107 0308 	add.w	r3, r7, #8
 8004db6:	3308      	adds	r3, #8
 8004db8:	4611      	mov	r1, r2
 8004dba:	4618      	mov	r0, r3
 8004dbc:	f7ff ff52 	bl	8004c64 <mult_row_column>
	mult_row_column(&t[3 * Nb], s + (3 * Nb));
 8004dc0:	687b      	ldr	r3, [r7, #4]
 8004dc2:	f103 020c 	add.w	r2, r3, #12
 8004dc6:	f107 0308 	add.w	r3, r7, #8
 8004dca:	330c      	adds	r3, #12
 8004dcc:	4611      	mov	r1, r2
 8004dce:	4618      	mov	r0, r3
 8004dd0:	f7ff ff48 	bl	8004c64 <mult_row_column>
	(void) _copy(s, sizeof(t), t, sizeof(t));
 8004dd4:	f107 0208 	add.w	r2, r7, #8
 8004dd8:	2310      	movs	r3, #16
 8004dda:	2110      	movs	r1, #16
 8004ddc:	6878      	ldr	r0, [r7, #4]
 8004dde:	f002 f91b 	bl	8007018 <_copy>
}
 8004de2:	bf00      	nop
 8004de4:	3718      	adds	r7, #24
 8004de6:	46bd      	mov	sp, r7
 8004de8:	bd80      	pop	{r7, pc}

08004dea <shift_rows>:
/*
 * This shift_rows also implements the matrix flip required for mix_columns, but
 * performs it here to reduce the number of memory operations.
 */
static inline void shift_rows(uint8_t *s)
{
 8004dea:	b580      	push	{r7, lr}
 8004dec:	b086      	sub	sp, #24
 8004dee:	af00      	add	r7, sp, #0
 8004df0:	6078      	str	r0, [r7, #4]
	uint8_t t[Nb * Nk];

	t[0]  = s[0]; t[1] = s[5]; t[2] = s[10]; t[3] = s[15];
 8004df2:	687b      	ldr	r3, [r7, #4]
 8004df4:	781b      	ldrb	r3, [r3, #0]
 8004df6:	723b      	strb	r3, [r7, #8]
 8004df8:	687b      	ldr	r3, [r7, #4]
 8004dfa:	795b      	ldrb	r3, [r3, #5]
 8004dfc:	727b      	strb	r3, [r7, #9]
 8004dfe:	687b      	ldr	r3, [r7, #4]
 8004e00:	7a9b      	ldrb	r3, [r3, #10]
 8004e02:	72bb      	strb	r3, [r7, #10]
 8004e04:	687b      	ldr	r3, [r7, #4]
 8004e06:	7bdb      	ldrb	r3, [r3, #15]
 8004e08:	72fb      	strb	r3, [r7, #11]
	t[4]  = s[4]; t[5] = s[9]; t[6] = s[14]; t[7] = s[3];
 8004e0a:	687b      	ldr	r3, [r7, #4]
 8004e0c:	791b      	ldrb	r3, [r3, #4]
 8004e0e:	733b      	strb	r3, [r7, #12]
 8004e10:	687b      	ldr	r3, [r7, #4]
 8004e12:	7a5b      	ldrb	r3, [r3, #9]
 8004e14:	737b      	strb	r3, [r7, #13]
 8004e16:	687b      	ldr	r3, [r7, #4]
 8004e18:	7b9b      	ldrb	r3, [r3, #14]
 8004e1a:	73bb      	strb	r3, [r7, #14]
 8004e1c:	687b      	ldr	r3, [r7, #4]
 8004e1e:	78db      	ldrb	r3, [r3, #3]
 8004e20:	73fb      	strb	r3, [r7, #15]
	t[8]  = s[8]; t[9] = s[13]; t[10] = s[2]; t[11] = s[7];
 8004e22:	687b      	ldr	r3, [r7, #4]
 8004e24:	7a1b      	ldrb	r3, [r3, #8]
 8004e26:	743b      	strb	r3, [r7, #16]
 8004e28:	687b      	ldr	r3, [r7, #4]
 8004e2a:	7b5b      	ldrb	r3, [r3, #13]
 8004e2c:	747b      	strb	r3, [r7, #17]
 8004e2e:	687b      	ldr	r3, [r7, #4]
 8004e30:	789b      	ldrb	r3, [r3, #2]
 8004e32:	74bb      	strb	r3, [r7, #18]
 8004e34:	687b      	ldr	r3, [r7, #4]
 8004e36:	79db      	ldrb	r3, [r3, #7]
 8004e38:	74fb      	strb	r3, [r7, #19]
	t[12] = s[12]; t[13] = s[1]; t[14] = s[6]; t[15] = s[11];
 8004e3a:	687b      	ldr	r3, [r7, #4]
 8004e3c:	7b1b      	ldrb	r3, [r3, #12]
 8004e3e:	753b      	strb	r3, [r7, #20]
 8004e40:	687b      	ldr	r3, [r7, #4]
 8004e42:	785b      	ldrb	r3, [r3, #1]
 8004e44:	757b      	strb	r3, [r7, #21]
 8004e46:	687b      	ldr	r3, [r7, #4]
 8004e48:	799b      	ldrb	r3, [r3, #6]
 8004e4a:	75bb      	strb	r3, [r7, #22]
 8004e4c:	687b      	ldr	r3, [r7, #4]
 8004e4e:	7adb      	ldrb	r3, [r3, #11]
 8004e50:	75fb      	strb	r3, [r7, #23]
	(void) _copy(s, sizeof(t), t, sizeof(t));
 8004e52:	f107 0208 	add.w	r2, r7, #8
 8004e56:	2310      	movs	r3, #16
 8004e58:	2110      	movs	r1, #16
 8004e5a:	6878      	ldr	r0, [r7, #4]
 8004e5c:	f002 f8dc 	bl	8007018 <_copy>
}
 8004e60:	bf00      	nop
 8004e62:	3718      	adds	r7, #24
 8004e64:	46bd      	mov	sp, r7
 8004e66:	bd80      	pop	{r7, pc}

08004e68 <tc_aes_encrypt>:

int tc_aes_encrypt(uint8_t *out, const uint8_t *in, const TCAesKeySched_t s)
{
 8004e68:	b580      	push	{r7, lr}
 8004e6a:	b08a      	sub	sp, #40	@ 0x28
 8004e6c:	af00      	add	r7, sp, #0
 8004e6e:	60f8      	str	r0, [r7, #12]
 8004e70:	60b9      	str	r1, [r7, #8]
 8004e72:	607a      	str	r2, [r7, #4]
	uint8_t state[Nk*Nb];
	unsigned int i;

	if (out == (uint8_t *) 0) {
 8004e74:	68fb      	ldr	r3, [r7, #12]
 8004e76:	2b00      	cmp	r3, #0
 8004e78:	d101      	bne.n	8004e7e <tc_aes_encrypt+0x16>
		return TC_CRYPTO_FAIL;
 8004e7a:	2300      	movs	r3, #0
 8004e7c:	e05e      	b.n	8004f3c <tc_aes_encrypt+0xd4>
	} else if (in == (const uint8_t *) 0) {
 8004e7e:	68bb      	ldr	r3, [r7, #8]
 8004e80:	2b00      	cmp	r3, #0
 8004e82:	d101      	bne.n	8004e88 <tc_aes_encrypt+0x20>
		return TC_CRYPTO_FAIL;
 8004e84:	2300      	movs	r3, #0
 8004e86:	e059      	b.n	8004f3c <tc_aes_encrypt+0xd4>
	} else if (s == (TCAesKeySched_t) 0) {
 8004e88:	687b      	ldr	r3, [r7, #4]
 8004e8a:	2b00      	cmp	r3, #0
 8004e8c:	d101      	bne.n	8004e92 <tc_aes_encrypt+0x2a>
		return TC_CRYPTO_FAIL;
 8004e8e:	2300      	movs	r3, #0
 8004e90:	e054      	b.n	8004f3c <tc_aes_encrypt+0xd4>
	}

	(void)_copy(state, sizeof(state), in, sizeof(state));
 8004e92:	f107 0014 	add.w	r0, r7, #20
 8004e96:	2310      	movs	r3, #16
 8004e98:	68ba      	ldr	r2, [r7, #8]
 8004e9a:	2110      	movs	r1, #16
 8004e9c:	f002 f8bc 	bl	8007018 <_copy>
	add_round_key(state, s->words);
 8004ea0:	687a      	ldr	r2, [r7, #4]
 8004ea2:	f107 0314 	add.w	r3, r7, #20
 8004ea6:	4611      	mov	r1, r2
 8004ea8:	4618      	mov	r0, r3
 8004eaa:	f7ff fde7 	bl	8004a7c <add_round_key>

	for (i = 0; i < (Nr - 1); ++i) {
 8004eae:	2300      	movs	r3, #0
 8004eb0:	627b      	str	r3, [r7, #36]	@ 0x24
 8004eb2:	e01c      	b.n	8004eee <tc_aes_encrypt+0x86>
		sub_bytes(state);
 8004eb4:	f107 0314 	add.w	r3, r7, #20
 8004eb8:	4618      	mov	r0, r3
 8004eba:	f7ff feb1 	bl	8004c20 <sub_bytes>
		shift_rows(state);
 8004ebe:	f107 0314 	add.w	r3, r7, #20
 8004ec2:	4618      	mov	r0, r3
 8004ec4:	f7ff ff91 	bl	8004dea <shift_rows>
		mix_columns(state);
 8004ec8:	f107 0314 	add.w	r3, r7, #20
 8004ecc:	4618      	mov	r0, r3
 8004ece:	f7ff ff5a 	bl	8004d86 <mix_columns>
		add_round_key(state, s->words + Nb*(i+1));
 8004ed2:	687a      	ldr	r2, [r7, #4]
 8004ed4:	6a7b      	ldr	r3, [r7, #36]	@ 0x24
 8004ed6:	3301      	adds	r3, #1
 8004ed8:	011b      	lsls	r3, r3, #4
 8004eda:	441a      	add	r2, r3
 8004edc:	f107 0314 	add.w	r3, r7, #20
 8004ee0:	4611      	mov	r1, r2
 8004ee2:	4618      	mov	r0, r3
 8004ee4:	f7ff fdca 	bl	8004a7c <add_round_key>
	for (i = 0; i < (Nr - 1); ++i) {
 8004ee8:	6a7b      	ldr	r3, [r7, #36]	@ 0x24
 8004eea:	3301      	adds	r3, #1
 8004eec:	627b      	str	r3, [r7, #36]	@ 0x24
 8004eee:	6a7b      	ldr	r3, [r7, #36]	@ 0x24
 8004ef0:	2b08      	cmp	r3, #8
 8004ef2:	d9df      	bls.n	8004eb4 <tc_aes_encrypt+0x4c>
	}

	sub_bytes(state);
 8004ef4:	f107 0314 	add.w	r3, r7, #20
 8004ef8:	4618      	mov	r0, r3
 8004efa:	f7ff fe91 	bl	8004c20 <sub_bytes>
	shift_rows(state);
 8004efe:	f107 0314 	add.w	r3, r7, #20
 8004f02:	4618      	mov	r0, r3
 8004f04:	f7ff ff71 	bl	8004dea <shift_rows>
	add_round_key(state, s->words + Nb*(i+1));
 8004f08:	687a      	ldr	r2, [r7, #4]
 8004f0a:	6a7b      	ldr	r3, [r7, #36]	@ 0x24
 8004f0c:	3301      	adds	r3, #1
 8004f0e:	011b      	lsls	r3, r3, #4
 8004f10:	441a      	add	r2, r3
 8004f12:	f107 0314 	add.w	r3, r7, #20
 8004f16:	4611      	mov	r1, r2
 8004f18:	4618      	mov	r0, r3
 8004f1a:	f7ff fdaf 	bl	8004a7c <add_round_key>

	(void)_copy(out, sizeof(state), state, sizeof(state));
 8004f1e:	f107 0214 	add.w	r2, r7, #20
 8004f22:	2310      	movs	r3, #16
 8004f24:	2110      	movs	r1, #16
 8004f26:	68f8      	ldr	r0, [r7, #12]
 8004f28:	f002 f876 	bl	8007018 <_copy>

	/* zeroing out the state buffer */
	_set(state, TC_ZERO_BYTE, sizeof(state));
 8004f2c:	f107 0314 	add.w	r3, r7, #20
 8004f30:	2210      	movs	r2, #16
 8004f32:	2100      	movs	r1, #0
 8004f34:	4618      	mov	r0, r3
 8004f36:	f002 f886 	bl	8007046 <_set>

	return TC_CRYPTO_SUCCESS;
 8004f3a:	2301      	movs	r3, #1
}
 8004f3c:	4618      	mov	r0, r3
 8004f3e:	3728      	adds	r7, #40	@ 0x28
 8004f40:	46bd      	mov	sp, r7
 8004f42:	bd80      	pop	{r7, pc}

08004f44 <uECC_vli_clear>:
{
	return 2 * curve->num_bytes;
}

void uECC_vli_clear(uECC_word_t *vli, wordcount_t num_words)
{
 8004f44:	b480      	push	{r7}
 8004f46:	b085      	sub	sp, #20
 8004f48:	af00      	add	r7, sp, #0
 8004f4a:	6078      	str	r0, [r7, #4]
 8004f4c:	460b      	mov	r3, r1
 8004f4e:	70fb      	strb	r3, [r7, #3]
	wordcount_t i;
	for (i = 0; i < num_words; ++i) {
 8004f50:	2300      	movs	r3, #0
 8004f52:	73fb      	strb	r3, [r7, #15]
 8004f54:	e00a      	b.n	8004f6c <uECC_vli_clear+0x28>
		 vli[i] = 0;
 8004f56:	f997 300f 	ldrsb.w	r3, [r7, #15]
 8004f5a:	009b      	lsls	r3, r3, #2
 8004f5c:	687a      	ldr	r2, [r7, #4]
 8004f5e:	4413      	add	r3, r2
 8004f60:	2200      	movs	r2, #0
 8004f62:	601a      	str	r2, [r3, #0]
	for (i = 0; i < num_words; ++i) {
 8004f64:	7bfb      	ldrb	r3, [r7, #15]
 8004f66:	3301      	adds	r3, #1
 8004f68:	b2db      	uxtb	r3, r3
 8004f6a:	73fb      	strb	r3, [r7, #15]
 8004f6c:	f997 200f 	ldrsb.w	r2, [r7, #15]
 8004f70:	f997 3003 	ldrsb.w	r3, [r7, #3]
 8004f74:	429a      	cmp	r2, r3
 8004f76:	dbee      	blt.n	8004f56 <uECC_vli_clear+0x12>
	}
}
 8004f78:	bf00      	nop
 8004f7a:	bf00      	nop
 8004f7c:	3714      	adds	r7, #20
 8004f7e:	46bd      	mov	sp, r7
 8004f80:	f85d 7b04 	ldr.w	r7, [sp], #4
 8004f84:	4770      	bx	lr

08004f86 <uECC_vli_isZero>:

uECC_word_t uECC_vli_isZero(const uECC_word_t *vli, wordcount_t num_words)
{
 8004f86:	b480      	push	{r7}
 8004f88:	b085      	sub	sp, #20
 8004f8a:	af00      	add	r7, sp, #0
 8004f8c:	6078      	str	r0, [r7, #4]
 8004f8e:	460b      	mov	r3, r1
 8004f90:	70fb      	strb	r3, [r7, #3]
	uECC_word_t bits = 0;
 8004f92:	2300      	movs	r3, #0
 8004f94:	60fb      	str	r3, [r7, #12]
	wordcount_t i;
	for (i = 0; i < num_words; ++i) {
 8004f96:	2300      	movs	r3, #0
 8004f98:	72fb      	strb	r3, [r7, #11]
 8004f9a:	e00c      	b.n	8004fb6 <uECC_vli_isZero+0x30>
		bits |= vli[i];
 8004f9c:	f997 300b 	ldrsb.w	r3, [r7, #11]
 8004fa0:	009b      	lsls	r3, r3, #2
 8004fa2:	687a      	ldr	r2, [r7, #4]
 8004fa4:	4413      	add	r3, r2
 8004fa6:	681b      	ldr	r3, [r3, #0]
 8004fa8:	68fa      	ldr	r2, [r7, #12]
 8004faa:	4313      	orrs	r3, r2
 8004fac:	60fb      	str	r3, [r7, #12]
	for (i = 0; i < num_words; ++i) {
 8004fae:	7afb      	ldrb	r3, [r7, #11]
 8004fb0:	3301      	adds	r3, #1
 8004fb2:	b2db      	uxtb	r3, r3
 8004fb4:	72fb      	strb	r3, [r7, #11]
 8004fb6:	f997 200b 	ldrsb.w	r2, [r7, #11]
 8004fba:	f997 3003 	ldrsb.w	r3, [r7, #3]
 8004fbe:	429a      	cmp	r2, r3
 8004fc0:	dbec      	blt.n	8004f9c <uECC_vli_isZero+0x16>
	}
	return (bits == 0);
 8004fc2:	68fb      	ldr	r3, [r7, #12]
 8004fc4:	2b00      	cmp	r3, #0
 8004fc6:	bf0c      	ite	eq
 8004fc8:	2301      	moveq	r3, #1
 8004fca:	2300      	movne	r3, #0
 8004fcc:	b2db      	uxtb	r3, r3
}
 8004fce:	4618      	mov	r0, r3
 8004fd0:	3714      	adds	r7, #20
 8004fd2:	46bd      	mov	sp, r7
 8004fd4:	f85d 7b04 	ldr.w	r7, [sp], #4
 8004fd8:	4770      	bx	lr

08004fda <uECC_vli_testBit>:

uECC_word_t uECC_vli_testBit(const uECC_word_t *vli, bitcount_t bit)
{
 8004fda:	b480      	push	{r7}
 8004fdc:	b083      	sub	sp, #12
 8004fde:	af00      	add	r7, sp, #0
 8004fe0:	6078      	str	r0, [r7, #4]
 8004fe2:	460b      	mov	r3, r1
 8004fe4:	807b      	strh	r3, [r7, #2]
	return (vli[bit >> uECC_WORD_BITS_SHIFT] &
 8004fe6:	f9b7 3002 	ldrsh.w	r3, [r7, #2]
 8004fea:	115b      	asrs	r3, r3, #5
 8004fec:	b21b      	sxth	r3, r3
 8004fee:	009b      	lsls	r3, r3, #2
 8004ff0:	687a      	ldr	r2, [r7, #4]
 8004ff2:	4413      	add	r3, r2
 8004ff4:	681a      	ldr	r2, [r3, #0]
		((uECC_word_t)1 << (bit & uECC_WORD_BITS_MASK)));
 8004ff6:	887b      	ldrh	r3, [r7, #2]
 8004ff8:	f003 031f 	and.w	r3, r3, #31
 8004ffc:	2101      	movs	r1, #1
 8004ffe:	fa01 f303 	lsl.w	r3, r1, r3
	return (vli[bit >> uECC_WORD_BITS_SHIFT] &
 8005002:	4013      	ands	r3, r2
}
 8005004:	4618      	mov	r0, r3
 8005006:	370c      	adds	r7, #12
 8005008:	46bd      	mov	sp, r7
 800500a:	f85d 7b04 	ldr.w	r7, [sp], #4
 800500e:	4770      	bx	lr

08005010 <vli_numDigits>:

/* Counts the number of words in vli. */
static wordcount_t vli_numDigits(const uECC_word_t *vli,
				 const wordcount_t max_words)
{
 8005010:	b480      	push	{r7}
 8005012:	b085      	sub	sp, #20
 8005014:	af00      	add	r7, sp, #0
 8005016:	6078      	str	r0, [r7, #4]
 8005018:	460b      	mov	r3, r1
 800501a:	70fb      	strb	r3, [r7, #3]

	wordcount_t i;
	/* Search from the end until we find a non-zero digit. We do it in reverse
	 * because we expect that most digits will be nonzero. */
	for (i = max_words - 1; i >= 0 && vli[i] == 0; --i) {
 800501c:	78fb      	ldrb	r3, [r7, #3]
 800501e:	3b01      	subs	r3, #1
 8005020:	b2db      	uxtb	r3, r3
 8005022:	73fb      	strb	r3, [r7, #15]
 8005024:	e003      	b.n	800502e <vli_numDigits+0x1e>
 8005026:	7bfb      	ldrb	r3, [r7, #15]
 8005028:	3b01      	subs	r3, #1
 800502a:	b2db      	uxtb	r3, r3
 800502c:	73fb      	strb	r3, [r7, #15]
 800502e:	f997 300f 	ldrsb.w	r3, [r7, #15]
 8005032:	2b00      	cmp	r3, #0
 8005034:	db07      	blt.n	8005046 <vli_numDigits+0x36>
 8005036:	f997 300f 	ldrsb.w	r3, [r7, #15]
 800503a:	009b      	lsls	r3, r3, #2
 800503c:	687a      	ldr	r2, [r7, #4]
 800503e:	4413      	add	r3, r2
 8005040:	681b      	ldr	r3, [r3, #0]
 8005042:	2b00      	cmp	r3, #0
 8005044:	d0ef      	beq.n	8005026 <vli_numDigits+0x16>
	}

	return (i + 1);
 8005046:	7bfb      	ldrb	r3, [r7, #15]
 8005048:	3301      	adds	r3, #1
 800504a:	b2db      	uxtb	r3, r3
 800504c:	b25b      	sxtb	r3, r3
}
 800504e:	4618      	mov	r0, r3
 8005050:	3714      	adds	r7, #20
 8005052:	46bd      	mov	sp, r7
 8005054:	f85d 7b04 	ldr.w	r7, [sp], #4
 8005058:	4770      	bx	lr

0800505a <uECC_vli_numBits>:

bitcount_t uECC_vli_numBits(const uECC_word_t *vli,
			    const wordcount_t max_words)
{
 800505a:	b580      	push	{r7, lr}
 800505c:	b086      	sub	sp, #24
 800505e:	af00      	add	r7, sp, #0
 8005060:	6078      	str	r0, [r7, #4]
 8005062:	460b      	mov	r3, r1
 8005064:	70fb      	strb	r3, [r7, #3]

	uECC_word_t i;
	uECC_word_t digit;

	wordcount_t num_digits = vli_numDigits(vli, max_words);
 8005066:	f997 3003 	ldrsb.w	r3, [r7, #3]
 800506a:	4619      	mov	r1, r3
 800506c:	6878      	ldr	r0, [r7, #4]
 800506e:	f7ff ffcf 	bl	8005010 <vli_numDigits>
 8005072:	4603      	mov	r3, r0
 8005074:	73fb      	strb	r3, [r7, #15]
	if (num_digits == 0) {
 8005076:	f997 300f 	ldrsb.w	r3, [r7, #15]
 800507a:	2b00      	cmp	r3, #0
 800507c:	d101      	bne.n	8005082 <uECC_vli_numBits+0x28>
		return 0;
 800507e:	2300      	movs	r3, #0
 8005080:	e021      	b.n	80050c6 <uECC_vli_numBits+0x6c>
	}

	digit = vli[num_digits - 1];
 8005082:	f997 200f 	ldrsb.w	r2, [r7, #15]
 8005086:	f06f 4340 	mvn.w	r3, #3221225472	@ 0xc0000000
 800508a:	4413      	add	r3, r2
 800508c:	009b      	lsls	r3, r3, #2
 800508e:	687a      	ldr	r2, [r7, #4]
 8005090:	4413      	add	r3, r2
 8005092:	681b      	ldr	r3, [r3, #0]
 8005094:	613b      	str	r3, [r7, #16]
	for (i = 0; digit; ++i) {
 8005096:	2300      	movs	r3, #0
 8005098:	617b      	str	r3, [r7, #20]
 800509a:	e005      	b.n	80050a8 <uECC_vli_numBits+0x4e>
		digit >>= 1;
 800509c:	693b      	ldr	r3, [r7, #16]
 800509e:	085b      	lsrs	r3, r3, #1
 80050a0:	613b      	str	r3, [r7, #16]
	for (i = 0; digit; ++i) {
 80050a2:	697b      	ldr	r3, [r7, #20]
 80050a4:	3301      	adds	r3, #1
 80050a6:	617b      	str	r3, [r7, #20]
 80050a8:	693b      	ldr	r3, [r7, #16]
 80050aa:	2b00      	cmp	r3, #0
 80050ac:	d1f6      	bne.n	800509c <uECC_vli_numBits+0x42>
	}

	return (((bitcount_t)(num_digits - 1) << uECC_WORD_BITS_SHIFT) + i);
 80050ae:	f997 300f 	ldrsb.w	r3, [r7, #15]
 80050b2:	b29b      	uxth	r3, r3
 80050b4:	3b01      	subs	r3, #1
 80050b6:	b29b      	uxth	r3, r3
 80050b8:	015b      	lsls	r3, r3, #5
 80050ba:	b29a      	uxth	r2, r3
 80050bc:	697b      	ldr	r3, [r7, #20]
 80050be:	b29b      	uxth	r3, r3
 80050c0:	4413      	add	r3, r2
 80050c2:	b29b      	uxth	r3, r3
 80050c4:	b21b      	sxth	r3, r3
}
 80050c6:	4618      	mov	r0, r3
 80050c8:	3718      	adds	r7, #24
 80050ca:	46bd      	mov	sp, r7
 80050cc:	bd80      	pop	{r7, pc}

080050ce <uECC_vli_set>:

void uECC_vli_set(uECC_word_t *dest, const uECC_word_t *src,
		  wordcount_t num_words)
{
 80050ce:	b480      	push	{r7}
 80050d0:	b087      	sub	sp, #28
 80050d2:	af00      	add	r7, sp, #0
 80050d4:	60f8      	str	r0, [r7, #12]
 80050d6:	60b9      	str	r1, [r7, #8]
 80050d8:	4613      	mov	r3, r2
 80050da:	71fb      	strb	r3, [r7, #7]
	wordcount_t i;

	for (i = 0; i < num_words; ++i) {
 80050dc:	2300      	movs	r3, #0
 80050de:	75fb      	strb	r3, [r7, #23]
 80050e0:	e00f      	b.n	8005102 <uECC_vli_set+0x34>
		dest[i] = src[i];
 80050e2:	f997 3017 	ldrsb.w	r3, [r7, #23]
 80050e6:	009b      	lsls	r3, r3, #2
 80050e8:	68ba      	ldr	r2, [r7, #8]
 80050ea:	441a      	add	r2, r3
 80050ec:	f997 3017 	ldrsb.w	r3, [r7, #23]
 80050f0:	009b      	lsls	r3, r3, #2
 80050f2:	68f9      	ldr	r1, [r7, #12]
 80050f4:	440b      	add	r3, r1
 80050f6:	6812      	ldr	r2, [r2, #0]
 80050f8:	601a      	str	r2, [r3, #0]
	for (i = 0; i < num_words; ++i) {
 80050fa:	7dfb      	ldrb	r3, [r7, #23]
 80050fc:	3301      	adds	r3, #1
 80050fe:	b2db      	uxtb	r3, r3
 8005100:	75fb      	strb	r3, [r7, #23]
 8005102:	f997 2017 	ldrsb.w	r2, [r7, #23]
 8005106:	f997 3007 	ldrsb.w	r3, [r7, #7]
 800510a:	429a      	cmp	r2, r3
 800510c:	dbe9      	blt.n	80050e2 <uECC_vli_set+0x14>
  	}
}
 800510e:	bf00      	nop
 8005110:	bf00      	nop
 8005112:	371c      	adds	r7, #28
 8005114:	46bd      	mov	sp, r7
 8005116:	f85d 7b04 	ldr.w	r7, [sp], #4
 800511a:	4770      	bx	lr

0800511c <uECC_vli_cmp_unsafe>:

cmpresult_t uECC_vli_cmp_unsafe(const uECC_word_t *left,
				const uECC_word_t *right,
				wordcount_t num_words)
{
 800511c:	b480      	push	{r7}
 800511e:	b087      	sub	sp, #28
 8005120:	af00      	add	r7, sp, #0
 8005122:	60f8      	str	r0, [r7, #12]
 8005124:	60b9      	str	r1, [r7, #8]
 8005126:	4613      	mov	r3, r2
 8005128:	71fb      	strb	r3, [r7, #7]
	wordcount_t i;

	for (i = num_words - 1; i >= 0; --i) {
 800512a:	79fb      	ldrb	r3, [r7, #7]
 800512c:	3b01      	subs	r3, #1
 800512e:	b2db      	uxtb	r3, r3
 8005130:	75fb      	strb	r3, [r7, #23]
 8005132:	e024      	b.n	800517e <uECC_vli_cmp_unsafe+0x62>
		if (left[i] > right[i]) {
 8005134:	f997 3017 	ldrsb.w	r3, [r7, #23]
 8005138:	009b      	lsls	r3, r3, #2
 800513a:	68fa      	ldr	r2, [r7, #12]
 800513c:	4413      	add	r3, r2
 800513e:	681a      	ldr	r2, [r3, #0]
 8005140:	f997 3017 	ldrsb.w	r3, [r7, #23]
 8005144:	009b      	lsls	r3, r3, #2
 8005146:	68b9      	ldr	r1, [r7, #8]
 8005148:	440b      	add	r3, r1
 800514a:	681b      	ldr	r3, [r3, #0]
 800514c:	429a      	cmp	r2, r3
 800514e:	d901      	bls.n	8005154 <uECC_vli_cmp_unsafe+0x38>
			return 1;
 8005150:	2301      	movs	r3, #1
 8005152:	e019      	b.n	8005188 <uECC_vli_cmp_unsafe+0x6c>
		} else if (left[i] < right[i]) {
 8005154:	f997 3017 	ldrsb.w	r3, [r7, #23]
 8005158:	009b      	lsls	r3, r3, #2
 800515a:	68fa      	ldr	r2, [r7, #12]
 800515c:	4413      	add	r3, r2
 800515e:	681a      	ldr	r2, [r3, #0]
 8005160:	f997 3017 	ldrsb.w	r3, [r7, #23]
 8005164:	009b      	lsls	r3, r3, #2
 8005166:	68b9      	ldr	r1, [r7, #8]
 8005168:	440b      	add	r3, r1
 800516a:	681b      	ldr	r3, [r3, #0]
 800516c:	429a      	cmp	r2, r3
 800516e:	d202      	bcs.n	8005176 <uECC_vli_cmp_unsafe+0x5a>
			return -1;
 8005170:	f04f 33ff 	mov.w	r3, #4294967295
 8005174:	e008      	b.n	8005188 <uECC_vli_cmp_unsafe+0x6c>
	for (i = num_words - 1; i >= 0; --i) {
 8005176:	7dfb      	ldrb	r3, [r7, #23]
 8005178:	3b01      	subs	r3, #1
 800517a:	b2db      	uxtb	r3, r3
 800517c:	75fb      	strb	r3, [r7, #23]
 800517e:	f997 3017 	ldrsb.w	r3, [r7, #23]
 8005182:	2b00      	cmp	r3, #0
 8005184:	dad6      	bge.n	8005134 <uECC_vli_cmp_unsafe+0x18>
		}
	}
	return 0;
 8005186:	2300      	movs	r3, #0
}
 8005188:	4618      	mov	r0, r3
 800518a:	371c      	adds	r7, #28
 800518c:	46bd      	mov	sp, r7
 800518e:	f85d 7b04 	ldr.w	r7, [sp], #4
 8005192:	4770      	bx	lr

08005194 <uECC_vli_equal>:

uECC_word_t uECC_vli_equal(const uECC_word_t *left, const uECC_word_t *right,
			   wordcount_t num_words)
{
 8005194:	b480      	push	{r7}
 8005196:	b087      	sub	sp, #28
 8005198:	af00      	add	r7, sp, #0
 800519a:	60f8      	str	r0, [r7, #12]
 800519c:	60b9      	str	r1, [r7, #8]
 800519e:	4613      	mov	r3, r2
 80051a0:	71fb      	strb	r3, [r7, #7]

	uECC_word_t diff = 0;
 80051a2:	2300      	movs	r3, #0
 80051a4:	617b      	str	r3, [r7, #20]
	wordcount_t i;

	for (i = num_words - 1; i >= 0; --i) {
 80051a6:	79fb      	ldrb	r3, [r7, #7]
 80051a8:	3b01      	subs	r3, #1
 80051aa:	b2db      	uxtb	r3, r3
 80051ac:	74fb      	strb	r3, [r7, #19]
 80051ae:	e013      	b.n	80051d8 <uECC_vli_equal+0x44>
		diff |= (left[i] ^ right[i]);
 80051b0:	f997 3013 	ldrsb.w	r3, [r7, #19]
 80051b4:	009b      	lsls	r3, r3, #2
 80051b6:	68fa      	ldr	r2, [r7, #12]
 80051b8:	4413      	add	r3, r2
 80051ba:	681a      	ldr	r2, [r3, #0]
 80051bc:	f997 3013 	ldrsb.w	r3, [r7, #19]
 80051c0:	009b      	lsls	r3, r3, #2
 80051c2:	68b9      	ldr	r1, [r7, #8]
 80051c4:	440b      	add	r3, r1
 80051c6:	681b      	ldr	r3, [r3, #0]
 80051c8:	4053      	eors	r3, r2
 80051ca:	697a      	ldr	r2, [r7, #20]
 80051cc:	4313      	orrs	r3, r2
 80051ce:	617b      	str	r3, [r7, #20]
	for (i = num_words - 1; i >= 0; --i) {
 80051d0:	7cfb      	ldrb	r3, [r7, #19]
 80051d2:	3b01      	subs	r3, #1
 80051d4:	b2db      	uxtb	r3, r3
 80051d6:	74fb      	strb	r3, [r7, #19]
 80051d8:	f997 3013 	ldrsb.w	r3, [r7, #19]
 80051dc:	2b00      	cmp	r3, #0
 80051de:	dae7      	bge.n	80051b0 <uECC_vli_equal+0x1c>
	}
	return !(diff == 0);
 80051e0:	697b      	ldr	r3, [r7, #20]
 80051e2:	2b00      	cmp	r3, #0
 80051e4:	bf14      	ite	ne
 80051e6:	2301      	movne	r3, #1
 80051e8:	2300      	moveq	r3, #0
 80051ea:	b2db      	uxtb	r3, r3
}
 80051ec:	4618      	mov	r0, r3
 80051ee:	371c      	adds	r7, #28
 80051f0:	46bd      	mov	sp, r7
 80051f2:	f85d 7b04 	ldr.w	r7, [sp], #4
 80051f6:	4770      	bx	lr

080051f8 <cond_set>:

uECC_word_t cond_set(uECC_word_t p_true, uECC_word_t p_false, unsigned int cond)
{
 80051f8:	b480      	push	{r7}
 80051fa:	b085      	sub	sp, #20
 80051fc:	af00      	add	r7, sp, #0
 80051fe:	60f8      	str	r0, [r7, #12]
 8005200:	60b9      	str	r1, [r7, #8]
 8005202:	607a      	str	r2, [r7, #4]
	return (p_true*(cond)) | (p_false*(!cond));
 8005204:	68fb      	ldr	r3, [r7, #12]
 8005206:	687a      	ldr	r2, [r7, #4]
 8005208:	fb03 f202 	mul.w	r2, r3, r2
 800520c:	687b      	ldr	r3, [r7, #4]
 800520e:	2b00      	cmp	r3, #0
 8005210:	bf0c      	ite	eq
 8005212:	2301      	moveq	r3, #1
 8005214:	2300      	movne	r3, #0
 8005216:	b2db      	uxtb	r3, r3
 8005218:	4619      	mov	r1, r3
 800521a:	68bb      	ldr	r3, [r7, #8]
 800521c:	fb01 f303 	mul.w	r3, r1, r3
 8005220:	4313      	orrs	r3, r2
}
 8005222:	4618      	mov	r0, r3
 8005224:	3714      	adds	r7, #20
 8005226:	46bd      	mov	sp, r7
 8005228:	f85d 7b04 	ldr.w	r7, [sp], #4
 800522c:	4770      	bx	lr

0800522e <uECC_vli_sub>:

/* Computes result = left - right, returning borrow, in constant time.
 * Can modify in place. */
uECC_word_t uECC_vli_sub(uECC_word_t *result, const uECC_word_t *left,
			 const uECC_word_t *right, wordcount_t num_words)
{
 800522e:	b580      	push	{r7, lr}
 8005230:	b088      	sub	sp, #32
 8005232:	af00      	add	r7, sp, #0
 8005234:	60f8      	str	r0, [r7, #12]
 8005236:	60b9      	str	r1, [r7, #8]
 8005238:	607a      	str	r2, [r7, #4]
 800523a:	70fb      	strb	r3, [r7, #3]
	uECC_word_t borrow = 0;
 800523c:	2300      	movs	r3, #0
 800523e:	61fb      	str	r3, [r7, #28]
	wordcount_t i;
	for (i = 0; i < num_words; ++i) {
 8005240:	2300      	movs	r3, #0
 8005242:	76fb      	strb	r3, [r7, #27]
 8005244:	e039      	b.n	80052ba <uECC_vli_sub+0x8c>
		uECC_word_t diff = left[i] - right[i] - borrow;
 8005246:	f997 301b 	ldrsb.w	r3, [r7, #27]
 800524a:	009b      	lsls	r3, r3, #2
 800524c:	68ba      	ldr	r2, [r7, #8]
 800524e:	4413      	add	r3, r2
 8005250:	681a      	ldr	r2, [r3, #0]
 8005252:	f997 301b 	ldrsb.w	r3, [r7, #27]
 8005256:	009b      	lsls	r3, r3, #2
 8005258:	6879      	ldr	r1, [r7, #4]
 800525a:	440b      	add	r3, r1
 800525c:	681b      	ldr	r3, [r3, #0]
 800525e:	1ad2      	subs	r2, r2, r3
 8005260:	69fb      	ldr	r3, [r7, #28]
 8005262:	1ad3      	subs	r3, r2, r3
 8005264:	617b      	str	r3, [r7, #20]
		uECC_word_t val = (diff > left[i]);
 8005266:	f997 301b 	ldrsb.w	r3, [r7, #27]
 800526a:	009b      	lsls	r3, r3, #2
 800526c:	68ba      	ldr	r2, [r7, #8]
 800526e:	4413      	add	r3, r2
 8005270:	681b      	ldr	r3, [r3, #0]
 8005272:	697a      	ldr	r2, [r7, #20]
 8005274:	429a      	cmp	r2, r3
 8005276:	bf8c      	ite	hi
 8005278:	2301      	movhi	r3, #1
 800527a:	2300      	movls	r3, #0
 800527c:	b2db      	uxtb	r3, r3
 800527e:	613b      	str	r3, [r7, #16]
		borrow = cond_set(val, borrow, (diff != left[i]));
 8005280:	f997 301b 	ldrsb.w	r3, [r7, #27]
 8005284:	009b      	lsls	r3, r3, #2
 8005286:	68ba      	ldr	r2, [r7, #8]
 8005288:	4413      	add	r3, r2
 800528a:	681b      	ldr	r3, [r3, #0]
 800528c:	697a      	ldr	r2, [r7, #20]
 800528e:	429a      	cmp	r2, r3
 8005290:	bf14      	ite	ne
 8005292:	2301      	movne	r3, #1
 8005294:	2300      	moveq	r3, #0
 8005296:	b2db      	uxtb	r3, r3
 8005298:	461a      	mov	r2, r3
 800529a:	69f9      	ldr	r1, [r7, #28]
 800529c:	6938      	ldr	r0, [r7, #16]
 800529e:	f7ff ffab 	bl	80051f8 <cond_set>
 80052a2:	61f8      	str	r0, [r7, #28]

		result[i] = diff;
 80052a4:	f997 301b 	ldrsb.w	r3, [r7, #27]
 80052a8:	009b      	lsls	r3, r3, #2
 80052aa:	68fa      	ldr	r2, [r7, #12]
 80052ac:	4413      	add	r3, r2
 80052ae:	697a      	ldr	r2, [r7, #20]
 80052b0:	601a      	str	r2, [r3, #0]
	for (i = 0; i < num_words; ++i) {
 80052b2:	7efb      	ldrb	r3, [r7, #27]
 80052b4:	3301      	adds	r3, #1
 80052b6:	b2db      	uxtb	r3, r3
 80052b8:	76fb      	strb	r3, [r7, #27]
 80052ba:	f997 201b 	ldrsb.w	r2, [r7, #27]
 80052be:	f997 3003 	ldrsb.w	r3, [r7, #3]
 80052c2:	429a      	cmp	r2, r3
 80052c4:	dbbf      	blt.n	8005246 <uECC_vli_sub+0x18>
	}
	return borrow;
 80052c6:	69fb      	ldr	r3, [r7, #28]
}
 80052c8:	4618      	mov	r0, r3
 80052ca:	3720      	adds	r7, #32
 80052cc:	46bd      	mov	sp, r7
 80052ce:	bd80      	pop	{r7, pc}

080052d0 <uECC_vli_add>:

/* Computes result = left + right, returning carry, in constant time.
 * Can modify in place. */
static uECC_word_t uECC_vli_add(uECC_word_t *result, const uECC_word_t *left,
				const uECC_word_t *right, wordcount_t num_words)
{
 80052d0:	b580      	push	{r7, lr}
 80052d2:	b088      	sub	sp, #32
 80052d4:	af00      	add	r7, sp, #0
 80052d6:	60f8      	str	r0, [r7, #12]
 80052d8:	60b9      	str	r1, [r7, #8]
 80052da:	607a      	str	r2, [r7, #4]
 80052dc:	70fb      	strb	r3, [r7, #3]
	uECC_word_t carry = 0;
 80052de:	2300      	movs	r3, #0
 80052e0:	61fb      	str	r3, [r7, #28]
	wordcount_t i;
	for (i = 0; i < num_words; ++i) {
 80052e2:	2300      	movs	r3, #0
 80052e4:	76fb      	strb	r3, [r7, #27]
 80052e6:	e039      	b.n	800535c <uECC_vli_add+0x8c>
		uECC_word_t sum = left[i] + right[i] + carry;
 80052e8:	f997 301b 	ldrsb.w	r3, [r7, #27]
 80052ec:	009b      	lsls	r3, r3, #2
 80052ee:	68ba      	ldr	r2, [r7, #8]
 80052f0:	4413      	add	r3, r2
 80052f2:	681a      	ldr	r2, [r3, #0]
 80052f4:	f997 301b 	ldrsb.w	r3, [r7, #27]
 80052f8:	009b      	lsls	r3, r3, #2
 80052fa:	6879      	ldr	r1, [r7, #4]
 80052fc:	440b      	add	r3, r1
 80052fe:	681b      	ldr	r3, [r3, #0]
 8005300:	4413      	add	r3, r2
 8005302:	69fa      	ldr	r2, [r7, #28]
 8005304:	4413      	add	r3, r2
 8005306:	617b      	str	r3, [r7, #20]
		uECC_word_t val = (sum < left[i]);
 8005308:	f997 301b 	ldrsb.w	r3, [r7, #27]
 800530c:	009b      	lsls	r3, r3, #2
 800530e:	68ba      	ldr	r2, [r7, #8]
 8005310:	4413      	add	r3, r2
 8005312:	681b      	ldr	r3, [r3, #0]
 8005314:	697a      	ldr	r2, [r7, #20]
 8005316:	429a      	cmp	r2, r3
 8005318:	bf34      	ite	cc
 800531a:	2301      	movcc	r3, #1
 800531c:	2300      	movcs	r3, #0
 800531e:	b2db      	uxtb	r3, r3
 8005320:	613b      	str	r3, [r7, #16]
		carry = cond_set(val, carry, (sum != left[i]));
 8005322:	f997 301b 	ldrsb.w	r3, [r7, #27]
 8005326:	009b      	lsls	r3, r3, #2
 8005328:	68ba      	ldr	r2, [r7, #8]
 800532a:	4413      	add	r3, r2
 800532c:	681b      	ldr	r3, [r3, #0]
 800532e:	697a      	ldr	r2, [r7, #20]
 8005330:	429a      	cmp	r2, r3
 8005332:	bf14      	ite	ne
 8005334:	2301      	movne	r3, #1
 8005336:	2300      	moveq	r3, #0
 8005338:	b2db      	uxtb	r3, r3
 800533a:	461a      	mov	r2, r3
 800533c:	69f9      	ldr	r1, [r7, #28]
 800533e:	6938      	ldr	r0, [r7, #16]
 8005340:	f7ff ff5a 	bl	80051f8 <cond_set>
 8005344:	61f8      	str	r0, [r7, #28]
		result[i] = sum;
 8005346:	f997 301b 	ldrsb.w	r3, [r7, #27]
 800534a:	009b      	lsls	r3, r3, #2
 800534c:	68fa      	ldr	r2, [r7, #12]
 800534e:	4413      	add	r3, r2
 8005350:	697a      	ldr	r2, [r7, #20]
 8005352:	601a      	str	r2, [r3, #0]
	for (i = 0; i < num_words; ++i) {
 8005354:	7efb      	ldrb	r3, [r7, #27]
 8005356:	3301      	adds	r3, #1
 8005358:	b2db      	uxtb	r3, r3
 800535a:	76fb      	strb	r3, [r7, #27]
 800535c:	f997 201b 	ldrsb.w	r2, [r7, #27]
 8005360:	f997 3003 	ldrsb.w	r3, [r7, #3]
 8005364:	429a      	cmp	r2, r3
 8005366:	dbbf      	blt.n	80052e8 <uECC_vli_add+0x18>
	}
	return carry;
 8005368:	69fb      	ldr	r3, [r7, #28]
}
 800536a:	4618      	mov	r0, r3
 800536c:	3720      	adds	r7, #32
 800536e:	46bd      	mov	sp, r7
 8005370:	bd80      	pop	{r7, pc}

08005372 <uECC_vli_rshift1>:
	return (!equal - 2 * neg);
}

/* Computes vli = vli >> 1. */
static void uECC_vli_rshift1(uECC_word_t *vli, wordcount_t num_words)
{
 8005372:	b480      	push	{r7}
 8005374:	b087      	sub	sp, #28
 8005376:	af00      	add	r7, sp, #0
 8005378:	6078      	str	r0, [r7, #4]
 800537a:	460b      	mov	r3, r1
 800537c:	70fb      	strb	r3, [r7, #3]
	uECC_word_t *end = vli;
 800537e:	687b      	ldr	r3, [r7, #4]
 8005380:	613b      	str	r3, [r7, #16]
	uECC_word_t carry = 0;
 8005382:	2300      	movs	r3, #0
 8005384:	617b      	str	r3, [r7, #20]

	vli += num_words;
 8005386:	f997 3003 	ldrsb.w	r3, [r7, #3]
 800538a:	009b      	lsls	r3, r3, #2
 800538c:	687a      	ldr	r2, [r7, #4]
 800538e:	4413      	add	r3, r2
 8005390:	607b      	str	r3, [r7, #4]
	while (vli-- > end) {
 8005392:	e00b      	b.n	80053ac <uECC_vli_rshift1+0x3a>
		uECC_word_t temp = *vli;
 8005394:	687b      	ldr	r3, [r7, #4]
 8005396:	681b      	ldr	r3, [r3, #0]
 8005398:	60fb      	str	r3, [r7, #12]
		*vli = (temp >> 1) | carry;
 800539a:	68fb      	ldr	r3, [r7, #12]
 800539c:	085a      	lsrs	r2, r3, #1
 800539e:	697b      	ldr	r3, [r7, #20]
 80053a0:	431a      	orrs	r2, r3
 80053a2:	687b      	ldr	r3, [r7, #4]
 80053a4:	601a      	str	r2, [r3, #0]
		carry = temp << (uECC_WORD_BITS - 1);
 80053a6:	68fb      	ldr	r3, [r7, #12]
 80053a8:	07db      	lsls	r3, r3, #31
 80053aa:	617b      	str	r3, [r7, #20]
	while (vli-- > end) {
 80053ac:	687b      	ldr	r3, [r7, #4]
 80053ae:	1f1a      	subs	r2, r3, #4
 80053b0:	607a      	str	r2, [r7, #4]
 80053b2:	693a      	ldr	r2, [r7, #16]
 80053b4:	429a      	cmp	r2, r3
 80053b6:	d3ed      	bcc.n	8005394 <uECC_vli_rshift1+0x22>
	}
}
 80053b8:	bf00      	nop
 80053ba:	bf00      	nop
 80053bc:	371c      	adds	r7, #28
 80053be:	46bd      	mov	sp, r7
 80053c0:	f85d 7b04 	ldr.w	r7, [sp], #4
 80053c4:	4770      	bx	lr

080053c6 <muladd>:

static void muladd(uECC_word_t a, uECC_word_t b, uECC_word_t *r0,
		   uECC_word_t *r1, uECC_word_t *r2)
{
 80053c6:	e92d 0fb0 	stmdb	sp!, {r4, r5, r7, r8, r9, sl, fp}
 80053ca:	b091      	sub	sp, #68	@ 0x44
 80053cc:	af00      	add	r7, sp, #0
 80053ce:	62f8      	str	r0, [r7, #44]	@ 0x2c
 80053d0:	62b9      	str	r1, [r7, #40]	@ 0x28
 80053d2:	627a      	str	r2, [r7, #36]	@ 0x24
 80053d4:	623b      	str	r3, [r7, #32]

	uECC_dword_t p = (uECC_dword_t)a * b;
 80053d6:	6afb      	ldr	r3, [r7, #44]	@ 0x2c
 80053d8:	2200      	movs	r2, #0
 80053da:	4698      	mov	r8, r3
 80053dc:	4691      	mov	r9, r2
 80053de:	6abb      	ldr	r3, [r7, #40]	@ 0x28
 80053e0:	2200      	movs	r2, #0
 80053e2:	469a      	mov	sl, r3
 80053e4:	4693      	mov	fp, r2
 80053e6:	fb0a f209 	mul.w	r2, sl, r9
 80053ea:	fb08 f30b 	mul.w	r3, r8, fp
 80053ee:	4413      	add	r3, r2
 80053f0:	fba8 450a 	umull	r4, r5, r8, sl
 80053f4:	442b      	add	r3, r5
 80053f6:	461d      	mov	r5, r3
 80053f8:	e9c7 450e 	strd	r4, r5, [r7, #56]	@ 0x38
 80053fc:	e9c7 450e 	strd	r4, r5, [r7, #56]	@ 0x38
	uECC_dword_t r01 = ((uECC_dword_t)(*r1) << uECC_WORD_BITS) | *r0;
 8005400:	6a3b      	ldr	r3, [r7, #32]
 8005402:	681b      	ldr	r3, [r3, #0]
 8005404:	2200      	movs	r2, #0
 8005406:	61bb      	str	r3, [r7, #24]
 8005408:	61fa      	str	r2, [r7, #28]
 800540a:	f04f 0200 	mov.w	r2, #0
 800540e:	f04f 0300 	mov.w	r3, #0
 8005412:	69b9      	ldr	r1, [r7, #24]
 8005414:	000b      	movs	r3, r1
 8005416:	2200      	movs	r2, #0
 8005418:	6a79      	ldr	r1, [r7, #36]	@ 0x24
 800541a:	6809      	ldr	r1, [r1, #0]
 800541c:	2000      	movs	r0, #0
 800541e:	6139      	str	r1, [r7, #16]
 8005420:	6178      	str	r0, [r7, #20]
 8005422:	e9d7 4504 	ldrd	r4, r5, [r7, #16]
 8005426:	4621      	mov	r1, r4
 8005428:	4311      	orrs	r1, r2
 800542a:	60b9      	str	r1, [r7, #8]
 800542c:	4629      	mov	r1, r5
 800542e:	4319      	orrs	r1, r3
 8005430:	60f9      	str	r1, [r7, #12]
 8005432:	e9d7 3402 	ldrd	r3, r4, [r7, #8]
 8005436:	e9c7 340c 	strd	r3, r4, [r7, #48]	@ 0x30
	r01 += p;
 800543a:	e9d7 010c 	ldrd	r0, r1, [r7, #48]	@ 0x30
 800543e:	e9d7 230e 	ldrd	r2, r3, [r7, #56]	@ 0x38
 8005442:	1884      	adds	r4, r0, r2
 8005444:	603c      	str	r4, [r7, #0]
 8005446:	eb41 0303 	adc.w	r3, r1, r3
 800544a:	607b      	str	r3, [r7, #4]
 800544c:	e9d7 3400 	ldrd	r3, r4, [r7]
 8005450:	e9c7 340c 	strd	r3, r4, [r7, #48]	@ 0x30
	*r2 += (r01 < p);
 8005454:	6e3b      	ldr	r3, [r7, #96]	@ 0x60
 8005456:	681c      	ldr	r4, [r3, #0]
 8005458:	e9d7 010c 	ldrd	r0, r1, [r7, #48]	@ 0x30
 800545c:	e9d7 230e 	ldrd	r2, r3, [r7, #56]	@ 0x38
 8005460:	4290      	cmp	r0, r2
 8005462:	eb71 0303 	sbcs.w	r3, r1, r3
 8005466:	bf34      	ite	cc
 8005468:	2301      	movcc	r3, #1
 800546a:	2300      	movcs	r3, #0
 800546c:	b2db      	uxtb	r3, r3
 800546e:	18e2      	adds	r2, r4, r3
 8005470:	6e3b      	ldr	r3, [r7, #96]	@ 0x60
 8005472:	601a      	str	r2, [r3, #0]
	*r1 = r01 >> uECC_WORD_BITS;
 8005474:	e9d7 010c 	ldrd	r0, r1, [r7, #48]	@ 0x30
 8005478:	f04f 0200 	mov.w	r2, #0
 800547c:	f04f 0300 	mov.w	r3, #0
 8005480:	000a      	movs	r2, r1
 8005482:	2300      	movs	r3, #0
 8005484:	6a3b      	ldr	r3, [r7, #32]
 8005486:	601a      	str	r2, [r3, #0]
	*r0 = (uECC_word_t)r01;
 8005488:	6b3a      	ldr	r2, [r7, #48]	@ 0x30
 800548a:	6a7b      	ldr	r3, [r7, #36]	@ 0x24
 800548c:	601a      	str	r2, [r3, #0]

}
 800548e:	bf00      	nop
 8005490:	3744      	adds	r7, #68	@ 0x44
 8005492:	46bd      	mov	sp, r7
 8005494:	e8bd 0fb0 	ldmia.w	sp!, {r4, r5, r7, r8, r9, sl, fp}
 8005498:	4770      	bx	lr

0800549a <uECC_vli_mult>:

/* Computes result = left * right. Result must be 2 * num_words long. */
static void uECC_vli_mult(uECC_word_t *result, const uECC_word_t *left,
			  const uECC_word_t *right, wordcount_t num_words)
{
 800549a:	b590      	push	{r4, r7, lr}
 800549c:	b08b      	sub	sp, #44	@ 0x2c
 800549e:	af02      	add	r7, sp, #8
 80054a0:	60f8      	str	r0, [r7, #12]
 80054a2:	60b9      	str	r1, [r7, #8]
 80054a4:	607a      	str	r2, [r7, #4]
 80054a6:	70fb      	strb	r3, [r7, #3]

	uECC_word_t r0 = 0;
 80054a8:	2300      	movs	r3, #0
 80054aa:	61bb      	str	r3, [r7, #24]
	uECC_word_t r1 = 0;
 80054ac:	2300      	movs	r3, #0
 80054ae:	617b      	str	r3, [r7, #20]
	uECC_word_t r2 = 0;
 80054b0:	2300      	movs	r3, #0
 80054b2:	613b      	str	r3, [r7, #16]
	wordcount_t i, k;

	/* Compute each digit of result in sequence, maintaining the carries. */
	for (k = 0; k < num_words; ++k) {
 80054b4:	2300      	movs	r3, #0
 80054b6:	77bb      	strb	r3, [r7, #30]
 80054b8:	e036      	b.n	8005528 <uECC_vli_mult+0x8e>

		for (i = 0; i <= k; ++i) {
 80054ba:	2300      	movs	r3, #0
 80054bc:	77fb      	strb	r3, [r7, #31]
 80054be:	e01c      	b.n	80054fa <uECC_vli_mult+0x60>
			muladd(left[i], right[k - i], &r0, &r1, &r2);
 80054c0:	f997 301f 	ldrsb.w	r3, [r7, #31]
 80054c4:	009b      	lsls	r3, r3, #2
 80054c6:	68ba      	ldr	r2, [r7, #8]
 80054c8:	4413      	add	r3, r2
 80054ca:	6818      	ldr	r0, [r3, #0]
 80054cc:	f997 201e 	ldrsb.w	r2, [r7, #30]
 80054d0:	f997 301f 	ldrsb.w	r3, [r7, #31]
 80054d4:	1ad3      	subs	r3, r2, r3
 80054d6:	009b      	lsls	r3, r3, #2
 80054d8:	687a      	ldr	r2, [r7, #4]
 80054da:	4413      	add	r3, r2
 80054dc:	6819      	ldr	r1, [r3, #0]
 80054de:	f107 0414 	add.w	r4, r7, #20
 80054e2:	f107 0218 	add.w	r2, r7, #24
 80054e6:	f107 0310 	add.w	r3, r7, #16
 80054ea:	9300      	str	r3, [sp, #0]
 80054ec:	4623      	mov	r3, r4
 80054ee:	f7ff ff6a 	bl	80053c6 <muladd>
		for (i = 0; i <= k; ++i) {
 80054f2:	7ffb      	ldrb	r3, [r7, #31]
 80054f4:	3301      	adds	r3, #1
 80054f6:	b2db      	uxtb	r3, r3
 80054f8:	77fb      	strb	r3, [r7, #31]
 80054fa:	f997 201f 	ldrsb.w	r2, [r7, #31]
 80054fe:	f997 301e 	ldrsb.w	r3, [r7, #30]
 8005502:	429a      	cmp	r2, r3
 8005504:	dddc      	ble.n	80054c0 <uECC_vli_mult+0x26>
		}

		result[k] = r0;
 8005506:	f997 301e 	ldrsb.w	r3, [r7, #30]
 800550a:	009b      	lsls	r3, r3, #2
 800550c:	68fa      	ldr	r2, [r7, #12]
 800550e:	4413      	add	r3, r2
 8005510:	69ba      	ldr	r2, [r7, #24]
 8005512:	601a      	str	r2, [r3, #0]
		r0 = r1;
 8005514:	697b      	ldr	r3, [r7, #20]
 8005516:	61bb      	str	r3, [r7, #24]
		r1 = r2;
 8005518:	693b      	ldr	r3, [r7, #16]
 800551a:	617b      	str	r3, [r7, #20]
		r2 = 0;
 800551c:	2300      	movs	r3, #0
 800551e:	613b      	str	r3, [r7, #16]
	for (k = 0; k < num_words; ++k) {
 8005520:	7fbb      	ldrb	r3, [r7, #30]
 8005522:	3301      	adds	r3, #1
 8005524:	b2db      	uxtb	r3, r3
 8005526:	77bb      	strb	r3, [r7, #30]
 8005528:	f997 201e 	ldrsb.w	r2, [r7, #30]
 800552c:	f997 3003 	ldrsb.w	r3, [r7, #3]
 8005530:	429a      	cmp	r2, r3
 8005532:	dbc2      	blt.n	80054ba <uECC_vli_mult+0x20>
	}

	for (k = num_words; k < num_words * 2 - 1; ++k) {
 8005534:	78fb      	ldrb	r3, [r7, #3]
 8005536:	77bb      	strb	r3, [r7, #30]
 8005538:	e03b      	b.n	80055b2 <uECC_vli_mult+0x118>

		for (i = (k + 1) - num_words; i < num_words; ++i) {
 800553a:	7fba      	ldrb	r2, [r7, #30]
 800553c:	78fb      	ldrb	r3, [r7, #3]
 800553e:	1ad3      	subs	r3, r2, r3
 8005540:	b2db      	uxtb	r3, r3
 8005542:	3301      	adds	r3, #1
 8005544:	b2db      	uxtb	r3, r3
 8005546:	77fb      	strb	r3, [r7, #31]
 8005548:	e01c      	b.n	8005584 <uECC_vli_mult+0xea>
			muladd(left[i], right[k - i], &r0, &r1, &r2);
 800554a:	f997 301f 	ldrsb.w	r3, [r7, #31]
 800554e:	009b      	lsls	r3, r3, #2
 8005550:	68ba      	ldr	r2, [r7, #8]
 8005552:	4413      	add	r3, r2
 8005554:	6818      	ldr	r0, [r3, #0]
 8005556:	f997 201e 	ldrsb.w	r2, [r7, #30]
 800555a:	f997 301f 	ldrsb.w	r3, [r7, #31]
 800555e:	1ad3      	subs	r3, r2, r3
 8005560:	009b      	lsls	r3, r3, #2
 8005562:	687a      	ldr	r2, [r7, #4]
 8005564:	4413      	add	r3, r2
 8005566:	6819      	ldr	r1, [r3, #0]
 8005568:	f107 0414 	add.w	r4, r7, #20
 800556c:	f107 0218 	add.w	r2, r7, #24
 8005570:	f107 0310 	add.w	r3, r7, #16
 8005574:	9300      	str	r3, [sp, #0]
 8005576:	4623      	mov	r3, r4
 8005578:	f7ff ff25 	bl	80053c6 <muladd>
		for (i = (k + 1) - num_words; i < num_words; ++i) {
 800557c:	7ffb      	ldrb	r3, [r7, #31]
 800557e:	3301      	adds	r3, #1
 8005580:	b2db      	uxtb	r3, r3
 8005582:	77fb      	strb	r3, [r7, #31]
 8005584:	f997 201f 	ldrsb.w	r2, [r7, #31]
 8005588:	f997 3003 	ldrsb.w	r3, [r7, #3]
 800558c:	429a      	cmp	r2, r3
 800558e:	dbdc      	blt.n	800554a <uECC_vli_mult+0xb0>
		}
		result[k] = r0;
 8005590:	f997 301e 	ldrsb.w	r3, [r7, #30]
 8005594:	009b      	lsls	r3, r3, #2
 8005596:	68fa      	ldr	r2, [r7, #12]
 8005598:	4413      	add	r3, r2
 800559a:	69ba      	ldr	r2, [r7, #24]
 800559c:	601a      	str	r2, [r3, #0]
		r0 = r1;
 800559e:	697b      	ldr	r3, [r7, #20]
 80055a0:	61bb      	str	r3, [r7, #24]
		r1 = r2;
 80055a2:	693b      	ldr	r3, [r7, #16]
 80055a4:	617b      	str	r3, [r7, #20]
		r2 = 0;
 80055a6:	2300      	movs	r3, #0
 80055a8:	613b      	str	r3, [r7, #16]
	for (k = num_words; k < num_words * 2 - 1; ++k) {
 80055aa:	7fbb      	ldrb	r3, [r7, #30]
 80055ac:	3301      	adds	r3, #1
 80055ae:	b2db      	uxtb	r3, r3
 80055b0:	77bb      	strb	r3, [r7, #30]
 80055b2:	f997 201e 	ldrsb.w	r2, [r7, #30]
 80055b6:	f997 3003 	ldrsb.w	r3, [r7, #3]
 80055ba:	005b      	lsls	r3, r3, #1
 80055bc:	3b01      	subs	r3, #1
 80055be:	429a      	cmp	r2, r3
 80055c0:	dbbb      	blt.n	800553a <uECC_vli_mult+0xa0>
	}
	result[num_words * 2 - 1] = r0;
 80055c2:	f997 3003 	ldrsb.w	r3, [r7, #3]
 80055c6:	00db      	lsls	r3, r3, #3
 80055c8:	3b04      	subs	r3, #4
 80055ca:	68fa      	ldr	r2, [r7, #12]
 80055cc:	4413      	add	r3, r2
 80055ce:	69ba      	ldr	r2, [r7, #24]
 80055d0:	601a      	str	r2, [r3, #0]
}
 80055d2:	bf00      	nop
 80055d4:	3724      	adds	r7, #36	@ 0x24
 80055d6:	46bd      	mov	sp, r7
 80055d8:	bd90      	pop	{r4, r7, pc}

080055da <uECC_vli_modAdd>:

void uECC_vli_modAdd(uECC_word_t *result, const uECC_word_t *left,
		     const uECC_word_t *right, const uECC_word_t *mod,
		     wordcount_t num_words)
{
 80055da:	b580      	push	{r7, lr}
 80055dc:	b086      	sub	sp, #24
 80055de:	af00      	add	r7, sp, #0
 80055e0:	60f8      	str	r0, [r7, #12]
 80055e2:	60b9      	str	r1, [r7, #8]
 80055e4:	607a      	str	r2, [r7, #4]
 80055e6:	603b      	str	r3, [r7, #0]
	uECC_word_t carry = uECC_vli_add(result, left, right, num_words);
 80055e8:	f997 3020 	ldrsb.w	r3, [r7, #32]
 80055ec:	687a      	ldr	r2, [r7, #4]
 80055ee:	68b9      	ldr	r1, [r7, #8]
 80055f0:	68f8      	ldr	r0, [r7, #12]
 80055f2:	f7ff fe6d 	bl	80052d0 <uECC_vli_add>
 80055f6:	6178      	str	r0, [r7, #20]
	if (carry || uECC_vli_cmp_unsafe(mod, result, num_words) != 1) {
 80055f8:	697b      	ldr	r3, [r7, #20]
 80055fa:	2b00      	cmp	r3, #0
 80055fc:	d109      	bne.n	8005612 <uECC_vli_modAdd+0x38>
 80055fe:	f997 3020 	ldrsb.w	r3, [r7, #32]
 8005602:	461a      	mov	r2, r3
 8005604:	68f9      	ldr	r1, [r7, #12]
 8005606:	6838      	ldr	r0, [r7, #0]
 8005608:	f7ff fd88 	bl	800511c <uECC_vli_cmp_unsafe>
 800560c:	4603      	mov	r3, r0
 800560e:	2b01      	cmp	r3, #1
 8005610:	d006      	beq.n	8005620 <uECC_vli_modAdd+0x46>
	/* result > mod (result = mod + remainder), so subtract mod to get
	 * remainder. */
		uECC_vli_sub(result, result, mod, num_words);
 8005612:	f997 3020 	ldrsb.w	r3, [r7, #32]
 8005616:	683a      	ldr	r2, [r7, #0]
 8005618:	68f9      	ldr	r1, [r7, #12]
 800561a:	68f8      	ldr	r0, [r7, #12]
 800561c:	f7ff fe07 	bl	800522e <uECC_vli_sub>
	}
}
 8005620:	bf00      	nop
 8005622:	3718      	adds	r7, #24
 8005624:	46bd      	mov	sp, r7
 8005626:	bd80      	pop	{r7, pc}

08005628 <uECC_vli_modSub>:

void uECC_vli_modSub(uECC_word_t *result, const uECC_word_t *left,
		     const uECC_word_t *right, const uECC_word_t *mod,
		     wordcount_t num_words)
{
 8005628:	b580      	push	{r7, lr}
 800562a:	b086      	sub	sp, #24
 800562c:	af00      	add	r7, sp, #0
 800562e:	60f8      	str	r0, [r7, #12]
 8005630:	60b9      	str	r1, [r7, #8]
 8005632:	607a      	str	r2, [r7, #4]
 8005634:	603b      	str	r3, [r7, #0]
	uECC_word_t l_borrow = uECC_vli_sub(result, left, right, num_words);
 8005636:	f997 3020 	ldrsb.w	r3, [r7, #32]
 800563a:	687a      	ldr	r2, [r7, #4]
 800563c:	68b9      	ldr	r1, [r7, #8]
 800563e:	68f8      	ldr	r0, [r7, #12]
 8005640:	f7ff fdf5 	bl	800522e <uECC_vli_sub>
 8005644:	6178      	str	r0, [r7, #20]
	if (l_borrow) {
 8005646:	697b      	ldr	r3, [r7, #20]
 8005648:	2b00      	cmp	r3, #0
 800564a:	d006      	beq.n	800565a <uECC_vli_modSub+0x32>
		/* In this case, result == -diff == (max int) - diff. Since -x % d == d - x,
		 * we can get the correct result from result + mod (with overflow). */
		uECC_vli_add(result, result, mod, num_words);
 800564c:	f997 3020 	ldrsb.w	r3, [r7, #32]
 8005650:	683a      	ldr	r2, [r7, #0]
 8005652:	68f9      	ldr	r1, [r7, #12]
 8005654:	68f8      	ldr	r0, [r7, #12]
 8005656:	f7ff fe3b 	bl	80052d0 <uECC_vli_add>
	}
}
 800565a:	bf00      	nop
 800565c:	3718      	adds	r7, #24
 800565e:	46bd      	mov	sp, r7
 8005660:	bd80      	pop	{r7, pc}

08005662 <uECC_vli_mmod>:

/* Computes result = product % mod, where product is 2N words long. */
/* Currently only designed to work for curve_p or curve_n. */
void uECC_vli_mmod(uECC_word_t *result, uECC_word_t *product,
    		   const uECC_word_t *mod, wordcount_t num_words)
{
 8005662:	b590      	push	{r4, r7, lr}
 8005664:	b0ad      	sub	sp, #180	@ 0xb4
 8005666:	af00      	add	r7, sp, #0
 8005668:	60f8      	str	r0, [r7, #12]
 800566a:	60b9      	str	r1, [r7, #8]
 800566c:	607a      	str	r2, [r7, #4]
 800566e:	70fb      	strb	r3, [r7, #3]
	uECC_word_t mod_multiple[2 * NUM_ECC_WORDS];
	uECC_word_t tmp[2 * NUM_ECC_WORDS];
	uECC_word_t *v[2] = {tmp, product};
 8005670:	f107 0318 	add.w	r3, r7, #24
 8005674:	613b      	str	r3, [r7, #16]
 8005676:	68bb      	ldr	r3, [r7, #8]
 8005678:	617b      	str	r3, [r7, #20]
	uECC_word_t index;

	/* Shift mod so its highest set bit is at the maximum position. */
	bitcount_t shift = (num_words * 2 * uECC_WORD_BITS) -
 800567a:	f997 3003 	ldrsb.w	r3, [r7, #3]
 800567e:	b29b      	uxth	r3, r3
 8005680:	019b      	lsls	r3, r3, #6
 8005682:	b29c      	uxth	r4, r3
			   uECC_vli_numBits(mod, num_words);
 8005684:	f997 3003 	ldrsb.w	r3, [r7, #3]
 8005688:	4619      	mov	r1, r3
 800568a:	6878      	ldr	r0, [r7, #4]
 800568c:	f7ff fce5 	bl	800505a <uECC_vli_numBits>
 8005690:	4603      	mov	r3, r0
 8005692:	b29b      	uxth	r3, r3
	bitcount_t shift = (num_words * 2 * uECC_WORD_BITS) -
 8005694:	1ae3      	subs	r3, r4, r3
 8005696:	b29b      	uxth	r3, r3
 8005698:	f8a7 30aa 	strh.w	r3, [r7, #170]	@ 0xaa
	wordcount_t word_shift = shift / uECC_WORD_BITS;
 800569c:	f9b7 30aa 	ldrsh.w	r3, [r7, #170]	@ 0xaa
 80056a0:	2b00      	cmp	r3, #0
 80056a2:	da00      	bge.n	80056a6 <uECC_vli_mmod+0x44>
 80056a4:	331f      	adds	r3, #31
 80056a6:	115b      	asrs	r3, r3, #5
 80056a8:	b21b      	sxth	r3, r3
 80056aa:	f887 309e 	strb.w	r3, [r7, #158]	@ 0x9e
	wordcount_t bit_shift = shift % uECC_WORD_BITS;
 80056ae:	f9b7 30aa 	ldrsh.w	r3, [r7, #170]	@ 0xaa
 80056b2:	425a      	negs	r2, r3
 80056b4:	f003 031f 	and.w	r3, r3, #31
 80056b8:	f002 021f 	and.w	r2, r2, #31
 80056bc:	bf58      	it	pl
 80056be:	4253      	negpl	r3, r2
 80056c0:	b21b      	sxth	r3, r3
 80056c2:	f887 309d 	strb.w	r3, [r7, #157]	@ 0x9d
	uECC_word_t carry = 0;
 80056c6:	2300      	movs	r3, #0
 80056c8:	f8c7 30a4 	str.w	r3, [r7, #164]	@ 0xa4
	uECC_vli_clear(mod_multiple, word_shift);
 80056cc:	f997 209e 	ldrsb.w	r2, [r7, #158]	@ 0x9e
 80056d0:	f107 0358 	add.w	r3, r7, #88	@ 0x58
 80056d4:	4611      	mov	r1, r2
 80056d6:	4618      	mov	r0, r3
 80056d8:	f7ff fc34 	bl	8004f44 <uECC_vli_clear>
	if (bit_shift > 0) {
 80056dc:	f997 309d 	ldrsb.w	r3, [r7, #157]	@ 0x9d
 80056e0:	2b00      	cmp	r3, #0
 80056e2:	dd34      	ble.n	800574e <uECC_vli_mmod+0xec>
		for(index = 0; index < (uECC_word_t)num_words; ++index) {
 80056e4:	2300      	movs	r3, #0
 80056e6:	f8c7 30ac 	str.w	r3, [r7, #172]	@ 0xac
 80056ea:	e029      	b.n	8005740 <uECC_vli_mmod+0xde>
			mod_multiple[word_shift + index] = (mod[index] << bit_shift) | carry;
 80056ec:	f8d7 30ac 	ldr.w	r3, [r7, #172]	@ 0xac
 80056f0:	009b      	lsls	r3, r3, #2
 80056f2:	687a      	ldr	r2, [r7, #4]
 80056f4:	4413      	add	r3, r2
 80056f6:	681a      	ldr	r2, [r3, #0]
 80056f8:	f997 309d 	ldrsb.w	r3, [r7, #157]	@ 0x9d
 80056fc:	fa02 f103 	lsl.w	r1, r2, r3
 8005700:	f997 209e 	ldrsb.w	r2, [r7, #158]	@ 0x9e
 8005704:	f8d7 30ac 	ldr.w	r3, [r7, #172]	@ 0xac
 8005708:	4413      	add	r3, r2
 800570a:	f8d7 20a4 	ldr.w	r2, [r7, #164]	@ 0xa4
 800570e:	430a      	orrs	r2, r1
 8005710:	009b      	lsls	r3, r3, #2
 8005712:	33b0      	adds	r3, #176	@ 0xb0
 8005714:	443b      	add	r3, r7
 8005716:	f843 2c58 	str.w	r2, [r3, #-88]
			carry = mod[index] >> (uECC_WORD_BITS - bit_shift);
 800571a:	f8d7 30ac 	ldr.w	r3, [r7, #172]	@ 0xac
 800571e:	009b      	lsls	r3, r3, #2
 8005720:	687a      	ldr	r2, [r7, #4]
 8005722:	4413      	add	r3, r2
 8005724:	681a      	ldr	r2, [r3, #0]
 8005726:	f997 309d 	ldrsb.w	r3, [r7, #157]	@ 0x9d
 800572a:	f1c3 0320 	rsb	r3, r3, #32
 800572e:	fa22 f303 	lsr.w	r3, r2, r3
 8005732:	f8c7 30a4 	str.w	r3, [r7, #164]	@ 0xa4
		for(index = 0; index < (uECC_word_t)num_words; ++index) {
 8005736:	f8d7 30ac 	ldr.w	r3, [r7, #172]	@ 0xac
 800573a:	3301      	adds	r3, #1
 800573c:	f8c7 30ac 	str.w	r3, [r7, #172]	@ 0xac
 8005740:	f997 3003 	ldrsb.w	r3, [r7, #3]
 8005744:	f8d7 20ac 	ldr.w	r2, [r7, #172]	@ 0xac
 8005748:	429a      	cmp	r2, r3
 800574a:	d3cf      	bcc.n	80056ec <uECC_vli_mmod+0x8a>
 800574c:	e00b      	b.n	8005766 <uECC_vli_mmod+0x104>
		}
	} else {
		uECC_vli_set(mod_multiple + word_shift, mod, num_words);
 800574e:	f997 309e 	ldrsb.w	r3, [r7, #158]	@ 0x9e
 8005752:	009b      	lsls	r3, r3, #2
 8005754:	f107 0258 	add.w	r2, r7, #88	@ 0x58
 8005758:	4413      	add	r3, r2
 800575a:	f997 2003 	ldrsb.w	r2, [r7, #3]
 800575e:	6879      	ldr	r1, [r7, #4]
 8005760:	4618      	mov	r0, r3
 8005762:	f7ff fcb4 	bl	80050ce <uECC_vli_set>
	}

	for (index = 1; shift >= 0; --shift) {
 8005766:	2301      	movs	r3, #1
 8005768:	f8c7 30ac 	str.w	r3, [r7, #172]	@ 0xac
 800576c:	e09f      	b.n	80058ae <uECC_vli_mmod+0x24c>
		uECC_word_t borrow = 0;
 800576e:	2300      	movs	r3, #0
 8005770:	f8c7 30a0 	str.w	r3, [r7, #160]	@ 0xa0
		wordcount_t i;
		for (i = 0; i < num_words * 2; ++i) {
 8005774:	2300      	movs	r3, #0
 8005776:	f887 309f 	strb.w	r3, [r7, #159]	@ 0x9f
 800577a:	e053      	b.n	8005824 <uECC_vli_mmod+0x1c2>
			uECC_word_t diff = v[index][i] - mod_multiple[i] - borrow;
 800577c:	f8d7 30ac 	ldr.w	r3, [r7, #172]	@ 0xac
 8005780:	009b      	lsls	r3, r3, #2
 8005782:	33b0      	adds	r3, #176	@ 0xb0
 8005784:	443b      	add	r3, r7
 8005786:	f853 2ca0 	ldr.w	r2, [r3, #-160]
 800578a:	f997 309f 	ldrsb.w	r3, [r7, #159]	@ 0x9f
 800578e:	009b      	lsls	r3, r3, #2
 8005790:	4413      	add	r3, r2
 8005792:	681a      	ldr	r2, [r3, #0]
 8005794:	f997 309f 	ldrsb.w	r3, [r7, #159]	@ 0x9f
 8005798:	009b      	lsls	r3, r3, #2
 800579a:	33b0      	adds	r3, #176	@ 0xb0
 800579c:	443b      	add	r3, r7
 800579e:	f853 3c58 	ldr.w	r3, [r3, #-88]
 80057a2:	1ad2      	subs	r2, r2, r3
 80057a4:	f8d7 30a0 	ldr.w	r3, [r7, #160]	@ 0xa0
 80057a8:	1ad3      	subs	r3, r2, r3
 80057aa:	f8c7 3098 	str.w	r3, [r7, #152]	@ 0x98
			if (diff != v[index][i]) {
 80057ae:	f8d7 30ac 	ldr.w	r3, [r7, #172]	@ 0xac
 80057b2:	009b      	lsls	r3, r3, #2
 80057b4:	33b0      	adds	r3, #176	@ 0xb0
 80057b6:	443b      	add	r3, r7
 80057b8:	f853 2ca0 	ldr.w	r2, [r3, #-160]
 80057bc:	f997 309f 	ldrsb.w	r3, [r7, #159]	@ 0x9f
 80057c0:	009b      	lsls	r3, r3, #2
 80057c2:	4413      	add	r3, r2
 80057c4:	681b      	ldr	r3, [r3, #0]
 80057c6:	f8d7 2098 	ldr.w	r2, [r7, #152]	@ 0x98
 80057ca:	429a      	cmp	r2, r3
 80057cc:	d014      	beq.n	80057f8 <uECC_vli_mmod+0x196>
				borrow = (diff > v[index][i]);
 80057ce:	f8d7 30ac 	ldr.w	r3, [r7, #172]	@ 0xac
 80057d2:	009b      	lsls	r3, r3, #2
 80057d4:	33b0      	adds	r3, #176	@ 0xb0
 80057d6:	443b      	add	r3, r7
 80057d8:	f853 2ca0 	ldr.w	r2, [r3, #-160]
 80057dc:	f997 309f 	ldrsb.w	r3, [r7, #159]	@ 0x9f
 80057e0:	009b      	lsls	r3, r3, #2
 80057e2:	4413      	add	r3, r2
 80057e4:	681b      	ldr	r3, [r3, #0]
 80057e6:	f8d7 2098 	ldr.w	r2, [r7, #152]	@ 0x98
 80057ea:	429a      	cmp	r2, r3
 80057ec:	bf8c      	ite	hi
 80057ee:	2301      	movhi	r3, #1
 80057f0:	2300      	movls	r3, #0
 80057f2:	b2db      	uxtb	r3, r3
 80057f4:	f8c7 30a0 	str.w	r3, [r7, #160]	@ 0xa0
			}
			v[1 - index][i] = diff;
 80057f8:	f8d7 30ac 	ldr.w	r3, [r7, #172]	@ 0xac
 80057fc:	f1c3 0301 	rsb	r3, r3, #1
 8005800:	009b      	lsls	r3, r3, #2
 8005802:	33b0      	adds	r3, #176	@ 0xb0
 8005804:	443b      	add	r3, r7
 8005806:	f853 2ca0 	ldr.w	r2, [r3, #-160]
 800580a:	f997 309f 	ldrsb.w	r3, [r7, #159]	@ 0x9f
 800580e:	009b      	lsls	r3, r3, #2
 8005810:	4413      	add	r3, r2
 8005812:	f8d7 2098 	ldr.w	r2, [r7, #152]	@ 0x98
 8005816:	601a      	str	r2, [r3, #0]
		for (i = 0; i < num_words * 2; ++i) {
 8005818:	f897 309f 	ldrb.w	r3, [r7, #159]	@ 0x9f
 800581c:	3301      	adds	r3, #1
 800581e:	b2db      	uxtb	r3, r3
 8005820:	f887 309f 	strb.w	r3, [r7, #159]	@ 0x9f
 8005824:	f997 209f 	ldrsb.w	r2, [r7, #159]	@ 0x9f
 8005828:	f997 3003 	ldrsb.w	r3, [r7, #3]
 800582c:	005b      	lsls	r3, r3, #1
 800582e:	429a      	cmp	r2, r3
 8005830:	dba4      	blt.n	800577c <uECC_vli_mmod+0x11a>
		}
		/* Swap the index if there was no borrow */
		index = !(index ^ borrow);
 8005832:	f8d7 20ac 	ldr.w	r2, [r7, #172]	@ 0xac
 8005836:	f8d7 30a0 	ldr.w	r3, [r7, #160]	@ 0xa0
 800583a:	429a      	cmp	r2, r3
 800583c:	bf0c      	ite	eq
 800583e:	2301      	moveq	r3, #1
 8005840:	2300      	movne	r3, #0
 8005842:	b2db      	uxtb	r3, r3
 8005844:	f8c7 30ac 	str.w	r3, [r7, #172]	@ 0xac
		uECC_vli_rshift1(mod_multiple, num_words);
 8005848:	f997 2003 	ldrsb.w	r2, [r7, #3]
 800584c:	f107 0358 	add.w	r3, r7, #88	@ 0x58
 8005850:	4611      	mov	r1, r2
 8005852:	4618      	mov	r0, r3
 8005854:	f7ff fd8d 	bl	8005372 <uECC_vli_rshift1>
		mod_multiple[num_words - 1] |= mod_multiple[num_words] <<
 8005858:	f997 3003 	ldrsb.w	r3, [r7, #3]
 800585c:	3b01      	subs	r3, #1
 800585e:	009b      	lsls	r3, r3, #2
 8005860:	33b0      	adds	r3, #176	@ 0xb0
 8005862:	443b      	add	r3, r7
 8005864:	f853 1c58 	ldr.w	r1, [r3, #-88]
 8005868:	f997 3003 	ldrsb.w	r3, [r7, #3]
 800586c:	009b      	lsls	r3, r3, #2
 800586e:	33b0      	adds	r3, #176	@ 0xb0
 8005870:	443b      	add	r3, r7
 8005872:	f853 3c58 	ldr.w	r3, [r3, #-88]
 8005876:	07da      	lsls	r2, r3, #31
 8005878:	f997 3003 	ldrsb.w	r3, [r7, #3]
 800587c:	3b01      	subs	r3, #1
 800587e:	430a      	orrs	r2, r1
 8005880:	009b      	lsls	r3, r3, #2
 8005882:	33b0      	adds	r3, #176	@ 0xb0
 8005884:	443b      	add	r3, r7
 8005886:	f843 2c58 	str.w	r2, [r3, #-88]
					       (uECC_WORD_BITS - 1);
		uECC_vli_rshift1(mod_multiple + num_words, num_words);
 800588a:	f997 3003 	ldrsb.w	r3, [r7, #3]
 800588e:	009b      	lsls	r3, r3, #2
 8005890:	f107 0258 	add.w	r2, r7, #88	@ 0x58
 8005894:	4413      	add	r3, r2
 8005896:	f997 2003 	ldrsb.w	r2, [r7, #3]
 800589a:	4611      	mov	r1, r2
 800589c:	4618      	mov	r0, r3
 800589e:	f7ff fd68 	bl	8005372 <uECC_vli_rshift1>
	for (index = 1; shift >= 0; --shift) {
 80058a2:	f8b7 30aa 	ldrh.w	r3, [r7, #170]	@ 0xaa
 80058a6:	3b01      	subs	r3, #1
 80058a8:	b29b      	uxth	r3, r3
 80058aa:	f8a7 30aa 	strh.w	r3, [r7, #170]	@ 0xaa
 80058ae:	f9b7 30aa 	ldrsh.w	r3, [r7, #170]	@ 0xaa
 80058b2:	2b00      	cmp	r3, #0
 80058b4:	f6bf af5b 	bge.w	800576e <uECC_vli_mmod+0x10c>
	}
	uECC_vli_set(result, v[index], num_words);
 80058b8:	f8d7 30ac 	ldr.w	r3, [r7, #172]	@ 0xac
 80058bc:	009b      	lsls	r3, r3, #2
 80058be:	33b0      	adds	r3, #176	@ 0xb0
 80058c0:	443b      	add	r3, r7
 80058c2:	f853 3ca0 	ldr.w	r3, [r3, #-160]
 80058c6:	f997 2003 	ldrsb.w	r2, [r7, #3]
 80058ca:	4619      	mov	r1, r3
 80058cc:	68f8      	ldr	r0, [r7, #12]
 80058ce:	f7ff fbfe 	bl	80050ce <uECC_vli_set>
}
 80058d2:	bf00      	nop
 80058d4:	37b4      	adds	r7, #180	@ 0xb4
 80058d6:	46bd      	mov	sp, r7
 80058d8:	bd90      	pop	{r4, r7, pc}

080058da <uECC_vli_modMult>:

void uECC_vli_modMult(uECC_word_t *result, const uECC_word_t *left,
		      const uECC_word_t *right, const uECC_word_t *mod,
		      wordcount_t num_words)
{
 80058da:	b580      	push	{r7, lr}
 80058dc:	b094      	sub	sp, #80	@ 0x50
 80058de:	af00      	add	r7, sp, #0
 80058e0:	60f8      	str	r0, [r7, #12]
 80058e2:	60b9      	str	r1, [r7, #8]
 80058e4:	607a      	str	r2, [r7, #4]
 80058e6:	603b      	str	r3, [r7, #0]
	uECC_word_t product[2 * NUM_ECC_WORDS];
	uECC_vli_mult(product, left, right, num_words);
 80058e8:	f997 3058 	ldrsb.w	r3, [r7, #88]	@ 0x58
 80058ec:	f107 0010 	add.w	r0, r7, #16
 80058f0:	687a      	ldr	r2, [r7, #4]
 80058f2:	68b9      	ldr	r1, [r7, #8]
 80058f4:	f7ff fdd1 	bl	800549a <uECC_vli_mult>
	uECC_vli_mmod(result, product, mod, num_words);
 80058f8:	f997 3058 	ldrsb.w	r3, [r7, #88]	@ 0x58
 80058fc:	f107 0110 	add.w	r1, r7, #16
 8005900:	683a      	ldr	r2, [r7, #0]
 8005902:	68f8      	ldr	r0, [r7, #12]
 8005904:	f7ff fead 	bl	8005662 <uECC_vli_mmod>
}
 8005908:	bf00      	nop
 800590a:	3750      	adds	r7, #80	@ 0x50
 800590c:	46bd      	mov	sp, r7
 800590e:	bd80      	pop	{r7, pc}

08005910 <uECC_vli_modMult_fast>:

void uECC_vli_modMult_fast(uECC_word_t *result, const uECC_word_t *left,
			   const uECC_word_t *right, uECC_Curve curve)
{
 8005910:	b580      	push	{r7, lr}
 8005912:	b094      	sub	sp, #80	@ 0x50
 8005914:	af00      	add	r7, sp, #0
 8005916:	60f8      	str	r0, [r7, #12]
 8005918:	60b9      	str	r1, [r7, #8]
 800591a:	607a      	str	r2, [r7, #4]
 800591c:	603b      	str	r3, [r7, #0]
	uECC_word_t product[2 * NUM_ECC_WORDS];
	uECC_vli_mult(product, left, right, curve->num_words);
 800591e:	683b      	ldr	r3, [r7, #0]
 8005920:	f993 3000 	ldrsb.w	r3, [r3]
 8005924:	f107 0010 	add.w	r0, r7, #16
 8005928:	687a      	ldr	r2, [r7, #4]
 800592a:	68b9      	ldr	r1, [r7, #8]
 800592c:	f7ff fdb5 	bl	800549a <uECC_vli_mult>

	curve->mmod_fast(result, product);
 8005930:	683b      	ldr	r3, [r7, #0]
 8005932:	f8d3 30ac 	ldr.w	r3, [r3, #172]	@ 0xac
 8005936:	f107 0210 	add.w	r2, r7, #16
 800593a:	4611      	mov	r1, r2
 800593c:	68f8      	ldr	r0, [r7, #12]
 800593e:	4798      	blx	r3
}
 8005940:	bf00      	nop
 8005942:	3750      	adds	r7, #80	@ 0x50
 8005944:	46bd      	mov	sp, r7
 8005946:	bd80      	pop	{r7, pc}

08005948 <uECC_vli_modSquare_fast>:

static void uECC_vli_modSquare_fast(uECC_word_t *result,
				    const uECC_word_t *left,
				    uECC_Curve curve)
{
 8005948:	b580      	push	{r7, lr}
 800594a:	b084      	sub	sp, #16
 800594c:	af00      	add	r7, sp, #0
 800594e:	60f8      	str	r0, [r7, #12]
 8005950:	60b9      	str	r1, [r7, #8]
 8005952:	607a      	str	r2, [r7, #4]
	uECC_vli_modMult_fast(result, left, left, curve);
 8005954:	687b      	ldr	r3, [r7, #4]
 8005956:	68ba      	ldr	r2, [r7, #8]
 8005958:	68b9      	ldr	r1, [r7, #8]
 800595a:	68f8      	ldr	r0, [r7, #12]
 800595c:	f7ff ffd8 	bl	8005910 <uECC_vli_modMult_fast>
}
 8005960:	bf00      	nop
 8005962:	3710      	adds	r7, #16
 8005964:	46bd      	mov	sp, r7
 8005966:	bd80      	pop	{r7, pc}

08005968 <vli_modInv_update>:
#define EVEN(vli) (!(vli[0] & 1))

static void vli_modInv_update(uECC_word_t *uv,
			      const uECC_word_t *mod,
			      wordcount_t num_words)
{
 8005968:	b580      	push	{r7, lr}
 800596a:	b086      	sub	sp, #24
 800596c:	af00      	add	r7, sp, #0
 800596e:	60f8      	str	r0, [r7, #12]
 8005970:	60b9      	str	r1, [r7, #8]
 8005972:	4613      	mov	r3, r2
 8005974:	71fb      	strb	r3, [r7, #7]

	uECC_word_t carry = 0;
 8005976:	2300      	movs	r3, #0
 8005978:	617b      	str	r3, [r7, #20]

	if (!EVEN(uv)) {
 800597a:	68fb      	ldr	r3, [r7, #12]
 800597c:	681b      	ldr	r3, [r3, #0]
 800597e:	f003 0301 	and.w	r3, r3, #1
 8005982:	2b00      	cmp	r3, #0
 8005984:	d007      	beq.n	8005996 <vli_modInv_update+0x2e>
		carry = uECC_vli_add(uv, uv, mod, num_words);
 8005986:	f997 3007 	ldrsb.w	r3, [r7, #7]
 800598a:	68ba      	ldr	r2, [r7, #8]
 800598c:	68f9      	ldr	r1, [r7, #12]
 800598e:	68f8      	ldr	r0, [r7, #12]
 8005990:	f7ff fc9e 	bl	80052d0 <uECC_vli_add>
 8005994:	6178      	str	r0, [r7, #20]
	}
	uECC_vli_rshift1(uv, num_words);
 8005996:	f997 3007 	ldrsb.w	r3, [r7, #7]
 800599a:	4619      	mov	r1, r3
 800599c:	68f8      	ldr	r0, [r7, #12]
 800599e:	f7ff fce8 	bl	8005372 <uECC_vli_rshift1>
	if (carry) {
 80059a2:	697b      	ldr	r3, [r7, #20]
 80059a4:	2b00      	cmp	r3, #0
 80059a6:	d013      	beq.n	80059d0 <vli_modInv_update+0x68>
		uv[num_words - 1] |= HIGH_BIT_SET;
 80059a8:	f997 2007 	ldrsb.w	r2, [r7, #7]
 80059ac:	f06f 4340 	mvn.w	r3, #3221225472	@ 0xc0000000
 80059b0:	4413      	add	r3, r2
 80059b2:	009b      	lsls	r3, r3, #2
 80059b4:	68fa      	ldr	r2, [r7, #12]
 80059b6:	4413      	add	r3, r2
 80059b8:	681a      	ldr	r2, [r3, #0]
 80059ba:	f997 1007 	ldrsb.w	r1, [r7, #7]
 80059be:	f06f 4340 	mvn.w	r3, #3221225472	@ 0xc0000000
 80059c2:	440b      	add	r3, r1
 80059c4:	009b      	lsls	r3, r3, #2
 80059c6:	68f9      	ldr	r1, [r7, #12]
 80059c8:	440b      	add	r3, r1
 80059ca:	f042 4200 	orr.w	r2, r2, #2147483648	@ 0x80000000
 80059ce:	601a      	str	r2, [r3, #0]
	}
}
 80059d0:	bf00      	nop
 80059d2:	3718      	adds	r7, #24
 80059d4:	46bd      	mov	sp, r7
 80059d6:	bd80      	pop	{r7, pc}

080059d8 <uECC_vli_modInv>:

void uECC_vli_modInv(uECC_word_t *result, const uECC_word_t *input,
		     const uECC_word_t *mod, wordcount_t num_words)
{
 80059d8:	b580      	push	{r7, lr}
 80059da:	b0a6      	sub	sp, #152	@ 0x98
 80059dc:	af00      	add	r7, sp, #0
 80059de:	60f8      	str	r0, [r7, #12]
 80059e0:	60b9      	str	r1, [r7, #8]
 80059e2:	607a      	str	r2, [r7, #4]
 80059e4:	70fb      	strb	r3, [r7, #3]
	uECC_word_t a[NUM_ECC_WORDS], b[NUM_ECC_WORDS];
	uECC_word_t u[NUM_ECC_WORDS], v[NUM_ECC_WORDS];
	cmpresult_t cmpResult;

	if (uECC_vli_isZero(input, num_words)) {
 80059e6:	f997 3003 	ldrsb.w	r3, [r7, #3]
 80059ea:	4619      	mov	r1, r3
 80059ec:	68b8      	ldr	r0, [r7, #8]
 80059ee:	f7ff faca 	bl	8004f86 <uECC_vli_isZero>
 80059f2:	4603      	mov	r3, r0
 80059f4:	2b00      	cmp	r3, #0
 80059f6:	d006      	beq.n	8005a06 <uECC_vli_modInv+0x2e>
		uECC_vli_clear(result, num_words);
 80059f8:	f997 3003 	ldrsb.w	r3, [r7, #3]
 80059fc:	4619      	mov	r1, r3
 80059fe:	68f8      	ldr	r0, [r7, #12]
 8005a00:	f7ff faa0 	bl	8004f44 <uECC_vli_clear>
 8005a04:	e0de      	b.n	8005bc4 <uECC_vli_modInv+0x1ec>
		return;
	}

	uECC_vli_set(a, input, num_words);
 8005a06:	f997 2003 	ldrsb.w	r2, [r7, #3]
 8005a0a:	f107 0374 	add.w	r3, r7, #116	@ 0x74
 8005a0e:	68b9      	ldr	r1, [r7, #8]
 8005a10:	4618      	mov	r0, r3
 8005a12:	f7ff fb5c 	bl	80050ce <uECC_vli_set>
	uECC_vli_set(b, mod, num_words);
 8005a16:	f997 2003 	ldrsb.w	r2, [r7, #3]
 8005a1a:	f107 0354 	add.w	r3, r7, #84	@ 0x54
 8005a1e:	6879      	ldr	r1, [r7, #4]
 8005a20:	4618      	mov	r0, r3
 8005a22:	f7ff fb54 	bl	80050ce <uECC_vli_set>
	uECC_vli_clear(u, num_words);
 8005a26:	f997 2003 	ldrsb.w	r2, [r7, #3]
 8005a2a:	f107 0334 	add.w	r3, r7, #52	@ 0x34
 8005a2e:	4611      	mov	r1, r2
 8005a30:	4618      	mov	r0, r3
 8005a32:	f7ff fa87 	bl	8004f44 <uECC_vli_clear>
	u[0] = 1;
 8005a36:	2301      	movs	r3, #1
 8005a38:	637b      	str	r3, [r7, #52]	@ 0x34
	uECC_vli_clear(v, num_words);
 8005a3a:	f997 2003 	ldrsb.w	r2, [r7, #3]
 8005a3e:	f107 0314 	add.w	r3, r7, #20
 8005a42:	4611      	mov	r1, r2
 8005a44:	4618      	mov	r0, r3
 8005a46:	f7ff fa7d 	bl	8004f44 <uECC_vli_clear>
	while ((cmpResult = uECC_vli_cmp_unsafe(a, b, num_words)) != 0) {
 8005a4a:	e0a2      	b.n	8005b92 <uECC_vli_modInv+0x1ba>
		if (EVEN(a)) {
 8005a4c:	6f7b      	ldr	r3, [r7, #116]	@ 0x74
 8005a4e:	f003 0301 	and.w	r3, r3, #1
 8005a52:	2b00      	cmp	r3, #0
 8005a54:	d110      	bne.n	8005a78 <uECC_vli_modInv+0xa0>
			uECC_vli_rshift1(a, num_words);
 8005a56:	f997 2003 	ldrsb.w	r2, [r7, #3]
 8005a5a:	f107 0374 	add.w	r3, r7, #116	@ 0x74
 8005a5e:	4611      	mov	r1, r2
 8005a60:	4618      	mov	r0, r3
 8005a62:	f7ff fc86 	bl	8005372 <uECC_vli_rshift1>
      			vli_modInv_update(u, mod, num_words);
 8005a66:	f997 2003 	ldrsb.w	r2, [r7, #3]
 8005a6a:	f107 0334 	add.w	r3, r7, #52	@ 0x34
 8005a6e:	6879      	ldr	r1, [r7, #4]
 8005a70:	4618      	mov	r0, r3
 8005a72:	f7ff ff79 	bl	8005968 <vli_modInv_update>
 8005a76:	e08c      	b.n	8005b92 <uECC_vli_modInv+0x1ba>
    		} else if (EVEN(b)) {
 8005a78:	6d7b      	ldr	r3, [r7, #84]	@ 0x54
 8005a7a:	f003 0301 	and.w	r3, r3, #1
 8005a7e:	2b00      	cmp	r3, #0
 8005a80:	d110      	bne.n	8005aa4 <uECC_vli_modInv+0xcc>
			uECC_vli_rshift1(b, num_words);
 8005a82:	f997 2003 	ldrsb.w	r2, [r7, #3]
 8005a86:	f107 0354 	add.w	r3, r7, #84	@ 0x54
 8005a8a:	4611      	mov	r1, r2
 8005a8c:	4618      	mov	r0, r3
 8005a8e:	f7ff fc70 	bl	8005372 <uECC_vli_rshift1>
			vli_modInv_update(v, mod, num_words);
 8005a92:	f997 2003 	ldrsb.w	r2, [r7, #3]
 8005a96:	f107 0314 	add.w	r3, r7, #20
 8005a9a:	6879      	ldr	r1, [r7, #4]
 8005a9c:	4618      	mov	r0, r3
 8005a9e:	f7ff ff63 	bl	8005968 <vli_modInv_update>
 8005aa2:	e076      	b.n	8005b92 <uECC_vli_modInv+0x1ba>
		} else if (cmpResult > 0) {
 8005aa4:	f997 3097 	ldrsb.w	r3, [r7, #151]	@ 0x97
 8005aa8:	2b00      	cmp	r3, #0
 8005aaa:	dd39      	ble.n	8005b20 <uECC_vli_modInv+0x148>
			uECC_vli_sub(a, a, b, num_words);
 8005aac:	f997 3003 	ldrsb.w	r3, [r7, #3]
 8005ab0:	f107 0254 	add.w	r2, r7, #84	@ 0x54
 8005ab4:	f107 0174 	add.w	r1, r7, #116	@ 0x74
 8005ab8:	f107 0074 	add.w	r0, r7, #116	@ 0x74
 8005abc:	f7ff fbb7 	bl	800522e <uECC_vli_sub>
			uECC_vli_rshift1(a, num_words);
 8005ac0:	f997 2003 	ldrsb.w	r2, [r7, #3]
 8005ac4:	f107 0374 	add.w	r3, r7, #116	@ 0x74
 8005ac8:	4611      	mov	r1, r2
 8005aca:	4618      	mov	r0, r3
 8005acc:	f7ff fc51 	bl	8005372 <uECC_vli_rshift1>
			if (uECC_vli_cmp_unsafe(u, v, num_words) < 0) {
 8005ad0:	f997 2003 	ldrsb.w	r2, [r7, #3]
 8005ad4:	f107 0114 	add.w	r1, r7, #20
 8005ad8:	f107 0334 	add.w	r3, r7, #52	@ 0x34
 8005adc:	4618      	mov	r0, r3
 8005ade:	f7ff fb1d 	bl	800511c <uECC_vli_cmp_unsafe>
 8005ae2:	4603      	mov	r3, r0
 8005ae4:	2b00      	cmp	r3, #0
 8005ae6:	da08      	bge.n	8005afa <uECC_vli_modInv+0x122>
        			uECC_vli_add(u, u, mod, num_words);
 8005ae8:	f997 3003 	ldrsb.w	r3, [r7, #3]
 8005aec:	f107 0134 	add.w	r1, r7, #52	@ 0x34
 8005af0:	f107 0034 	add.w	r0, r7, #52	@ 0x34
 8005af4:	687a      	ldr	r2, [r7, #4]
 8005af6:	f7ff fbeb 	bl	80052d0 <uECC_vli_add>
      			}
      			uECC_vli_sub(u, u, v, num_words);
 8005afa:	f997 3003 	ldrsb.w	r3, [r7, #3]
 8005afe:	f107 0214 	add.w	r2, r7, #20
 8005b02:	f107 0134 	add.w	r1, r7, #52	@ 0x34
 8005b06:	f107 0034 	add.w	r0, r7, #52	@ 0x34
 8005b0a:	f7ff fb90 	bl	800522e <uECC_vli_sub>
      			vli_modInv_update(u, mod, num_words);
 8005b0e:	f997 2003 	ldrsb.w	r2, [r7, #3]
 8005b12:	f107 0334 	add.w	r3, r7, #52	@ 0x34
 8005b16:	6879      	ldr	r1, [r7, #4]
 8005b18:	4618      	mov	r0, r3
 8005b1a:	f7ff ff25 	bl	8005968 <vli_modInv_update>
 8005b1e:	e038      	b.n	8005b92 <uECC_vli_modInv+0x1ba>
    		} else {
      			uECC_vli_sub(b, b, a, num_words);
 8005b20:	f997 3003 	ldrsb.w	r3, [r7, #3]
 8005b24:	f107 0274 	add.w	r2, r7, #116	@ 0x74
 8005b28:	f107 0154 	add.w	r1, r7, #84	@ 0x54
 8005b2c:	f107 0054 	add.w	r0, r7, #84	@ 0x54
 8005b30:	f7ff fb7d 	bl	800522e <uECC_vli_sub>
      			uECC_vli_rshift1(b, num_words);
 8005b34:	f997 2003 	ldrsb.w	r2, [r7, #3]
 8005b38:	f107 0354 	add.w	r3, r7, #84	@ 0x54
 8005b3c:	4611      	mov	r1, r2
 8005b3e:	4618      	mov	r0, r3
 8005b40:	f7ff fc17 	bl	8005372 <uECC_vli_rshift1>
      			if (uECC_vli_cmp_unsafe(v, u, num_words) < 0) {
 8005b44:	f997 2003 	ldrsb.w	r2, [r7, #3]
 8005b48:	f107 0134 	add.w	r1, r7, #52	@ 0x34
 8005b4c:	f107 0314 	add.w	r3, r7, #20
 8005b50:	4618      	mov	r0, r3
 8005b52:	f7ff fae3 	bl	800511c <uECC_vli_cmp_unsafe>
 8005b56:	4603      	mov	r3, r0
 8005b58:	2b00      	cmp	r3, #0
 8005b5a:	da08      	bge.n	8005b6e <uECC_vli_modInv+0x196>
        			uECC_vli_add(v, v, mod, num_words);
 8005b5c:	f997 3003 	ldrsb.w	r3, [r7, #3]
 8005b60:	f107 0114 	add.w	r1, r7, #20
 8005b64:	f107 0014 	add.w	r0, r7, #20
 8005b68:	687a      	ldr	r2, [r7, #4]
 8005b6a:	f7ff fbb1 	bl	80052d0 <uECC_vli_add>
      			}
      			uECC_vli_sub(v, v, u, num_words);
 8005b6e:	f997 3003 	ldrsb.w	r3, [r7, #3]
 8005b72:	f107 0234 	add.w	r2, r7, #52	@ 0x34
 8005b76:	f107 0114 	add.w	r1, r7, #20
 8005b7a:	f107 0014 	add.w	r0, r7, #20
 8005b7e:	f7ff fb56 	bl	800522e <uECC_vli_sub>
      			vli_modInv_update(v, mod, num_words);
 8005b82:	f997 2003 	ldrsb.w	r2, [r7, #3]
 8005b86:	f107 0314 	add.w	r3, r7, #20
 8005b8a:	6879      	ldr	r1, [r7, #4]
 8005b8c:	4618      	mov	r0, r3
 8005b8e:	f7ff feeb 	bl	8005968 <vli_modInv_update>
	while ((cmpResult = uECC_vli_cmp_unsafe(a, b, num_words)) != 0) {
 8005b92:	f997 2003 	ldrsb.w	r2, [r7, #3]
 8005b96:	f107 0154 	add.w	r1, r7, #84	@ 0x54
 8005b9a:	f107 0374 	add.w	r3, r7, #116	@ 0x74
 8005b9e:	4618      	mov	r0, r3
 8005ba0:	f7ff fabc 	bl	800511c <uECC_vli_cmp_unsafe>
 8005ba4:	4603      	mov	r3, r0
 8005ba6:	f887 3097 	strb.w	r3, [r7, #151]	@ 0x97
 8005baa:	f997 3097 	ldrsb.w	r3, [r7, #151]	@ 0x97
 8005bae:	2b00      	cmp	r3, #0
 8005bb0:	f47f af4c 	bne.w	8005a4c <uECC_vli_modInv+0x74>
    		}
  	}
  	uECC_vli_set(result, u, num_words);
 8005bb4:	f997 2003 	ldrsb.w	r2, [r7, #3]
 8005bb8:	f107 0334 	add.w	r3, r7, #52	@ 0x34
 8005bbc:	4619      	mov	r1, r3
 8005bbe:	68f8      	ldr	r0, [r7, #12]
 8005bc0:	f7ff fa85 	bl	80050ce <uECC_vli_set>
}
 8005bc4:	3798      	adds	r7, #152	@ 0x98
 8005bc6:	46bd      	mov	sp, r7
 8005bc8:	bd80      	pop	{r7, pc}

08005bca <double_jacobian_default>:

/* ------ Point operations ------ */

void double_jacobian_default(uECC_word_t * X1, uECC_word_t * Y1,
			     uECC_word_t * Z1, uECC_Curve curve)
{
 8005bca:	b580      	push	{r7, lr}
 8005bcc:	b098      	sub	sp, #96	@ 0x60
 8005bce:	af02      	add	r7, sp, #8
 8005bd0:	60f8      	str	r0, [r7, #12]
 8005bd2:	60b9      	str	r1, [r7, #8]
 8005bd4:	607a      	str	r2, [r7, #4]
 8005bd6:	603b      	str	r3, [r7, #0]
	/* t1 = X, t2 = Y, t3 = Z */
	uECC_word_t t4[NUM_ECC_WORDS];
	uECC_word_t t5[NUM_ECC_WORDS];
	wordcount_t num_words = curve->num_words;
 8005bd8:	683b      	ldr	r3, [r7, #0]
 8005bda:	781b      	ldrb	r3, [r3, #0]
 8005bdc:	f887 3057 	strb.w	r3, [r7, #87]	@ 0x57

	if (uECC_vli_isZero(Z1, num_words)) {
 8005be0:	f997 3057 	ldrsb.w	r3, [r7, #87]	@ 0x57
 8005be4:	4619      	mov	r1, r3
 8005be6:	6878      	ldr	r0, [r7, #4]
 8005be8:	f7ff f9cd 	bl	8004f86 <uECC_vli_isZero>
 8005bec:	4603      	mov	r3, r0
 8005bee:	2b00      	cmp	r3, #0
 8005bf0:	f040 80e6 	bne.w	8005dc0 <double_jacobian_default+0x1f6>
		return;
	}

	uECC_vli_modSquare_fast(t4, Y1, curve);   /* t4 = y1^2 */
 8005bf4:	f107 0330 	add.w	r3, r7, #48	@ 0x30
 8005bf8:	683a      	ldr	r2, [r7, #0]
 8005bfa:	68b9      	ldr	r1, [r7, #8]
 8005bfc:	4618      	mov	r0, r3
 8005bfe:	f7ff fea3 	bl	8005948 <uECC_vli_modSquare_fast>
	uECC_vli_modMult_fast(t5, X1, t4, curve); /* t5 = x1*y1^2 = A */
 8005c02:	f107 0230 	add.w	r2, r7, #48	@ 0x30
 8005c06:	f107 0010 	add.w	r0, r7, #16
 8005c0a:	683b      	ldr	r3, [r7, #0]
 8005c0c:	68f9      	ldr	r1, [r7, #12]
 8005c0e:	f7ff fe7f 	bl	8005910 <uECC_vli_modMult_fast>
	uECC_vli_modSquare_fast(t4, t4, curve);   /* t4 = y1^4 */
 8005c12:	f107 0130 	add.w	r1, r7, #48	@ 0x30
 8005c16:	f107 0330 	add.w	r3, r7, #48	@ 0x30
 8005c1a:	683a      	ldr	r2, [r7, #0]
 8005c1c:	4618      	mov	r0, r3
 8005c1e:	f7ff fe93 	bl	8005948 <uECC_vli_modSquare_fast>
	uECC_vli_modMult_fast(Y1, Y1, Z1, curve); /* t2 = y1*z1 = z3 */
 8005c22:	683b      	ldr	r3, [r7, #0]
 8005c24:	687a      	ldr	r2, [r7, #4]
 8005c26:	68b9      	ldr	r1, [r7, #8]
 8005c28:	68b8      	ldr	r0, [r7, #8]
 8005c2a:	f7ff fe71 	bl	8005910 <uECC_vli_modMult_fast>
	uECC_vli_modSquare_fast(Z1, Z1, curve);   /* t3 = z1^2 */
 8005c2e:	683a      	ldr	r2, [r7, #0]
 8005c30:	6879      	ldr	r1, [r7, #4]
 8005c32:	6878      	ldr	r0, [r7, #4]
 8005c34:	f7ff fe88 	bl	8005948 <uECC_vli_modSquare_fast>

	uECC_vli_modAdd(X1, X1, Z1, curve->p, num_words); /* t1 = x1 + z1^2 */
 8005c38:	683b      	ldr	r3, [r7, #0]
 8005c3a:	1d1a      	adds	r2, r3, #4
 8005c3c:	f997 3057 	ldrsb.w	r3, [r7, #87]	@ 0x57
 8005c40:	9300      	str	r3, [sp, #0]
 8005c42:	4613      	mov	r3, r2
 8005c44:	687a      	ldr	r2, [r7, #4]
 8005c46:	68f9      	ldr	r1, [r7, #12]
 8005c48:	68f8      	ldr	r0, [r7, #12]
 8005c4a:	f7ff fcc6 	bl	80055da <uECC_vli_modAdd>
	uECC_vli_modAdd(Z1, Z1, Z1, curve->p, num_words); /* t3 = 2*z1^2 */
 8005c4e:	683b      	ldr	r3, [r7, #0]
 8005c50:	1d1a      	adds	r2, r3, #4
 8005c52:	f997 3057 	ldrsb.w	r3, [r7, #87]	@ 0x57
 8005c56:	9300      	str	r3, [sp, #0]
 8005c58:	4613      	mov	r3, r2
 8005c5a:	687a      	ldr	r2, [r7, #4]
 8005c5c:	6879      	ldr	r1, [r7, #4]
 8005c5e:	6878      	ldr	r0, [r7, #4]
 8005c60:	f7ff fcbb 	bl	80055da <uECC_vli_modAdd>
	uECC_vli_modSub(Z1, X1, Z1, curve->p, num_words); /* t3 = x1 - z1^2 */
 8005c64:	683b      	ldr	r3, [r7, #0]
 8005c66:	1d1a      	adds	r2, r3, #4
 8005c68:	f997 3057 	ldrsb.w	r3, [r7, #87]	@ 0x57
 8005c6c:	9300      	str	r3, [sp, #0]
 8005c6e:	4613      	mov	r3, r2
 8005c70:	687a      	ldr	r2, [r7, #4]
 8005c72:	68f9      	ldr	r1, [r7, #12]
 8005c74:	6878      	ldr	r0, [r7, #4]
 8005c76:	f7ff fcd7 	bl	8005628 <uECC_vli_modSub>
	uECC_vli_modMult_fast(X1, X1, Z1, curve); /* t1 = x1^2 - z1^4 */
 8005c7a:	683b      	ldr	r3, [r7, #0]
 8005c7c:	687a      	ldr	r2, [r7, #4]
 8005c7e:	68f9      	ldr	r1, [r7, #12]
 8005c80:	68f8      	ldr	r0, [r7, #12]
 8005c82:	f7ff fe45 	bl	8005910 <uECC_vli_modMult_fast>

	uECC_vli_modAdd(Z1, X1, X1, curve->p, num_words); /* t3 = 2*(x1^2 - z1^4) */
 8005c86:	683b      	ldr	r3, [r7, #0]
 8005c88:	1d1a      	adds	r2, r3, #4
 8005c8a:	f997 3057 	ldrsb.w	r3, [r7, #87]	@ 0x57
 8005c8e:	9300      	str	r3, [sp, #0]
 8005c90:	4613      	mov	r3, r2
 8005c92:	68fa      	ldr	r2, [r7, #12]
 8005c94:	68f9      	ldr	r1, [r7, #12]
 8005c96:	6878      	ldr	r0, [r7, #4]
 8005c98:	f7ff fc9f 	bl	80055da <uECC_vli_modAdd>
	uECC_vli_modAdd(X1, X1, Z1, curve->p, num_words); /* t1 = 3*(x1^2 - z1^4) */
 8005c9c:	683b      	ldr	r3, [r7, #0]
 8005c9e:	1d1a      	adds	r2, r3, #4
 8005ca0:	f997 3057 	ldrsb.w	r3, [r7, #87]	@ 0x57
 8005ca4:	9300      	str	r3, [sp, #0]
 8005ca6:	4613      	mov	r3, r2
 8005ca8:	687a      	ldr	r2, [r7, #4]
 8005caa:	68f9      	ldr	r1, [r7, #12]
 8005cac:	68f8      	ldr	r0, [r7, #12]
 8005cae:	f7ff fc94 	bl	80055da <uECC_vli_modAdd>
	if (uECC_vli_testBit(X1, 0)) {
 8005cb2:	2100      	movs	r1, #0
 8005cb4:	68f8      	ldr	r0, [r7, #12]
 8005cb6:	f7ff f990 	bl	8004fda <uECC_vli_testBit>
 8005cba:	4603      	mov	r3, r0
 8005cbc:	2b00      	cmp	r3, #0
 8005cbe:	d024      	beq.n	8005d0a <double_jacobian_default+0x140>
		uECC_word_t l_carry = uECC_vli_add(X1, X1, curve->p, num_words);
 8005cc0:	683b      	ldr	r3, [r7, #0]
 8005cc2:	1d1a      	adds	r2, r3, #4
 8005cc4:	f997 3057 	ldrsb.w	r3, [r7, #87]	@ 0x57
 8005cc8:	68f9      	ldr	r1, [r7, #12]
 8005cca:	68f8      	ldr	r0, [r7, #12]
 8005ccc:	f7ff fb00 	bl	80052d0 <uECC_vli_add>
 8005cd0:	6538      	str	r0, [r7, #80]	@ 0x50
		uECC_vli_rshift1(X1, num_words);
 8005cd2:	f997 3057 	ldrsb.w	r3, [r7, #87]	@ 0x57
 8005cd6:	4619      	mov	r1, r3
 8005cd8:	68f8      	ldr	r0, [r7, #12]
 8005cda:	f7ff fb4a 	bl	8005372 <uECC_vli_rshift1>
		X1[num_words - 1] |= l_carry << (uECC_WORD_BITS - 1);
 8005cde:	f997 2057 	ldrsb.w	r2, [r7, #87]	@ 0x57
 8005ce2:	f06f 4340 	mvn.w	r3, #3221225472	@ 0xc0000000
 8005ce6:	4413      	add	r3, r2
 8005ce8:	009b      	lsls	r3, r3, #2
 8005cea:	68fa      	ldr	r2, [r7, #12]
 8005cec:	4413      	add	r3, r2
 8005cee:	6819      	ldr	r1, [r3, #0]
 8005cf0:	6d3b      	ldr	r3, [r7, #80]	@ 0x50
 8005cf2:	07da      	lsls	r2, r3, #31
 8005cf4:	f997 0057 	ldrsb.w	r0, [r7, #87]	@ 0x57
 8005cf8:	f06f 4340 	mvn.w	r3, #3221225472	@ 0xc0000000
 8005cfc:	4403      	add	r3, r0
 8005cfe:	009b      	lsls	r3, r3, #2
 8005d00:	68f8      	ldr	r0, [r7, #12]
 8005d02:	4403      	add	r3, r0
 8005d04:	430a      	orrs	r2, r1
 8005d06:	601a      	str	r2, [r3, #0]
 8005d08:	e005      	b.n	8005d16 <double_jacobian_default+0x14c>
	} else {
		uECC_vli_rshift1(X1, num_words);
 8005d0a:	f997 3057 	ldrsb.w	r3, [r7, #87]	@ 0x57
 8005d0e:	4619      	mov	r1, r3
 8005d10:	68f8      	ldr	r0, [r7, #12]
 8005d12:	f7ff fb2e 	bl	8005372 <uECC_vli_rshift1>
	}

	/* t1 = 3/2*(x1^2 - z1^4) = B */
	uECC_vli_modSquare_fast(Z1, X1, curve); /* t3 = B^2 */
 8005d16:	683a      	ldr	r2, [r7, #0]
 8005d18:	68f9      	ldr	r1, [r7, #12]
 8005d1a:	6878      	ldr	r0, [r7, #4]
 8005d1c:	f7ff fe14 	bl	8005948 <uECC_vli_modSquare_fast>
	uECC_vli_modSub(Z1, Z1, t5, curve->p, num_words); /* t3 = B^2 - A */
 8005d20:	683b      	ldr	r3, [r7, #0]
 8005d22:	1d19      	adds	r1, r3, #4
 8005d24:	f107 0210 	add.w	r2, r7, #16
 8005d28:	f997 3057 	ldrsb.w	r3, [r7, #87]	@ 0x57
 8005d2c:	9300      	str	r3, [sp, #0]
 8005d2e:	460b      	mov	r3, r1
 8005d30:	6879      	ldr	r1, [r7, #4]
 8005d32:	6878      	ldr	r0, [r7, #4]
 8005d34:	f7ff fc78 	bl	8005628 <uECC_vli_modSub>
	uECC_vli_modSub(Z1, Z1, t5, curve->p, num_words); /* t3 = B^2 - 2A = x3 */
 8005d38:	683b      	ldr	r3, [r7, #0]
 8005d3a:	1d19      	adds	r1, r3, #4
 8005d3c:	f107 0210 	add.w	r2, r7, #16
 8005d40:	f997 3057 	ldrsb.w	r3, [r7, #87]	@ 0x57
 8005d44:	9300      	str	r3, [sp, #0]
 8005d46:	460b      	mov	r3, r1
 8005d48:	6879      	ldr	r1, [r7, #4]
 8005d4a:	6878      	ldr	r0, [r7, #4]
 8005d4c:	f7ff fc6c 	bl	8005628 <uECC_vli_modSub>
	uECC_vli_modSub(t5, t5, Z1, curve->p, num_words); /* t5 = A - x3 */
 8005d50:	683b      	ldr	r3, [r7, #0]
 8005d52:	1d1a      	adds	r2, r3, #4
 8005d54:	f107 0110 	add.w	r1, r7, #16
 8005d58:	f107 0010 	add.w	r0, r7, #16
 8005d5c:	f997 3057 	ldrsb.w	r3, [r7, #87]	@ 0x57
 8005d60:	9300      	str	r3, [sp, #0]
 8005d62:	4613      	mov	r3, r2
 8005d64:	687a      	ldr	r2, [r7, #4]
 8005d66:	f7ff fc5f 	bl	8005628 <uECC_vli_modSub>
	uECC_vli_modMult_fast(X1, X1, t5, curve); /* t1 = B * (A - x3) */
 8005d6a:	f107 0210 	add.w	r2, r7, #16
 8005d6e:	683b      	ldr	r3, [r7, #0]
 8005d70:	68f9      	ldr	r1, [r7, #12]
 8005d72:	68f8      	ldr	r0, [r7, #12]
 8005d74:	f7ff fdcc 	bl	8005910 <uECC_vli_modMult_fast>
	/* t4 = B * (A - x3) - y1^4 = y3: */
	uECC_vli_modSub(t4, X1, t4, curve->p, num_words);
 8005d78:	683b      	ldr	r3, [r7, #0]
 8005d7a:	1d19      	adds	r1, r3, #4
 8005d7c:	f107 0230 	add.w	r2, r7, #48	@ 0x30
 8005d80:	f107 0030 	add.w	r0, r7, #48	@ 0x30
 8005d84:	f997 3057 	ldrsb.w	r3, [r7, #87]	@ 0x57
 8005d88:	9300      	str	r3, [sp, #0]
 8005d8a:	460b      	mov	r3, r1
 8005d8c:	68f9      	ldr	r1, [r7, #12]
 8005d8e:	f7ff fc4b 	bl	8005628 <uECC_vli_modSub>

	uECC_vli_set(X1, Z1, num_words);
 8005d92:	f997 3057 	ldrsb.w	r3, [r7, #87]	@ 0x57
 8005d96:	461a      	mov	r2, r3
 8005d98:	6879      	ldr	r1, [r7, #4]
 8005d9a:	68f8      	ldr	r0, [r7, #12]
 8005d9c:	f7ff f997 	bl	80050ce <uECC_vli_set>
	uECC_vli_set(Z1, Y1, num_words);
 8005da0:	f997 3057 	ldrsb.w	r3, [r7, #87]	@ 0x57
 8005da4:	461a      	mov	r2, r3
 8005da6:	68b9      	ldr	r1, [r7, #8]
 8005da8:	6878      	ldr	r0, [r7, #4]
 8005daa:	f7ff f990 	bl	80050ce <uECC_vli_set>
	uECC_vli_set(Y1, t4, num_words);
 8005dae:	f997 2057 	ldrsb.w	r2, [r7, #87]	@ 0x57
 8005db2:	f107 0330 	add.w	r3, r7, #48	@ 0x30
 8005db6:	4619      	mov	r1, r3
 8005db8:	68b8      	ldr	r0, [r7, #8]
 8005dba:	f7ff f988 	bl	80050ce <uECC_vli_set>
 8005dbe:	e000      	b.n	8005dc2 <double_jacobian_default+0x1f8>
		return;
 8005dc0:	bf00      	nop
}
 8005dc2:	3758      	adds	r7, #88	@ 0x58
 8005dc4:	46bd      	mov	sp, r7
 8005dc6:	bd80      	pop	{r7, pc}

08005dc8 <x_side_default>:

void x_side_default(uECC_word_t *result,
		    const uECC_word_t *x,
		    uECC_Curve curve)
{
 8005dc8:	b580      	push	{r7, lr}
 8005dca:	b090      	sub	sp, #64	@ 0x40
 8005dcc:	af02      	add	r7, sp, #8
 8005dce:	60f8      	str	r0, [r7, #12]
 8005dd0:	60b9      	str	r1, [r7, #8]
 8005dd2:	607a      	str	r2, [r7, #4]
	uECC_word_t _3[NUM_ECC_WORDS] = {3}; /* -a = 3 */
 8005dd4:	f107 0314 	add.w	r3, r7, #20
 8005dd8:	2220      	movs	r2, #32
 8005dda:	2100      	movs	r1, #0
 8005ddc:	4618      	mov	r0, r3
 8005dde:	f001 f962 	bl	80070a6 <memset>
 8005de2:	2303      	movs	r3, #3
 8005de4:	617b      	str	r3, [r7, #20]
	wordcount_t num_words = curve->num_words;
 8005de6:	687b      	ldr	r3, [r7, #4]
 8005de8:	781b      	ldrb	r3, [r3, #0]
 8005dea:	f887 3037 	strb.w	r3, [r7, #55]	@ 0x37

	uECC_vli_modSquare_fast(result, x, curve); /* r = x^2 */
 8005dee:	687a      	ldr	r2, [r7, #4]
 8005df0:	68b9      	ldr	r1, [r7, #8]
 8005df2:	68f8      	ldr	r0, [r7, #12]
 8005df4:	f7ff fda8 	bl	8005948 <uECC_vli_modSquare_fast>
	uECC_vli_modSub(result, result, _3, curve->p, num_words); /* r = x^2 - 3 */
 8005df8:	687b      	ldr	r3, [r7, #4]
 8005dfa:	1d19      	adds	r1, r3, #4
 8005dfc:	f107 0214 	add.w	r2, r7, #20
 8005e00:	f997 3037 	ldrsb.w	r3, [r7, #55]	@ 0x37
 8005e04:	9300      	str	r3, [sp, #0]
 8005e06:	460b      	mov	r3, r1
 8005e08:	68f9      	ldr	r1, [r7, #12]
 8005e0a:	68f8      	ldr	r0, [r7, #12]
 8005e0c:	f7ff fc0c 	bl	8005628 <uECC_vli_modSub>
	uECC_vli_modMult_fast(result, result, x, curve); /* r = x^3 - 3x */
 8005e10:	687b      	ldr	r3, [r7, #4]
 8005e12:	68ba      	ldr	r2, [r7, #8]
 8005e14:	68f9      	ldr	r1, [r7, #12]
 8005e16:	68f8      	ldr	r0, [r7, #12]
 8005e18:	f7ff fd7a 	bl	8005910 <uECC_vli_modMult_fast>
	/* r = x^3 - 3x + b: */
	uECC_vli_modAdd(result, result, curve->b, curve->p, num_words);
 8005e1c:	687b      	ldr	r3, [r7, #4]
 8005e1e:	f103 0284 	add.w	r2, r3, #132	@ 0x84
 8005e22:	687b      	ldr	r3, [r7, #4]
 8005e24:	1d19      	adds	r1, r3, #4
 8005e26:	f997 3037 	ldrsb.w	r3, [r7, #55]	@ 0x37
 8005e2a:	9300      	str	r3, [sp, #0]
 8005e2c:	460b      	mov	r3, r1
 8005e2e:	68f9      	ldr	r1, [r7, #12]
 8005e30:	68f8      	ldr	r0, [r7, #12]
 8005e32:	f7ff fbd2 	bl	80055da <uECC_vli_modAdd>
}
 8005e36:	bf00      	nop
 8005e38:	3738      	adds	r7, #56	@ 0x38
 8005e3a:	46bd      	mov	sp, r7
 8005e3c:	bd80      	pop	{r7, pc}
	...

08005e40 <uECC_secp256r1>:

uECC_Curve uECC_secp256r1(void)
{
 8005e40:	b480      	push	{r7}
 8005e42:	af00      	add	r7, sp, #0
	return &curve_secp256r1;
 8005e44:	4b02      	ldr	r3, [pc, #8]	@ (8005e50 <uECC_secp256r1+0x10>)
}
 8005e46:	4618      	mov	r0, r3
 8005e48:	46bd      	mov	sp, r7
 8005e4a:	f85d 7b04 	ldr.w	r7, [sp], #4
 8005e4e:	4770      	bx	lr
 8005e50:	08007d4c 	.word	0x08007d4c

08005e54 <vli_mmod_fast_secp256r1>:

void vli_mmod_fast_secp256r1(unsigned int *result, unsigned int*product)
{
 8005e54:	b580      	push	{r7, lr}
 8005e56:	b08c      	sub	sp, #48	@ 0x30
 8005e58:	af00      	add	r7, sp, #0
 8005e5a:	6078      	str	r0, [r7, #4]
 8005e5c:	6039      	str	r1, [r7, #0]
	unsigned int tmp[NUM_ECC_WORDS];
	int carry;

	/* t */
	uECC_vli_set(result, product, NUM_ECC_WORDS);
 8005e5e:	2208      	movs	r2, #8
 8005e60:	6839      	ldr	r1, [r7, #0]
 8005e62:	6878      	ldr	r0, [r7, #4]
 8005e64:	f7ff f933 	bl	80050ce <uECC_vli_set>

	/* s1 */
	tmp[0] = tmp[1] = tmp[2] = 0;
 8005e68:	2300      	movs	r3, #0
 8005e6a:	617b      	str	r3, [r7, #20]
 8005e6c:	697b      	ldr	r3, [r7, #20]
 8005e6e:	613b      	str	r3, [r7, #16]
 8005e70:	693b      	ldr	r3, [r7, #16]
 8005e72:	60fb      	str	r3, [r7, #12]
	tmp[3] = product[11];
 8005e74:	683b      	ldr	r3, [r7, #0]
 8005e76:	6adb      	ldr	r3, [r3, #44]	@ 0x2c
 8005e78:	61bb      	str	r3, [r7, #24]
	tmp[4] = product[12];
 8005e7a:	683b      	ldr	r3, [r7, #0]
 8005e7c:	6b1b      	ldr	r3, [r3, #48]	@ 0x30
 8005e7e:	61fb      	str	r3, [r7, #28]
	tmp[5] = product[13];
 8005e80:	683b      	ldr	r3, [r7, #0]
 8005e82:	6b5b      	ldr	r3, [r3, #52]	@ 0x34
 8005e84:	623b      	str	r3, [r7, #32]
	tmp[6] = product[14];
 8005e86:	683b      	ldr	r3, [r7, #0]
 8005e88:	6b9b      	ldr	r3, [r3, #56]	@ 0x38
 8005e8a:	627b      	str	r3, [r7, #36]	@ 0x24
	tmp[7] = product[15];
 8005e8c:	683b      	ldr	r3, [r7, #0]
 8005e8e:	6bdb      	ldr	r3, [r3, #60]	@ 0x3c
 8005e90:	62bb      	str	r3, [r7, #40]	@ 0x28
	carry = uECC_vli_add(tmp, tmp, tmp, NUM_ECC_WORDS);
 8005e92:	f107 020c 	add.w	r2, r7, #12
 8005e96:	f107 010c 	add.w	r1, r7, #12
 8005e9a:	f107 000c 	add.w	r0, r7, #12
 8005e9e:	2308      	movs	r3, #8
 8005ea0:	f7ff fa16 	bl	80052d0 <uECC_vli_add>
 8005ea4:	4603      	mov	r3, r0
 8005ea6:	62fb      	str	r3, [r7, #44]	@ 0x2c
	carry += uECC_vli_add(result, result, tmp, NUM_ECC_WORDS);
 8005ea8:	f107 020c 	add.w	r2, r7, #12
 8005eac:	2308      	movs	r3, #8
 8005eae:	6879      	ldr	r1, [r7, #4]
 8005eb0:	6878      	ldr	r0, [r7, #4]
 8005eb2:	f7ff fa0d 	bl	80052d0 <uECC_vli_add>
 8005eb6:	4602      	mov	r2, r0
 8005eb8:	6afb      	ldr	r3, [r7, #44]	@ 0x2c
 8005eba:	4413      	add	r3, r2
 8005ebc:	62fb      	str	r3, [r7, #44]	@ 0x2c

	/* s2 */
	tmp[3] = product[12];
 8005ebe:	683b      	ldr	r3, [r7, #0]
 8005ec0:	6b1b      	ldr	r3, [r3, #48]	@ 0x30
 8005ec2:	61bb      	str	r3, [r7, #24]
	tmp[4] = product[13];
 8005ec4:	683b      	ldr	r3, [r7, #0]
 8005ec6:	6b5b      	ldr	r3, [r3, #52]	@ 0x34
 8005ec8:	61fb      	str	r3, [r7, #28]
	tmp[5] = product[14];
 8005eca:	683b      	ldr	r3, [r7, #0]
 8005ecc:	6b9b      	ldr	r3, [r3, #56]	@ 0x38
 8005ece:	623b      	str	r3, [r7, #32]
	tmp[6] = product[15];
 8005ed0:	683b      	ldr	r3, [r7, #0]
 8005ed2:	6bdb      	ldr	r3, [r3, #60]	@ 0x3c
 8005ed4:	627b      	str	r3, [r7, #36]	@ 0x24
	tmp[7] = 0;
 8005ed6:	2300      	movs	r3, #0
 8005ed8:	62bb      	str	r3, [r7, #40]	@ 0x28
	carry += uECC_vli_add(tmp, tmp, tmp, NUM_ECC_WORDS);
 8005eda:	f107 020c 	add.w	r2, r7, #12
 8005ede:	f107 010c 	add.w	r1, r7, #12
 8005ee2:	f107 000c 	add.w	r0, r7, #12
 8005ee6:	2308      	movs	r3, #8
 8005ee8:	f7ff f9f2 	bl	80052d0 <uECC_vli_add>
 8005eec:	4602      	mov	r2, r0
 8005eee:	6afb      	ldr	r3, [r7, #44]	@ 0x2c
 8005ef0:	4413      	add	r3, r2
 8005ef2:	62fb      	str	r3, [r7, #44]	@ 0x2c
	carry += uECC_vli_add(result, result, tmp, NUM_ECC_WORDS);
 8005ef4:	f107 020c 	add.w	r2, r7, #12
 8005ef8:	2308      	movs	r3, #8
 8005efa:	6879      	ldr	r1, [r7, #4]
 8005efc:	6878      	ldr	r0, [r7, #4]
 8005efe:	f7ff f9e7 	bl	80052d0 <uECC_vli_add>
 8005f02:	4602      	mov	r2, r0
 8005f04:	6afb      	ldr	r3, [r7, #44]	@ 0x2c
 8005f06:	4413      	add	r3, r2
 8005f08:	62fb      	str	r3, [r7, #44]	@ 0x2c

	/* s3 */
	tmp[0] = product[8];
 8005f0a:	683b      	ldr	r3, [r7, #0]
 8005f0c:	6a1b      	ldr	r3, [r3, #32]
 8005f0e:	60fb      	str	r3, [r7, #12]
	tmp[1] = product[9];
 8005f10:	683b      	ldr	r3, [r7, #0]
 8005f12:	6a5b      	ldr	r3, [r3, #36]	@ 0x24
 8005f14:	613b      	str	r3, [r7, #16]
	tmp[2] = product[10];
 8005f16:	683b      	ldr	r3, [r7, #0]
 8005f18:	6a9b      	ldr	r3, [r3, #40]	@ 0x28
 8005f1a:	617b      	str	r3, [r7, #20]
	tmp[3] = tmp[4] = tmp[5] = 0;
 8005f1c:	2300      	movs	r3, #0
 8005f1e:	623b      	str	r3, [r7, #32]
 8005f20:	6a3b      	ldr	r3, [r7, #32]
 8005f22:	61fb      	str	r3, [r7, #28]
 8005f24:	69fb      	ldr	r3, [r7, #28]
 8005f26:	61bb      	str	r3, [r7, #24]
	tmp[6] = product[14];
 8005f28:	683b      	ldr	r3, [r7, #0]
 8005f2a:	6b9b      	ldr	r3, [r3, #56]	@ 0x38
 8005f2c:	627b      	str	r3, [r7, #36]	@ 0x24
	tmp[7] = product[15];
 8005f2e:	683b      	ldr	r3, [r7, #0]
 8005f30:	6bdb      	ldr	r3, [r3, #60]	@ 0x3c
 8005f32:	62bb      	str	r3, [r7, #40]	@ 0x28
  	carry += uECC_vli_add(result, result, tmp, NUM_ECC_WORDS);
 8005f34:	f107 020c 	add.w	r2, r7, #12
 8005f38:	2308      	movs	r3, #8
 8005f3a:	6879      	ldr	r1, [r7, #4]
 8005f3c:	6878      	ldr	r0, [r7, #4]
 8005f3e:	f7ff f9c7 	bl	80052d0 <uECC_vli_add>
 8005f42:	4602      	mov	r2, r0
 8005f44:	6afb      	ldr	r3, [r7, #44]	@ 0x2c
 8005f46:	4413      	add	r3, r2
 8005f48:	62fb      	str	r3, [r7, #44]	@ 0x2c

	/* s4 */
	tmp[0] = product[9];
 8005f4a:	683b      	ldr	r3, [r7, #0]
 8005f4c:	6a5b      	ldr	r3, [r3, #36]	@ 0x24
 8005f4e:	60fb      	str	r3, [r7, #12]
	tmp[1] = product[10];
 8005f50:	683b      	ldr	r3, [r7, #0]
 8005f52:	6a9b      	ldr	r3, [r3, #40]	@ 0x28
 8005f54:	613b      	str	r3, [r7, #16]
	tmp[2] = product[11];
 8005f56:	683b      	ldr	r3, [r7, #0]
 8005f58:	6adb      	ldr	r3, [r3, #44]	@ 0x2c
 8005f5a:	617b      	str	r3, [r7, #20]
	tmp[3] = product[13];
 8005f5c:	683b      	ldr	r3, [r7, #0]
 8005f5e:	6b5b      	ldr	r3, [r3, #52]	@ 0x34
 8005f60:	61bb      	str	r3, [r7, #24]
	tmp[4] = product[14];
 8005f62:	683b      	ldr	r3, [r7, #0]
 8005f64:	6b9b      	ldr	r3, [r3, #56]	@ 0x38
 8005f66:	61fb      	str	r3, [r7, #28]
	tmp[5] = product[15];
 8005f68:	683b      	ldr	r3, [r7, #0]
 8005f6a:	6bdb      	ldr	r3, [r3, #60]	@ 0x3c
 8005f6c:	623b      	str	r3, [r7, #32]
	tmp[6] = product[13];
 8005f6e:	683b      	ldr	r3, [r7, #0]
 8005f70:	6b5b      	ldr	r3, [r3, #52]	@ 0x34
 8005f72:	627b      	str	r3, [r7, #36]	@ 0x24
	tmp[7] = product[8];
 8005f74:	683b      	ldr	r3, [r7, #0]
 8005f76:	6a1b      	ldr	r3, [r3, #32]
 8005f78:	62bb      	str	r3, [r7, #40]	@ 0x28
	carry += uECC_vli_add(result, result, tmp, NUM_ECC_WORDS);
 8005f7a:	f107 020c 	add.w	r2, r7, #12
 8005f7e:	2308      	movs	r3, #8
 8005f80:	6879      	ldr	r1, [r7, #4]
 8005f82:	6878      	ldr	r0, [r7, #4]
 8005f84:	f7ff f9a4 	bl	80052d0 <uECC_vli_add>
 8005f88:	4602      	mov	r2, r0
 8005f8a:	6afb      	ldr	r3, [r7, #44]	@ 0x2c
 8005f8c:	4413      	add	r3, r2
 8005f8e:	62fb      	str	r3, [r7, #44]	@ 0x2c

	/* d1 */
	tmp[0] = product[11];
 8005f90:	683b      	ldr	r3, [r7, #0]
 8005f92:	6adb      	ldr	r3, [r3, #44]	@ 0x2c
 8005f94:	60fb      	str	r3, [r7, #12]
	tmp[1] = product[12];
 8005f96:	683b      	ldr	r3, [r7, #0]
 8005f98:	6b1b      	ldr	r3, [r3, #48]	@ 0x30
 8005f9a:	613b      	str	r3, [r7, #16]
	tmp[2] = product[13];
 8005f9c:	683b      	ldr	r3, [r7, #0]
 8005f9e:	6b5b      	ldr	r3, [r3, #52]	@ 0x34
 8005fa0:	617b      	str	r3, [r7, #20]
	tmp[3] = tmp[4] = tmp[5] = 0;
 8005fa2:	2300      	movs	r3, #0
 8005fa4:	623b      	str	r3, [r7, #32]
 8005fa6:	6a3b      	ldr	r3, [r7, #32]
 8005fa8:	61fb      	str	r3, [r7, #28]
 8005faa:	69fb      	ldr	r3, [r7, #28]
 8005fac:	61bb      	str	r3, [r7, #24]
	tmp[6] = product[8];
 8005fae:	683b      	ldr	r3, [r7, #0]
 8005fb0:	6a1b      	ldr	r3, [r3, #32]
 8005fb2:	627b      	str	r3, [r7, #36]	@ 0x24
	tmp[7] = product[10];
 8005fb4:	683b      	ldr	r3, [r7, #0]
 8005fb6:	6a9b      	ldr	r3, [r3, #40]	@ 0x28
 8005fb8:	62bb      	str	r3, [r7, #40]	@ 0x28
	carry -= uECC_vli_sub(result, result, tmp, NUM_ECC_WORDS);
 8005fba:	f107 020c 	add.w	r2, r7, #12
 8005fbe:	2308      	movs	r3, #8
 8005fc0:	6879      	ldr	r1, [r7, #4]
 8005fc2:	6878      	ldr	r0, [r7, #4]
 8005fc4:	f7ff f933 	bl	800522e <uECC_vli_sub>
 8005fc8:	4602      	mov	r2, r0
 8005fca:	6afb      	ldr	r3, [r7, #44]	@ 0x2c
 8005fcc:	1a9b      	subs	r3, r3, r2
 8005fce:	62fb      	str	r3, [r7, #44]	@ 0x2c

	/* d2 */
	tmp[0] = product[12];
 8005fd0:	683b      	ldr	r3, [r7, #0]
 8005fd2:	6b1b      	ldr	r3, [r3, #48]	@ 0x30
 8005fd4:	60fb      	str	r3, [r7, #12]
	tmp[1] = product[13];
 8005fd6:	683b      	ldr	r3, [r7, #0]
 8005fd8:	6b5b      	ldr	r3, [r3, #52]	@ 0x34
 8005fda:	613b      	str	r3, [r7, #16]
	tmp[2] = product[14];
 8005fdc:	683b      	ldr	r3, [r7, #0]
 8005fde:	6b9b      	ldr	r3, [r3, #56]	@ 0x38
 8005fe0:	617b      	str	r3, [r7, #20]
	tmp[3] = product[15];
 8005fe2:	683b      	ldr	r3, [r7, #0]
 8005fe4:	6bdb      	ldr	r3, [r3, #60]	@ 0x3c
 8005fe6:	61bb      	str	r3, [r7, #24]
	tmp[4] = tmp[5] = 0;
 8005fe8:	2300      	movs	r3, #0
 8005fea:	623b      	str	r3, [r7, #32]
 8005fec:	6a3b      	ldr	r3, [r7, #32]
 8005fee:	61fb      	str	r3, [r7, #28]
	tmp[6] = product[9];
 8005ff0:	683b      	ldr	r3, [r7, #0]
 8005ff2:	6a5b      	ldr	r3, [r3, #36]	@ 0x24
 8005ff4:	627b      	str	r3, [r7, #36]	@ 0x24
	tmp[7] = product[11];
 8005ff6:	683b      	ldr	r3, [r7, #0]
 8005ff8:	6adb      	ldr	r3, [r3, #44]	@ 0x2c
 8005ffa:	62bb      	str	r3, [r7, #40]	@ 0x28
	carry -= uECC_vli_sub(result, result, tmp, NUM_ECC_WORDS);
 8005ffc:	f107 020c 	add.w	r2, r7, #12
 8006000:	2308      	movs	r3, #8
 8006002:	6879      	ldr	r1, [r7, #4]
 8006004:	6878      	ldr	r0, [r7, #4]
 8006006:	f7ff f912 	bl	800522e <uECC_vli_sub>
 800600a:	4602      	mov	r2, r0
 800600c:	6afb      	ldr	r3, [r7, #44]	@ 0x2c
 800600e:	1a9b      	subs	r3, r3, r2
 8006010:	62fb      	str	r3, [r7, #44]	@ 0x2c

	/* d3 */
	tmp[0] = product[13];
 8006012:	683b      	ldr	r3, [r7, #0]
 8006014:	6b5b      	ldr	r3, [r3, #52]	@ 0x34
 8006016:	60fb      	str	r3, [r7, #12]
	tmp[1] = product[14];
 8006018:	683b      	ldr	r3, [r7, #0]
 800601a:	6b9b      	ldr	r3, [r3, #56]	@ 0x38
 800601c:	613b      	str	r3, [r7, #16]
	tmp[2] = product[15];
 800601e:	683b      	ldr	r3, [r7, #0]
 8006020:	6bdb      	ldr	r3, [r3, #60]	@ 0x3c
 8006022:	617b      	str	r3, [r7, #20]
	tmp[3] = product[8];
 8006024:	683b      	ldr	r3, [r7, #0]
 8006026:	6a1b      	ldr	r3, [r3, #32]
 8006028:	61bb      	str	r3, [r7, #24]
	tmp[4] = product[9];
 800602a:	683b      	ldr	r3, [r7, #0]
 800602c:	6a5b      	ldr	r3, [r3, #36]	@ 0x24
 800602e:	61fb      	str	r3, [r7, #28]
	tmp[5] = product[10];
 8006030:	683b      	ldr	r3, [r7, #0]
 8006032:	6a9b      	ldr	r3, [r3, #40]	@ 0x28
 8006034:	623b      	str	r3, [r7, #32]
	tmp[6] = 0;
 8006036:	2300      	movs	r3, #0
 8006038:	627b      	str	r3, [r7, #36]	@ 0x24
	tmp[7] = product[12];
 800603a:	683b      	ldr	r3, [r7, #0]
 800603c:	6b1b      	ldr	r3, [r3, #48]	@ 0x30
 800603e:	62bb      	str	r3, [r7, #40]	@ 0x28
	carry -= uECC_vli_sub(result, result, tmp, NUM_ECC_WORDS);
 8006040:	f107 020c 	add.w	r2, r7, #12
 8006044:	2308      	movs	r3, #8
 8006046:	6879      	ldr	r1, [r7, #4]
 8006048:	6878      	ldr	r0, [r7, #4]
 800604a:	f7ff f8f0 	bl	800522e <uECC_vli_sub>
 800604e:	4602      	mov	r2, r0
 8006050:	6afb      	ldr	r3, [r7, #44]	@ 0x2c
 8006052:	1a9b      	subs	r3, r3, r2
 8006054:	62fb      	str	r3, [r7, #44]	@ 0x2c

	/* d4 */
	tmp[0] = product[14];
 8006056:	683b      	ldr	r3, [r7, #0]
 8006058:	6b9b      	ldr	r3, [r3, #56]	@ 0x38
 800605a:	60fb      	str	r3, [r7, #12]
	tmp[1] = product[15];
 800605c:	683b      	ldr	r3, [r7, #0]
 800605e:	6bdb      	ldr	r3, [r3, #60]	@ 0x3c
 8006060:	613b      	str	r3, [r7, #16]
	tmp[2] = 0;
 8006062:	2300      	movs	r3, #0
 8006064:	617b      	str	r3, [r7, #20]
	tmp[3] = product[9];
 8006066:	683b      	ldr	r3, [r7, #0]
 8006068:	6a5b      	ldr	r3, [r3, #36]	@ 0x24
 800606a:	61bb      	str	r3, [r7, #24]
	tmp[4] = product[10];
 800606c:	683b      	ldr	r3, [r7, #0]
 800606e:	6a9b      	ldr	r3, [r3, #40]	@ 0x28
 8006070:	61fb      	str	r3, [r7, #28]
	tmp[5] = product[11];
 8006072:	683b      	ldr	r3, [r7, #0]
 8006074:	6adb      	ldr	r3, [r3, #44]	@ 0x2c
 8006076:	623b      	str	r3, [r7, #32]
	tmp[6] = 0;
 8006078:	2300      	movs	r3, #0
 800607a:	627b      	str	r3, [r7, #36]	@ 0x24
	tmp[7] = product[13];
 800607c:	683b      	ldr	r3, [r7, #0]
 800607e:	6b5b      	ldr	r3, [r3, #52]	@ 0x34
 8006080:	62bb      	str	r3, [r7, #40]	@ 0x28
	carry -= uECC_vli_sub(result, result, tmp, NUM_ECC_WORDS);
 8006082:	f107 020c 	add.w	r2, r7, #12
 8006086:	2308      	movs	r3, #8
 8006088:	6879      	ldr	r1, [r7, #4]
 800608a:	6878      	ldr	r0, [r7, #4]
 800608c:	f7ff f8cf 	bl	800522e <uECC_vli_sub>
 8006090:	4602      	mov	r2, r0
 8006092:	6afb      	ldr	r3, [r7, #44]	@ 0x2c
 8006094:	1a9b      	subs	r3, r3, r2
 8006096:	62fb      	str	r3, [r7, #44]	@ 0x2c

	if (carry < 0) {
 8006098:	6afb      	ldr	r3, [r7, #44]	@ 0x2c
 800609a:	2b00      	cmp	r3, #0
 800609c:	da17      	bge.n	80060ce <vli_mmod_fast_secp256r1+0x27a>
		do {
			carry += uECC_vli_add(result, result, curve_secp256r1.p, NUM_ECC_WORDS);
 800609e:	2308      	movs	r3, #8
 80060a0:	4a12      	ldr	r2, [pc, #72]	@ (80060ec <vli_mmod_fast_secp256r1+0x298>)
 80060a2:	6879      	ldr	r1, [r7, #4]
 80060a4:	6878      	ldr	r0, [r7, #4]
 80060a6:	f7ff f913 	bl	80052d0 <uECC_vli_add>
 80060aa:	4602      	mov	r2, r0
 80060ac:	6afb      	ldr	r3, [r7, #44]	@ 0x2c
 80060ae:	4413      	add	r3, r2
 80060b0:	62fb      	str	r3, [r7, #44]	@ 0x2c
		}
		while (carry < 0);
 80060b2:	6afb      	ldr	r3, [r7, #44]	@ 0x2c
 80060b4:	2b00      	cmp	r3, #0
 80060b6:	dbf2      	blt.n	800609e <vli_mmod_fast_secp256r1+0x24a>
		while (carry || 
		       uECC_vli_cmp_unsafe(curve_secp256r1.p, result, NUM_ECC_WORDS) != 1) {
			carry -= uECC_vli_sub(result, result, curve_secp256r1.p, NUM_ECC_WORDS);
		}
	}
}
 80060b8:	e014      	b.n	80060e4 <vli_mmod_fast_secp256r1+0x290>
			carry -= uECC_vli_sub(result, result, curve_secp256r1.p, NUM_ECC_WORDS);
 80060ba:	2308      	movs	r3, #8
 80060bc:	4a0b      	ldr	r2, [pc, #44]	@ (80060ec <vli_mmod_fast_secp256r1+0x298>)
 80060be:	6879      	ldr	r1, [r7, #4]
 80060c0:	6878      	ldr	r0, [r7, #4]
 80060c2:	f7ff f8b4 	bl	800522e <uECC_vli_sub>
 80060c6:	4602      	mov	r2, r0
 80060c8:	6afb      	ldr	r3, [r7, #44]	@ 0x2c
 80060ca:	1a9b      	subs	r3, r3, r2
 80060cc:	62fb      	str	r3, [r7, #44]	@ 0x2c
		while (carry || 
 80060ce:	6afb      	ldr	r3, [r7, #44]	@ 0x2c
 80060d0:	2b00      	cmp	r3, #0
 80060d2:	d1f2      	bne.n	80060ba <vli_mmod_fast_secp256r1+0x266>
		       uECC_vli_cmp_unsafe(curve_secp256r1.p, result, NUM_ECC_WORDS) != 1) {
 80060d4:	2208      	movs	r2, #8
 80060d6:	6879      	ldr	r1, [r7, #4]
 80060d8:	4804      	ldr	r0, [pc, #16]	@ (80060ec <vli_mmod_fast_secp256r1+0x298>)
 80060da:	f7ff f81f 	bl	800511c <uECC_vli_cmp_unsafe>
 80060de:	4603      	mov	r3, r0
		while (carry || 
 80060e0:	2b01      	cmp	r3, #1
 80060e2:	d1ea      	bne.n	80060ba <vli_mmod_fast_secp256r1+0x266>
}
 80060e4:	bf00      	nop
 80060e6:	3730      	adds	r7, #48	@ 0x30
 80060e8:	46bd      	mov	sp, r7
 80060ea:	bd80      	pop	{r7, pc}
 80060ec:	08007d50 	.word	0x08007d50

080060f0 <apply_z>:
	return uECC_vli_isZero(point, curve->num_words * 2);
}

void apply_z(uECC_word_t * X1, uECC_word_t * Y1, const uECC_word_t * const Z,
	     uECC_Curve curve)
{
 80060f0:	b580      	push	{r7, lr}
 80060f2:	b08c      	sub	sp, #48	@ 0x30
 80060f4:	af00      	add	r7, sp, #0
 80060f6:	60f8      	str	r0, [r7, #12]
 80060f8:	60b9      	str	r1, [r7, #8]
 80060fa:	607a      	str	r2, [r7, #4]
 80060fc:	603b      	str	r3, [r7, #0]
	uECC_word_t t1[NUM_ECC_WORDS];

	uECC_vli_modSquare_fast(t1, Z, curve);    /* z^2 */
 80060fe:	f107 0310 	add.w	r3, r7, #16
 8006102:	683a      	ldr	r2, [r7, #0]
 8006104:	6879      	ldr	r1, [r7, #4]
 8006106:	4618      	mov	r0, r3
 8006108:	f7ff fc1e 	bl	8005948 <uECC_vli_modSquare_fast>
	uECC_vli_modMult_fast(X1, X1, t1, curve); /* x1 * z^2 */
 800610c:	f107 0210 	add.w	r2, r7, #16
 8006110:	683b      	ldr	r3, [r7, #0]
 8006112:	68f9      	ldr	r1, [r7, #12]
 8006114:	68f8      	ldr	r0, [r7, #12]
 8006116:	f7ff fbfb 	bl	8005910 <uECC_vli_modMult_fast>
	uECC_vli_modMult_fast(t1, t1, Z, curve);  /* z^3 */
 800611a:	f107 0110 	add.w	r1, r7, #16
 800611e:	f107 0010 	add.w	r0, r7, #16
 8006122:	683b      	ldr	r3, [r7, #0]
 8006124:	687a      	ldr	r2, [r7, #4]
 8006126:	f7ff fbf3 	bl	8005910 <uECC_vli_modMult_fast>
	uECC_vli_modMult_fast(Y1, Y1, t1, curve); /* y1 * z^3 */
 800612a:	f107 0210 	add.w	r2, r7, #16
 800612e:	683b      	ldr	r3, [r7, #0]
 8006130:	68b9      	ldr	r1, [r7, #8]
 8006132:	68b8      	ldr	r0, [r7, #8]
 8006134:	f7ff fbec 	bl	8005910 <uECC_vli_modMult_fast>
}
 8006138:	bf00      	nop
 800613a:	3730      	adds	r7, #48	@ 0x30
 800613c:	46bd      	mov	sp, r7
 800613e:	bd80      	pop	{r7, pc}

08006140 <XYcZ_add>:
}

void XYcZ_add(uECC_word_t * X1, uECC_word_t * Y1,
	      uECC_word_t * X2, uECC_word_t * Y2,
	      uECC_Curve curve)
{
 8006140:	b580      	push	{r7, lr}
 8006142:	b090      	sub	sp, #64	@ 0x40
 8006144:	af02      	add	r7, sp, #8
 8006146:	60f8      	str	r0, [r7, #12]
 8006148:	60b9      	str	r1, [r7, #8]
 800614a:	607a      	str	r2, [r7, #4]
 800614c:	603b      	str	r3, [r7, #0]
	/* t1 = X1, t2 = Y1, t3 = X2, t4 = Y2 */
	uECC_word_t t5[NUM_ECC_WORDS];
	wordcount_t num_words = curve->num_words;
 800614e:	6c3b      	ldr	r3, [r7, #64]	@ 0x40
 8006150:	781b      	ldrb	r3, [r3, #0]
 8006152:	f887 3037 	strb.w	r3, [r7, #55]	@ 0x37

	uECC_vli_modSub(t5, X2, X1, curve->p, num_words); /* t5 = x2 - x1 */
 8006156:	6c3b      	ldr	r3, [r7, #64]	@ 0x40
 8006158:	1d1a      	adds	r2, r3, #4
 800615a:	f107 0014 	add.w	r0, r7, #20
 800615e:	f997 3037 	ldrsb.w	r3, [r7, #55]	@ 0x37
 8006162:	9300      	str	r3, [sp, #0]
 8006164:	4613      	mov	r3, r2
 8006166:	68fa      	ldr	r2, [r7, #12]
 8006168:	6879      	ldr	r1, [r7, #4]
 800616a:	f7ff fa5d 	bl	8005628 <uECC_vli_modSub>
	uECC_vli_modSquare_fast(t5, t5, curve); /* t5 = (x2 - x1)^2 = A */
 800616e:	f107 0114 	add.w	r1, r7, #20
 8006172:	f107 0314 	add.w	r3, r7, #20
 8006176:	6c3a      	ldr	r2, [r7, #64]	@ 0x40
 8006178:	4618      	mov	r0, r3
 800617a:	f7ff fbe5 	bl	8005948 <uECC_vli_modSquare_fast>
	uECC_vli_modMult_fast(X1, X1, t5, curve); /* t1 = x1*A = B */
 800617e:	f107 0214 	add.w	r2, r7, #20
 8006182:	6c3b      	ldr	r3, [r7, #64]	@ 0x40
 8006184:	68f9      	ldr	r1, [r7, #12]
 8006186:	68f8      	ldr	r0, [r7, #12]
 8006188:	f7ff fbc2 	bl	8005910 <uECC_vli_modMult_fast>
	uECC_vli_modMult_fast(X2, X2, t5, curve); /* t3 = x2*A = C */
 800618c:	f107 0214 	add.w	r2, r7, #20
 8006190:	6c3b      	ldr	r3, [r7, #64]	@ 0x40
 8006192:	6879      	ldr	r1, [r7, #4]
 8006194:	6878      	ldr	r0, [r7, #4]
 8006196:	f7ff fbbb 	bl	8005910 <uECC_vli_modMult_fast>
	uECC_vli_modSub(Y2, Y2, Y1, curve->p, num_words); /* t4 = y2 - y1 */
 800619a:	6c3b      	ldr	r3, [r7, #64]	@ 0x40
 800619c:	1d1a      	adds	r2, r3, #4
 800619e:	f997 3037 	ldrsb.w	r3, [r7, #55]	@ 0x37
 80061a2:	9300      	str	r3, [sp, #0]
 80061a4:	4613      	mov	r3, r2
 80061a6:	68ba      	ldr	r2, [r7, #8]
 80061a8:	6839      	ldr	r1, [r7, #0]
 80061aa:	6838      	ldr	r0, [r7, #0]
 80061ac:	f7ff fa3c 	bl	8005628 <uECC_vli_modSub>
	uECC_vli_modSquare_fast(t5, Y2, curve); /* t5 = (y2 - y1)^2 = D */
 80061b0:	f107 0314 	add.w	r3, r7, #20
 80061b4:	6c3a      	ldr	r2, [r7, #64]	@ 0x40
 80061b6:	6839      	ldr	r1, [r7, #0]
 80061b8:	4618      	mov	r0, r3
 80061ba:	f7ff fbc5 	bl	8005948 <uECC_vli_modSquare_fast>

	uECC_vli_modSub(t5, t5, X1, curve->p, num_words); /* t5 = D - B */
 80061be:	6c3b      	ldr	r3, [r7, #64]	@ 0x40
 80061c0:	1d1a      	adds	r2, r3, #4
 80061c2:	f107 0114 	add.w	r1, r7, #20
 80061c6:	f107 0014 	add.w	r0, r7, #20
 80061ca:	f997 3037 	ldrsb.w	r3, [r7, #55]	@ 0x37
 80061ce:	9300      	str	r3, [sp, #0]
 80061d0:	4613      	mov	r3, r2
 80061d2:	68fa      	ldr	r2, [r7, #12]
 80061d4:	f7ff fa28 	bl	8005628 <uECC_vli_modSub>
	uECC_vli_modSub(t5, t5, X2, curve->p, num_words); /* t5 = D - B - C = x3 */
 80061d8:	6c3b      	ldr	r3, [r7, #64]	@ 0x40
 80061da:	1d1a      	adds	r2, r3, #4
 80061dc:	f107 0114 	add.w	r1, r7, #20
 80061e0:	f107 0014 	add.w	r0, r7, #20
 80061e4:	f997 3037 	ldrsb.w	r3, [r7, #55]	@ 0x37
 80061e8:	9300      	str	r3, [sp, #0]
 80061ea:	4613      	mov	r3, r2
 80061ec:	687a      	ldr	r2, [r7, #4]
 80061ee:	f7ff fa1b 	bl	8005628 <uECC_vli_modSub>
	uECC_vli_modSub(X2, X2, X1, curve->p, num_words); /* t3 = C - B */
 80061f2:	6c3b      	ldr	r3, [r7, #64]	@ 0x40
 80061f4:	1d1a      	adds	r2, r3, #4
 80061f6:	f997 3037 	ldrsb.w	r3, [r7, #55]	@ 0x37
 80061fa:	9300      	str	r3, [sp, #0]
 80061fc:	4613      	mov	r3, r2
 80061fe:	68fa      	ldr	r2, [r7, #12]
 8006200:	6879      	ldr	r1, [r7, #4]
 8006202:	6878      	ldr	r0, [r7, #4]
 8006204:	f7ff fa10 	bl	8005628 <uECC_vli_modSub>
	uECC_vli_modMult_fast(Y1, Y1, X2, curve); /* t2 = y1*(C - B) */
 8006208:	6c3b      	ldr	r3, [r7, #64]	@ 0x40
 800620a:	687a      	ldr	r2, [r7, #4]
 800620c:	68b9      	ldr	r1, [r7, #8]
 800620e:	68b8      	ldr	r0, [r7, #8]
 8006210:	f7ff fb7e 	bl	8005910 <uECC_vli_modMult_fast>
	uECC_vli_modSub(X2, X1, t5, curve->p, num_words); /* t3 = B - x3 */
 8006214:	6c3b      	ldr	r3, [r7, #64]	@ 0x40
 8006216:	1d19      	adds	r1, r3, #4
 8006218:	f107 0214 	add.w	r2, r7, #20
 800621c:	f997 3037 	ldrsb.w	r3, [r7, #55]	@ 0x37
 8006220:	9300      	str	r3, [sp, #0]
 8006222:	460b      	mov	r3, r1
 8006224:	68f9      	ldr	r1, [r7, #12]
 8006226:	6878      	ldr	r0, [r7, #4]
 8006228:	f7ff f9fe 	bl	8005628 <uECC_vli_modSub>
	uECC_vli_modMult_fast(Y2, Y2, X2, curve); /* t4 = (y2 - y1)*(B - x3) */
 800622c:	6c3b      	ldr	r3, [r7, #64]	@ 0x40
 800622e:	687a      	ldr	r2, [r7, #4]
 8006230:	6839      	ldr	r1, [r7, #0]
 8006232:	6838      	ldr	r0, [r7, #0]
 8006234:	f7ff fb6c 	bl	8005910 <uECC_vli_modMult_fast>
	uECC_vli_modSub(Y2, Y2, Y1, curve->p, num_words); /* t4 = y3 */
 8006238:	6c3b      	ldr	r3, [r7, #64]	@ 0x40
 800623a:	1d1a      	adds	r2, r3, #4
 800623c:	f997 3037 	ldrsb.w	r3, [r7, #55]	@ 0x37
 8006240:	9300      	str	r3, [sp, #0]
 8006242:	4613      	mov	r3, r2
 8006244:	68ba      	ldr	r2, [r7, #8]
 8006246:	6839      	ldr	r1, [r7, #0]
 8006248:	6838      	ldr	r0, [r7, #0]
 800624a:	f7ff f9ed 	bl	8005628 <uECC_vli_modSub>

	uECC_vli_set(X2, t5, num_words);
 800624e:	f997 2037 	ldrsb.w	r2, [r7, #55]	@ 0x37
 8006252:	f107 0314 	add.w	r3, r7, #20
 8006256:	4619      	mov	r1, r3
 8006258:	6878      	ldr	r0, [r7, #4]
 800625a:	f7fe ff38 	bl	80050ce <uECC_vli_set>
}
 800625e:	bf00      	nop
 8006260:	3738      	adds	r7, #56	@ 0x38
 8006262:	46bd      	mov	sp, r7
 8006264:	bd80      	pop	{r7, pc}

08006266 <uECC_vli_bytesToNative>:
}

/* Converts big-endian bytes to an integer in uECC native format. */
void uECC_vli_bytesToNative(unsigned int *native, const uint8_t *bytes,
			    int num_bytes)
{
 8006266:	b580      	push	{r7, lr}
 8006268:	b086      	sub	sp, #24
 800626a:	af00      	add	r7, sp, #0
 800626c:	60f8      	str	r0, [r7, #12]
 800626e:	60b9      	str	r1, [r7, #8]
 8006270:	607a      	str	r2, [r7, #4]
	wordcount_t i;
	uECC_vli_clear(native, (num_bytes + (uECC_WORD_SIZE - 1)) / uECC_WORD_SIZE);
 8006272:	687b      	ldr	r3, [r7, #4]
 8006274:	3303      	adds	r3, #3
 8006276:	2b00      	cmp	r3, #0
 8006278:	da00      	bge.n	800627c <uECC_vli_bytesToNative+0x16>
 800627a:	3303      	adds	r3, #3
 800627c:	109b      	asrs	r3, r3, #2
 800627e:	b25b      	sxtb	r3, r3
 8006280:	4619      	mov	r1, r3
 8006282:	68f8      	ldr	r0, [r7, #12]
 8006284:	f7fe fe5e 	bl	8004f44 <uECC_vli_clear>
	for (i = 0; i < num_bytes; ++i) {
 8006288:	2300      	movs	r3, #0
 800628a:	75fb      	strb	r3, [r7, #23]
 800628c:	e021      	b.n	80062d2 <uECC_vli_bytesToNative+0x6c>
		unsigned b = num_bytes - 1 - i;
 800628e:	687b      	ldr	r3, [r7, #4]
 8006290:	1e5a      	subs	r2, r3, #1
 8006292:	f997 3017 	ldrsb.w	r3, [r7, #23]
 8006296:	1ad3      	subs	r3, r2, r3
 8006298:	613b      	str	r3, [r7, #16]
		native[b / uECC_WORD_SIZE] |=
 800629a:	693b      	ldr	r3, [r7, #16]
 800629c:	f023 0303 	bic.w	r3, r3, #3
 80062a0:	68fa      	ldr	r2, [r7, #12]
 80062a2:	4413      	add	r3, r2
 80062a4:	6819      	ldr	r1, [r3, #0]
			(uECC_word_t)bytes[i] << (8 * (b % uECC_WORD_SIZE));
 80062a6:	f997 3017 	ldrsb.w	r3, [r7, #23]
 80062aa:	68ba      	ldr	r2, [r7, #8]
 80062ac:	4413      	add	r3, r2
 80062ae:	781b      	ldrb	r3, [r3, #0]
 80062b0:	461a      	mov	r2, r3
 80062b2:	693b      	ldr	r3, [r7, #16]
 80062b4:	f003 0303 	and.w	r3, r3, #3
 80062b8:	00db      	lsls	r3, r3, #3
 80062ba:	409a      	lsls	r2, r3
		native[b / uECC_WORD_SIZE] |=
 80062bc:	693b      	ldr	r3, [r7, #16]
 80062be:	f023 0303 	bic.w	r3, r3, #3
 80062c2:	68f8      	ldr	r0, [r7, #12]
 80062c4:	4403      	add	r3, r0
 80062c6:	430a      	orrs	r2, r1
 80062c8:	601a      	str	r2, [r3, #0]
	for (i = 0; i < num_bytes; ++i) {
 80062ca:	7dfb      	ldrb	r3, [r7, #23]
 80062cc:	3301      	adds	r3, #1
 80062ce:	b2db      	uxtb	r3, r3
 80062d0:	75fb      	strb	r3, [r7, #23]
 80062d2:	f997 3017 	ldrsb.w	r3, [r7, #23]
 80062d6:	687a      	ldr	r2, [r7, #4]
 80062d8:	429a      	cmp	r2, r3
 80062da:	dcd8      	bgt.n	800628e <uECC_vli_bytesToNative+0x28>
  	}
}
 80062dc:	bf00      	nop
 80062de:	bf00      	nop
 80062e0:	3718      	adds	r7, #24
 80062e2:	46bd      	mov	sp, r7
 80062e4:	bd80      	pop	{r7, pc}

080062e6 <bits2int>:
#include "ecc_dsa.h"


static void bits2int(uECC_word_t *native, const uint8_t *bits,
		     unsigned bits_size, uECC_Curve curve)
{
 80062e6:	b580      	push	{r7, lr}
 80062e8:	b08a      	sub	sp, #40	@ 0x28
 80062ea:	af00      	add	r7, sp, #0
 80062ec:	60f8      	str	r0, [r7, #12]
 80062ee:	60b9      	str	r1, [r7, #8]
 80062f0:	607a      	str	r2, [r7, #4]
 80062f2:	603b      	str	r3, [r7, #0]
	unsigned num_n_bytes = BITS_TO_BYTES(curve->num_n_bits);
 80062f4:	683b      	ldr	r3, [r7, #0]
 80062f6:	f9b3 3002 	ldrsh.w	r3, [r3, #2]
 80062fa:	3307      	adds	r3, #7
 80062fc:	2b00      	cmp	r3, #0
 80062fe:	da00      	bge.n	8006302 <bits2int+0x1c>
 8006300:	3307      	adds	r3, #7
 8006302:	10db      	asrs	r3, r3, #3
 8006304:	61fb      	str	r3, [r7, #28]
	unsigned num_n_words = BITS_TO_WORDS(curve->num_n_bits);
 8006306:	683b      	ldr	r3, [r7, #0]
 8006308:	f9b3 3002 	ldrsh.w	r3, [r3, #2]
 800630c:	331f      	adds	r3, #31
 800630e:	2b00      	cmp	r3, #0
 8006310:	da00      	bge.n	8006314 <bits2int+0x2e>
 8006312:	331f      	adds	r3, #31
 8006314:	115b      	asrs	r3, r3, #5
 8006316:	61bb      	str	r3, [r7, #24]
	int shift;
	uECC_word_t carry;
	uECC_word_t *ptr;

	if (bits_size > num_n_bytes) {
 8006318:	687a      	ldr	r2, [r7, #4]
 800631a:	69fb      	ldr	r3, [r7, #28]
 800631c:	429a      	cmp	r2, r3
 800631e:	d901      	bls.n	8006324 <bits2int+0x3e>
		bits_size = num_n_bytes;
 8006320:	69fb      	ldr	r3, [r7, #28]
 8006322:	607b      	str	r3, [r7, #4]
	}

	uECC_vli_clear(native, num_n_words);
 8006324:	69bb      	ldr	r3, [r7, #24]
 8006326:	b25b      	sxtb	r3, r3
 8006328:	4619      	mov	r1, r3
 800632a:	68f8      	ldr	r0, [r7, #12]
 800632c:	f7fe fe0a 	bl	8004f44 <uECC_vli_clear>
	uECC_vli_bytesToNative(native, bits, bits_size);
 8006330:	687b      	ldr	r3, [r7, #4]
 8006332:	461a      	mov	r2, r3
 8006334:	68b9      	ldr	r1, [r7, #8]
 8006336:	68f8      	ldr	r0, [r7, #12]
 8006338:	f7ff ff95 	bl	8006266 <uECC_vli_bytesToNative>
	if (bits_size * 8 <= (unsigned)curve->num_n_bits) {
 800633c:	687b      	ldr	r3, [r7, #4]
 800633e:	00db      	lsls	r3, r3, #3
 8006340:	683a      	ldr	r2, [r7, #0]
 8006342:	f9b2 2002 	ldrsh.w	r2, [r2, #2]
 8006346:	4293      	cmp	r3, r2
 8006348:	d93a      	bls.n	80063c0 <bits2int+0xda>
		return;
	}
	shift = bits_size * 8 - curve->num_n_bits;
 800634a:	687b      	ldr	r3, [r7, #4]
 800634c:	00db      	lsls	r3, r3, #3
 800634e:	683a      	ldr	r2, [r7, #0]
 8006350:	f9b2 2002 	ldrsh.w	r2, [r2, #2]
 8006354:	1a9b      	subs	r3, r3, r2
 8006356:	617b      	str	r3, [r7, #20]
	carry = 0;
 8006358:	2300      	movs	r3, #0
 800635a:	627b      	str	r3, [r7, #36]	@ 0x24
	ptr = native + num_n_words;
 800635c:	69bb      	ldr	r3, [r7, #24]
 800635e:	009b      	lsls	r3, r3, #2
 8006360:	68fa      	ldr	r2, [r7, #12]
 8006362:	4413      	add	r3, r2
 8006364:	623b      	str	r3, [r7, #32]
	while (ptr-- > native) {
 8006366:	e010      	b.n	800638a <bits2int+0xa4>
		uECC_word_t temp = *ptr;
 8006368:	6a3b      	ldr	r3, [r7, #32]
 800636a:	681b      	ldr	r3, [r3, #0]
 800636c:	613b      	str	r3, [r7, #16]
		*ptr = (temp >> shift) | carry;
 800636e:	693a      	ldr	r2, [r7, #16]
 8006370:	697b      	ldr	r3, [r7, #20]
 8006372:	40da      	lsrs	r2, r3
 8006374:	6a7b      	ldr	r3, [r7, #36]	@ 0x24
 8006376:	431a      	orrs	r2, r3
 8006378:	6a3b      	ldr	r3, [r7, #32]
 800637a:	601a      	str	r2, [r3, #0]
		carry = temp << (uECC_WORD_BITS - shift);
 800637c:	697b      	ldr	r3, [r7, #20]
 800637e:	f1c3 0320 	rsb	r3, r3, #32
 8006382:	693a      	ldr	r2, [r7, #16]
 8006384:	fa02 f303 	lsl.w	r3, r2, r3
 8006388:	627b      	str	r3, [r7, #36]	@ 0x24
	while (ptr-- > native) {
 800638a:	6a3b      	ldr	r3, [r7, #32]
 800638c:	1f1a      	subs	r2, r3, #4
 800638e:	623a      	str	r2, [r7, #32]
 8006390:	68fa      	ldr	r2, [r7, #12]
 8006392:	429a      	cmp	r2, r3
 8006394:	d3e8      	bcc.n	8006368 <bits2int+0x82>
	}

	/* Reduce mod curve_n */
	if (uECC_vli_cmp_unsafe(curve->n, native, num_n_words) != 1) {
 8006396:	683b      	ldr	r3, [r7, #0]
 8006398:	3324      	adds	r3, #36	@ 0x24
 800639a:	69ba      	ldr	r2, [r7, #24]
 800639c:	b252      	sxtb	r2, r2
 800639e:	68f9      	ldr	r1, [r7, #12]
 80063a0:	4618      	mov	r0, r3
 80063a2:	f7fe febb 	bl	800511c <uECC_vli_cmp_unsafe>
 80063a6:	4603      	mov	r3, r0
 80063a8:	2b01      	cmp	r3, #1
 80063aa:	d00a      	beq.n	80063c2 <bits2int+0xdc>
		uECC_vli_sub(native, native, curve->n, num_n_words);
 80063ac:	683b      	ldr	r3, [r7, #0]
 80063ae:	f103 0224 	add.w	r2, r3, #36	@ 0x24
 80063b2:	69bb      	ldr	r3, [r7, #24]
 80063b4:	b25b      	sxtb	r3, r3
 80063b6:	68f9      	ldr	r1, [r7, #12]
 80063b8:	68f8      	ldr	r0, [r7, #12]
 80063ba:	f7fe ff38 	bl	800522e <uECC_vli_sub>
 80063be:	e000      	b.n	80063c2 <bits2int+0xdc>
		return;
 80063c0:	bf00      	nop
	}
}
 80063c2:	3728      	adds	r7, #40	@ 0x28
 80063c4:	46bd      	mov	sp, r7
 80063c6:	bd80      	pop	{r7, pc}

080063c8 <smax>:
	}
	return 0;
}

static bitcount_t smax(bitcount_t a, bitcount_t b)
{
 80063c8:	b480      	push	{r7}
 80063ca:	b083      	sub	sp, #12
 80063cc:	af00      	add	r7, sp, #0
 80063ce:	4603      	mov	r3, r0
 80063d0:	460a      	mov	r2, r1
 80063d2:	80fb      	strh	r3, [r7, #6]
 80063d4:	4613      	mov	r3, r2
 80063d6:	80bb      	strh	r3, [r7, #4]
	return (a > b ? a : b);
 80063d8:	f9b7 2004 	ldrsh.w	r2, [r7, #4]
 80063dc:	f9b7 3006 	ldrsh.w	r3, [r7, #6]
 80063e0:	4293      	cmp	r3, r2
 80063e2:	bfb8      	it	lt
 80063e4:	4613      	movlt	r3, r2
 80063e6:	b21b      	sxth	r3, r3
}
 80063e8:	4618      	mov	r0, r3
 80063ea:	370c      	adds	r7, #12
 80063ec:	46bd      	mov	sp, r7
 80063ee:	f85d 7b04 	ldr.w	r7, [sp], #4
 80063f2:	4770      	bx	lr

080063f4 <uECC_verify>:

int uECC_verify(const uint8_t *public_key, const uint8_t *message_hash,
		unsigned hash_size, const uint8_t *signature,
	        uECC_Curve curve)
{
 80063f4:	b590      	push	{r4, r7, lr}
 80063f6:	b0ff      	sub	sp, #508	@ 0x1fc
 80063f8:	af02      	add	r7, sp, #8
 80063fa:	f507 74f8 	add.w	r4, r7, #496	@ 0x1f0
 80063fe:	f5a4 74f2 	sub.w	r4, r4, #484	@ 0x1e4
 8006402:	6020      	str	r0, [r4, #0]
 8006404:	f507 70f8 	add.w	r0, r7, #496	@ 0x1f0
 8006408:	f5a0 70f4 	sub.w	r0, r0, #488	@ 0x1e8
 800640c:	6001      	str	r1, [r0, #0]
 800640e:	f507 71f8 	add.w	r1, r7, #496	@ 0x1f0
 8006412:	f5a1 71f6 	sub.w	r1, r1, #492	@ 0x1ec
 8006416:	600a      	str	r2, [r1, #0]
 8006418:	f507 72f8 	add.w	r2, r7, #496	@ 0x1f0
 800641c:	f5a2 72f8 	sub.w	r2, r2, #496	@ 0x1f0
 8006420:	6013      	str	r3, [r2, #0]
	bitcount_t num_bits;
	bitcount_t i;

	uECC_word_t _public[NUM_ECC_WORDS * 2];
	uECC_word_t r[NUM_ECC_WORDS], s[NUM_ECC_WORDS];
	wordcount_t num_words = curve->num_words;
 8006422:	f8d7 3200 	ldr.w	r3, [r7, #512]	@ 0x200
 8006426:	781b      	ldrb	r3, [r3, #0]
 8006428:	f887 31ed 	strb.w	r3, [r7, #493]	@ 0x1ed
	wordcount_t num_n_words = BITS_TO_WORDS(curve->num_n_bits);
 800642c:	f8d7 3200 	ldr.w	r3, [r7, #512]	@ 0x200
 8006430:	f9b3 3002 	ldrsh.w	r3, [r3, #2]
 8006434:	331f      	adds	r3, #31
 8006436:	2b00      	cmp	r3, #0
 8006438:	da00      	bge.n	800643c <uECC_verify+0x48>
 800643a:	331f      	adds	r3, #31
 800643c:	115b      	asrs	r3, r3, #5
 800643e:	f887 31ec 	strb.w	r3, [r7, #492]	@ 0x1ec

	rx[num_n_words - 1] = 0;
 8006442:	f997 31ec 	ldrsb.w	r3, [r7, #492]	@ 0x1ec
 8006446:	3b01      	subs	r3, #1
 8006448:	009b      	lsls	r3, r3, #2
 800644a:	f503 73f8 	add.w	r3, r3, #496	@ 0x1f0
 800644e:	443b      	add	r3, r7
 8006450:	2200      	movs	r2, #0
 8006452:	f843 2cd0 	str.w	r2, [r3, #-208]
	r[num_n_words - 1] = 0;
 8006456:	f997 31ec 	ldrsb.w	r3, [r7, #492]	@ 0x1ec
 800645a:	1e5a      	subs	r2, r3, #1
 800645c:	f507 73f8 	add.w	r3, r7, #496	@ 0x1f0
 8006460:	f5a3 73e0 	sub.w	r3, r3, #448	@ 0x1c0
 8006464:	2100      	movs	r1, #0
 8006466:	f843 1022 	str.w	r1, [r3, r2, lsl #2]
	s[num_n_words - 1] = 0;
 800646a:	f997 31ec 	ldrsb.w	r3, [r7, #492]	@ 0x1ec
 800646e:	1e5a      	subs	r2, r3, #1
 8006470:	f507 73f8 	add.w	r3, r7, #496	@ 0x1f0
 8006474:	f5a3 73f0 	sub.w	r3, r3, #480	@ 0x1e0
 8006478:	2100      	movs	r1, #0
 800647a:	f843 1022 	str.w	r1, [r3, r2, lsl #2]

	uECC_vli_bytesToNative(_public, public_key, curve->num_bytes);
 800647e:	f8d7 3200 	ldr.w	r3, [r7, #512]	@ 0x200
 8006482:	f993 3001 	ldrsb.w	r3, [r3, #1]
 8006486:	461a      	mov	r2, r3
 8006488:	f507 73f8 	add.w	r3, r7, #496	@ 0x1f0
 800648c:	f5a3 73f2 	sub.w	r3, r3, #484	@ 0x1e4
 8006490:	f107 0050 	add.w	r0, r7, #80	@ 0x50
 8006494:	6819      	ldr	r1, [r3, #0]
 8006496:	f7ff fee6 	bl	8006266 <uECC_vli_bytesToNative>
	uECC_vli_bytesToNative(_public + num_words, public_key + curve->num_bytes,
 800649a:	f997 31ed 	ldrsb.w	r3, [r7, #493]	@ 0x1ed
 800649e:	009b      	lsls	r3, r3, #2
 80064a0:	f107 0250 	add.w	r2, r7, #80	@ 0x50
 80064a4:	18d0      	adds	r0, r2, r3
 80064a6:	f8d7 3200 	ldr.w	r3, [r7, #512]	@ 0x200
 80064aa:	f993 3001 	ldrsb.w	r3, [r3, #1]
 80064ae:	461a      	mov	r2, r3
 80064b0:	f507 73f8 	add.w	r3, r7, #496	@ 0x1f0
 80064b4:	f5a3 73f2 	sub.w	r3, r3, #484	@ 0x1e4
 80064b8:	681b      	ldr	r3, [r3, #0]
 80064ba:	1899      	adds	r1, r3, r2
			       curve->num_bytes);
 80064bc:	f8d7 3200 	ldr.w	r3, [r7, #512]	@ 0x200
 80064c0:	f993 3001 	ldrsb.w	r3, [r3, #1]
	uECC_vli_bytesToNative(_public + num_words, public_key + curve->num_bytes,
 80064c4:	461a      	mov	r2, r3
 80064c6:	f7ff fece 	bl	8006266 <uECC_vli_bytesToNative>
	uECC_vli_bytesToNative(r, signature, curve->num_bytes);
 80064ca:	f8d7 3200 	ldr.w	r3, [r7, #512]	@ 0x200
 80064ce:	f993 3001 	ldrsb.w	r3, [r3, #1]
 80064d2:	461a      	mov	r2, r3
 80064d4:	f507 73f8 	add.w	r3, r7, #496	@ 0x1f0
 80064d8:	f5a3 73f8 	sub.w	r3, r3, #496	@ 0x1f0
 80064dc:	f107 0030 	add.w	r0, r7, #48	@ 0x30
 80064e0:	6819      	ldr	r1, [r3, #0]
 80064e2:	f7ff fec0 	bl	8006266 <uECC_vli_bytesToNative>
	uECC_vli_bytesToNative(s, signature + curve->num_bytes, curve->num_bytes);
 80064e6:	f8d7 3200 	ldr.w	r3, [r7, #512]	@ 0x200
 80064ea:	f993 3001 	ldrsb.w	r3, [r3, #1]
 80064ee:	461a      	mov	r2, r3
 80064f0:	f507 73f8 	add.w	r3, r7, #496	@ 0x1f0
 80064f4:	f5a3 73f8 	sub.w	r3, r3, #496	@ 0x1f0
 80064f8:	681b      	ldr	r3, [r3, #0]
 80064fa:	1899      	adds	r1, r3, r2
 80064fc:	f8d7 3200 	ldr.w	r3, [r7, #512]	@ 0x200
 8006500:	f993 3001 	ldrsb.w	r3, [r3, #1]
 8006504:	461a      	mov	r2, r3
 8006506:	f107 0310 	add.w	r3, r7, #16
 800650a:	4618      	mov	r0, r3
 800650c:	f7ff feab 	bl	8006266 <uECC_vli_bytesToNative>

	/* r, s must not be 0. */
	if (uECC_vli_isZero(r, num_words) || uECC_vli_isZero(s, num_words)) {
 8006510:	f997 21ed 	ldrsb.w	r2, [r7, #493]	@ 0x1ed
 8006514:	f107 0330 	add.w	r3, r7, #48	@ 0x30
 8006518:	4611      	mov	r1, r2
 800651a:	4618      	mov	r0, r3
 800651c:	f7fe fd33 	bl	8004f86 <uECC_vli_isZero>
 8006520:	4603      	mov	r3, r0
 8006522:	2b00      	cmp	r3, #0
 8006524:	d10a      	bne.n	800653c <uECC_verify+0x148>
 8006526:	f997 21ed 	ldrsb.w	r2, [r7, #493]	@ 0x1ed
 800652a:	f107 0310 	add.w	r3, r7, #16
 800652e:	4611      	mov	r1, r2
 8006530:	4618      	mov	r0, r3
 8006532:	f7fe fd28 	bl	8004f86 <uECC_vli_isZero>
 8006536:	4603      	mov	r3, r0
 8006538:	2b00      	cmp	r3, #0
 800653a:	d001      	beq.n	8006540 <uECC_verify+0x14c>
		return 0;
 800653c:	2300      	movs	r3, #0
 800653e:	e225      	b.n	800698c <uECC_verify+0x598>
	}

	/* r, s must be < n. */
	if (uECC_vli_cmp_unsafe(curve->n, r, num_n_words) != 1 ||
 8006540:	f8d7 3200 	ldr.w	r3, [r7, #512]	@ 0x200
 8006544:	3324      	adds	r3, #36	@ 0x24
 8006546:	f997 21ec 	ldrsb.w	r2, [r7, #492]	@ 0x1ec
 800654a:	f107 0130 	add.w	r1, r7, #48	@ 0x30
 800654e:	4618      	mov	r0, r3
 8006550:	f7fe fde4 	bl	800511c <uECC_vli_cmp_unsafe>
 8006554:	4603      	mov	r3, r0
 8006556:	2b01      	cmp	r3, #1
 8006558:	d10c      	bne.n	8006574 <uECC_verify+0x180>
	    uECC_vli_cmp_unsafe(curve->n, s, num_n_words) != 1) {
 800655a:	f8d7 3200 	ldr.w	r3, [r7, #512]	@ 0x200
 800655e:	3324      	adds	r3, #36	@ 0x24
 8006560:	f997 21ec 	ldrsb.w	r2, [r7, #492]	@ 0x1ec
 8006564:	f107 0110 	add.w	r1, r7, #16
 8006568:	4618      	mov	r0, r3
 800656a:	f7fe fdd7 	bl	800511c <uECC_vli_cmp_unsafe>
 800656e:	4603      	mov	r3, r0
	if (uECC_vli_cmp_unsafe(curve->n, r, num_n_words) != 1 ||
 8006570:	2b01      	cmp	r3, #1
 8006572:	d001      	beq.n	8006578 <uECC_verify+0x184>
		return 0;
 8006574:	2300      	movs	r3, #0
 8006576:	e209      	b.n	800698c <uECC_verify+0x598>
	}

	/* Calculate u1 and u2. */
	uECC_vli_modInv(z, s, curve->n, num_n_words); /* z = 1/s */
 8006578:	f8d7 3200 	ldr.w	r3, [r7, #512]	@ 0x200
 800657c:	f103 0224 	add.w	r2, r3, #36	@ 0x24
 8006580:	f997 31ec 	ldrsb.w	r3, [r7, #492]	@ 0x1ec
 8006584:	f107 0110 	add.w	r1, r7, #16
 8006588:	f507 70c0 	add.w	r0, r7, #384	@ 0x180
 800658c:	f7ff fa24 	bl	80059d8 <uECC_vli_modInv>
	u1[num_n_words - 1] = 0;
 8006590:	f997 31ec 	ldrsb.w	r3, [r7, #492]	@ 0x1ec
 8006594:	3b01      	subs	r3, #1
 8006596:	009b      	lsls	r3, r3, #2
 8006598:	f503 73f8 	add.w	r3, r3, #496	@ 0x1f0
 800659c:	443b      	add	r3, r7
 800659e:	2200      	movs	r2, #0
 80065a0:	f843 2c30 	str.w	r2, [r3, #-48]
	bits2int(u1, message_hash, hash_size, curve);
 80065a4:	f507 73f8 	add.w	r3, r7, #496	@ 0x1f0
 80065a8:	f5a3 72f6 	sub.w	r2, r3, #492	@ 0x1ec
 80065ac:	f507 73f8 	add.w	r3, r7, #496	@ 0x1f0
 80065b0:	f5a3 71f4 	sub.w	r1, r3, #488	@ 0x1e8
 80065b4:	f507 70e0 	add.w	r0, r7, #448	@ 0x1c0
 80065b8:	f8d7 3200 	ldr.w	r3, [r7, #512]	@ 0x200
 80065bc:	6812      	ldr	r2, [r2, #0]
 80065be:	6809      	ldr	r1, [r1, #0]
 80065c0:	f7ff fe91 	bl	80062e6 <bits2int>
	uECC_vli_modMult(u1, u1, z, curve->n, num_n_words); /* u1 = e/s */
 80065c4:	f8d7 3200 	ldr.w	r3, [r7, #512]	@ 0x200
 80065c8:	f103 0424 	add.w	r4, r3, #36	@ 0x24
 80065cc:	f507 72c0 	add.w	r2, r7, #384	@ 0x180
 80065d0:	f507 71e0 	add.w	r1, r7, #448	@ 0x1c0
 80065d4:	f507 70e0 	add.w	r0, r7, #448	@ 0x1c0
 80065d8:	f997 31ec 	ldrsb.w	r3, [r7, #492]	@ 0x1ec
 80065dc:	9300      	str	r3, [sp, #0]
 80065de:	4623      	mov	r3, r4
 80065e0:	f7ff f97b 	bl	80058da <uECC_vli_modMult>
	uECC_vli_modMult(u2, r, z, curve->n, num_n_words); /* u2 = r/s */
 80065e4:	f8d7 3200 	ldr.w	r3, [r7, #512]	@ 0x200
 80065e8:	f103 0424 	add.w	r4, r3, #36	@ 0x24
 80065ec:	f507 72c0 	add.w	r2, r7, #384	@ 0x180
 80065f0:	f107 0130 	add.w	r1, r7, #48	@ 0x30
 80065f4:	f507 70d0 	add.w	r0, r7, #416	@ 0x1a0
 80065f8:	f997 31ec 	ldrsb.w	r3, [r7, #492]	@ 0x1ec
 80065fc:	9300      	str	r3, [sp, #0]
 80065fe:	4623      	mov	r3, r4
 8006600:	f7ff f96b 	bl	80058da <uECC_vli_modMult>

	/* Calculate sum = G + Q. */
	uECC_vli_set(sum, _public, num_words);
 8006604:	f997 21ed 	ldrsb.w	r2, [r7, #493]	@ 0x1ed
 8006608:	f107 0150 	add.w	r1, r7, #80	@ 0x50
 800660c:	f507 73a0 	add.w	r3, r7, #320	@ 0x140
 8006610:	4618      	mov	r0, r3
 8006612:	f7fe fd5c 	bl	80050ce <uECC_vli_set>
	uECC_vli_set(sum + num_words, _public + num_words, num_words);
 8006616:	f997 31ed 	ldrsb.w	r3, [r7, #493]	@ 0x1ed
 800661a:	009b      	lsls	r3, r3, #2
 800661c:	f507 72a0 	add.w	r2, r7, #320	@ 0x140
 8006620:	18d0      	adds	r0, r2, r3
 8006622:	f997 31ed 	ldrsb.w	r3, [r7, #493]	@ 0x1ed
 8006626:	009b      	lsls	r3, r3, #2
 8006628:	f107 0250 	add.w	r2, r7, #80	@ 0x50
 800662c:	4413      	add	r3, r2
 800662e:	f997 21ed 	ldrsb.w	r2, [r7, #493]	@ 0x1ed
 8006632:	4619      	mov	r1, r3
 8006634:	f7fe fd4b 	bl	80050ce <uECC_vli_set>
	uECC_vli_set(tx, curve->G, num_words);
 8006638:	f8d7 3200 	ldr.w	r3, [r7, #512]	@ 0x200
 800663c:	f103 0144 	add.w	r1, r3, #68	@ 0x44
 8006640:	f997 21ed 	ldrsb.w	r2, [r7, #493]	@ 0x1ed
 8006644:	f107 03e0 	add.w	r3, r7, #224	@ 0xe0
 8006648:	4618      	mov	r0, r3
 800664a:	f7fe fd40 	bl	80050ce <uECC_vli_set>
	uECC_vli_set(ty, curve->G + num_words, num_words);
 800664e:	f8d7 3200 	ldr.w	r3, [r7, #512]	@ 0x200
 8006652:	f103 0244 	add.w	r2, r3, #68	@ 0x44
 8006656:	f997 31ed 	ldrsb.w	r3, [r7, #493]	@ 0x1ed
 800665a:	009b      	lsls	r3, r3, #2
 800665c:	18d1      	adds	r1, r2, r3
 800665e:	f997 21ed 	ldrsb.w	r2, [r7, #493]	@ 0x1ed
 8006662:	f107 03c0 	add.w	r3, r7, #192	@ 0xc0
 8006666:	4618      	mov	r0, r3
 8006668:	f7fe fd31 	bl	80050ce <uECC_vli_set>
	uECC_vli_modSub(z, sum, tx, curve->p, num_words); /* z = x2 - x1 */
 800666c:	f8d7 3200 	ldr.w	r3, [r7, #512]	@ 0x200
 8006670:	1d1c      	adds	r4, r3, #4
 8006672:	f107 02e0 	add.w	r2, r7, #224	@ 0xe0
 8006676:	f507 71a0 	add.w	r1, r7, #320	@ 0x140
 800667a:	f507 70c0 	add.w	r0, r7, #384	@ 0x180
 800667e:	f997 31ed 	ldrsb.w	r3, [r7, #493]	@ 0x1ed
 8006682:	9300      	str	r3, [sp, #0]
 8006684:	4623      	mov	r3, r4
 8006686:	f7fe ffcf 	bl	8005628 <uECC_vli_modSub>
	XYcZ_add(tx, ty, sum, sum + num_words, curve);
 800668a:	f997 31ed 	ldrsb.w	r3, [r7, #493]	@ 0x1ed
 800668e:	009b      	lsls	r3, r3, #2
 8006690:	f507 72a0 	add.w	r2, r7, #320	@ 0x140
 8006694:	18d4      	adds	r4, r2, r3
 8006696:	f507 72a0 	add.w	r2, r7, #320	@ 0x140
 800669a:	f107 01c0 	add.w	r1, r7, #192	@ 0xc0
 800669e:	f107 00e0 	add.w	r0, r7, #224	@ 0xe0
 80066a2:	f8d7 3200 	ldr.w	r3, [r7, #512]	@ 0x200
 80066a6:	9300      	str	r3, [sp, #0]
 80066a8:	4623      	mov	r3, r4
 80066aa:	f7ff fd49 	bl	8006140 <XYcZ_add>
	uECC_vli_modInv(z, z, curve->p, num_words); /* z = 1/z */
 80066ae:	f8d7 3200 	ldr.w	r3, [r7, #512]	@ 0x200
 80066b2:	1d1a      	adds	r2, r3, #4
 80066b4:	f997 31ed 	ldrsb.w	r3, [r7, #493]	@ 0x1ed
 80066b8:	f507 71c0 	add.w	r1, r7, #384	@ 0x180
 80066bc:	f507 70c0 	add.w	r0, r7, #384	@ 0x180
 80066c0:	f7ff f98a 	bl	80059d8 <uECC_vli_modInv>
	apply_z(sum, sum + num_words, z, curve);
 80066c4:	f997 31ed 	ldrsb.w	r3, [r7, #493]	@ 0x1ed
 80066c8:	009b      	lsls	r3, r3, #2
 80066ca:	f507 72a0 	add.w	r2, r7, #320	@ 0x140
 80066ce:	18d1      	adds	r1, r2, r3
 80066d0:	f507 72c0 	add.w	r2, r7, #384	@ 0x180
 80066d4:	f507 70a0 	add.w	r0, r7, #320	@ 0x140
 80066d8:	f8d7 3200 	ldr.w	r3, [r7, #512]	@ 0x200
 80066dc:	f7ff fd08 	bl	80060f0 <apply_z>

	/* Use Shamir's trick to calculate u1*G + u2*Q */
	points[0] = 0;
 80066e0:	f507 73f8 	add.w	r3, r7, #496	@ 0x1f0
 80066e4:	f5a3 73b0 	sub.w	r3, r3, #352	@ 0x160
 80066e8:	2200      	movs	r2, #0
 80066ea:	601a      	str	r2, [r3, #0]
	points[1] = curve->G;
 80066ec:	f8d7 3200 	ldr.w	r3, [r7, #512]	@ 0x200
 80066f0:	f103 0244 	add.w	r2, r3, #68	@ 0x44
 80066f4:	f507 73f8 	add.w	r3, r7, #496	@ 0x1f0
 80066f8:	f5a3 73b0 	sub.w	r3, r3, #352	@ 0x160
 80066fc:	605a      	str	r2, [r3, #4]
	points[2] = _public;
 80066fe:	f507 73f8 	add.w	r3, r7, #496	@ 0x1f0
 8006702:	f5a3 73b0 	sub.w	r3, r3, #352	@ 0x160
 8006706:	f107 0250 	add.w	r2, r7, #80	@ 0x50
 800670a:	609a      	str	r2, [r3, #8]
	points[3] = sum;
 800670c:	f507 73f8 	add.w	r3, r7, #496	@ 0x1f0
 8006710:	f5a3 73b0 	sub.w	r3, r3, #352	@ 0x160
 8006714:	f507 72a0 	add.w	r2, r7, #320	@ 0x140
 8006718:	60da      	str	r2, [r3, #12]
	num_bits = smax(uECC_vli_numBits(u1, num_n_words),
 800671a:	f997 21ec 	ldrsb.w	r2, [r7, #492]	@ 0x1ec
 800671e:	f507 73e0 	add.w	r3, r7, #448	@ 0x1c0
 8006722:	4611      	mov	r1, r2
 8006724:	4618      	mov	r0, r3
 8006726:	f7fe fc98 	bl	800505a <uECC_vli_numBits>
 800672a:	4603      	mov	r3, r0
 800672c:	461c      	mov	r4, r3
 800672e:	f997 21ec 	ldrsb.w	r2, [r7, #492]	@ 0x1ec
 8006732:	f507 73d0 	add.w	r3, r7, #416	@ 0x1a0
 8006736:	4611      	mov	r1, r2
 8006738:	4618      	mov	r0, r3
 800673a:	f7fe fc8e 	bl	800505a <uECC_vli_numBits>
 800673e:	4603      	mov	r3, r0
 8006740:	4619      	mov	r1, r3
 8006742:	4620      	mov	r0, r4
 8006744:	f7ff fe40 	bl	80063c8 <smax>
 8006748:	4603      	mov	r3, r0
 800674a:	f8a7 31ea 	strh.w	r3, [r7, #490]	@ 0x1ea
	uECC_vli_numBits(u2, num_n_words));

	point = points[(!!uECC_vli_testBit(u1, num_bits - 1)) |
 800674e:	f8b7 31ea 	ldrh.w	r3, [r7, #490]	@ 0x1ea
 8006752:	3b01      	subs	r3, #1
 8006754:	b29b      	uxth	r3, r3
 8006756:	b21a      	sxth	r2, r3
 8006758:	f507 73e0 	add.w	r3, r7, #448	@ 0x1c0
 800675c:	4611      	mov	r1, r2
 800675e:	4618      	mov	r0, r3
 8006760:	f7fe fc3b 	bl	8004fda <uECC_vli_testBit>
 8006764:	4603      	mov	r3, r0
 8006766:	2b00      	cmp	r3, #0
 8006768:	bf14      	ite	ne
 800676a:	2301      	movne	r3, #1
 800676c:	2300      	moveq	r3, #0
 800676e:	b2db      	uxtb	r3, r3
 8006770:	461c      	mov	r4, r3
                       ((!!uECC_vli_testBit(u2, num_bits - 1)) << 1)];
 8006772:	f8b7 31ea 	ldrh.w	r3, [r7, #490]	@ 0x1ea
 8006776:	3b01      	subs	r3, #1
 8006778:	b29b      	uxth	r3, r3
 800677a:	b21a      	sxth	r2, r3
 800677c:	f507 73d0 	add.w	r3, r7, #416	@ 0x1a0
 8006780:	4611      	mov	r1, r2
 8006782:	4618      	mov	r0, r3
 8006784:	f7fe fc29 	bl	8004fda <uECC_vli_testBit>
 8006788:	4603      	mov	r3, r0
 800678a:	2b00      	cmp	r3, #0
 800678c:	d001      	beq.n	8006792 <uECC_verify+0x39e>
 800678e:	2302      	movs	r3, #2
 8006790:	e000      	b.n	8006794 <uECC_verify+0x3a0>
 8006792:	2300      	movs	r3, #0
	point = points[(!!uECC_vli_testBit(u1, num_bits - 1)) |
 8006794:	ea43 0204 	orr.w	r2, r3, r4
 8006798:	f507 73f8 	add.w	r3, r7, #496	@ 0x1f0
 800679c:	f5a3 73b0 	sub.w	r3, r3, #352	@ 0x160
 80067a0:	f853 3022 	ldr.w	r3, [r3, r2, lsl #2]
 80067a4:	f8c7 31e4 	str.w	r3, [r7, #484]	@ 0x1e4
	uECC_vli_set(rx, point, num_words);
 80067a8:	f997 21ed 	ldrsb.w	r2, [r7, #493]	@ 0x1ed
 80067ac:	f507 7390 	add.w	r3, r7, #288	@ 0x120
 80067b0:	f8d7 11e4 	ldr.w	r1, [r7, #484]	@ 0x1e4
 80067b4:	4618      	mov	r0, r3
 80067b6:	f7fe fc8a 	bl	80050ce <uECC_vli_set>
	uECC_vli_set(ry, point + num_words, num_words);
 80067ba:	f997 31ed 	ldrsb.w	r3, [r7, #493]	@ 0x1ed
 80067be:	009b      	lsls	r3, r3, #2
 80067c0:	f8d7 21e4 	ldr.w	r2, [r7, #484]	@ 0x1e4
 80067c4:	18d1      	adds	r1, r2, r3
 80067c6:	f997 21ed 	ldrsb.w	r2, [r7, #493]	@ 0x1ed
 80067ca:	f507 7380 	add.w	r3, r7, #256	@ 0x100
 80067ce:	4618      	mov	r0, r3
 80067d0:	f7fe fc7d 	bl	80050ce <uECC_vli_set>
	uECC_vli_clear(z, num_words);
 80067d4:	f997 21ed 	ldrsb.w	r2, [r7, #493]	@ 0x1ed
 80067d8:	f507 73c0 	add.w	r3, r7, #384	@ 0x180
 80067dc:	4611      	mov	r1, r2
 80067de:	4618      	mov	r0, r3
 80067e0:	f7fe fbb0 	bl	8004f44 <uECC_vli_clear>
	z[0] = 1;
 80067e4:	2301      	movs	r3, #1
 80067e6:	f8c7 3180 	str.w	r3, [r7, #384]	@ 0x180

	for (i = num_bits - 2; i >= 0; --i) {
 80067ea:	f8b7 31ea 	ldrh.w	r3, [r7, #490]	@ 0x1ea
 80067ee:	3b02      	subs	r3, #2
 80067f0:	b29b      	uxth	r3, r3
 80067f2:	f8a7 31ee 	strh.w	r3, [r7, #494]	@ 0x1ee
 80067f6:	e087      	b.n	8006908 <uECC_verify+0x514>
		uECC_word_t index;
		curve->double_jacobian(rx, ry, z, curve);
 80067f8:	f8d7 3200 	ldr.w	r3, [r7, #512]	@ 0x200
 80067fc:	f8d3 40a4 	ldr.w	r4, [r3, #164]	@ 0xa4
 8006800:	f507 72c0 	add.w	r2, r7, #384	@ 0x180
 8006804:	f507 7180 	add.w	r1, r7, #256	@ 0x100
 8006808:	f507 7090 	add.w	r0, r7, #288	@ 0x120
 800680c:	f8d7 3200 	ldr.w	r3, [r7, #512]	@ 0x200
 8006810:	47a0      	blx	r4

		index = (!!uECC_vli_testBit(u1, i)) | ((!!uECC_vli_testBit(u2, i)) << 1);
 8006812:	f9b7 21ee 	ldrsh.w	r2, [r7, #494]	@ 0x1ee
 8006816:	f507 73e0 	add.w	r3, r7, #448	@ 0x1c0
 800681a:	4611      	mov	r1, r2
 800681c:	4618      	mov	r0, r3
 800681e:	f7fe fbdc 	bl	8004fda <uECC_vli_testBit>
 8006822:	4603      	mov	r3, r0
 8006824:	2b00      	cmp	r3, #0
 8006826:	bf14      	ite	ne
 8006828:	2301      	movne	r3, #1
 800682a:	2300      	moveq	r3, #0
 800682c:	b2db      	uxtb	r3, r3
 800682e:	461c      	mov	r4, r3
 8006830:	f9b7 21ee 	ldrsh.w	r2, [r7, #494]	@ 0x1ee
 8006834:	f507 73d0 	add.w	r3, r7, #416	@ 0x1a0
 8006838:	4611      	mov	r1, r2
 800683a:	4618      	mov	r0, r3
 800683c:	f7fe fbcd 	bl	8004fda <uECC_vli_testBit>
 8006840:	4603      	mov	r3, r0
 8006842:	2b00      	cmp	r3, #0
 8006844:	d001      	beq.n	800684a <uECC_verify+0x456>
 8006846:	2302      	movs	r3, #2
 8006848:	e000      	b.n	800684c <uECC_verify+0x458>
 800684a:	2300      	movs	r3, #0
 800684c:	4323      	orrs	r3, r4
 800684e:	f8c7 31e0 	str.w	r3, [r7, #480]	@ 0x1e0
		point = points[index];
 8006852:	f507 73f8 	add.w	r3, r7, #496	@ 0x1f0
 8006856:	f5a3 73b0 	sub.w	r3, r3, #352	@ 0x160
 800685a:	f8d7 21e0 	ldr.w	r2, [r7, #480]	@ 0x1e0
 800685e:	f853 3022 	ldr.w	r3, [r3, r2, lsl #2]
 8006862:	f8c7 31e4 	str.w	r3, [r7, #484]	@ 0x1e4
		if (point) {
 8006866:	f8d7 31e4 	ldr.w	r3, [r7, #484]	@ 0x1e4
 800686a:	2b00      	cmp	r3, #0
 800686c:	d046      	beq.n	80068fc <uECC_verify+0x508>
			uECC_vli_set(tx, point, num_words);
 800686e:	f997 21ed 	ldrsb.w	r2, [r7, #493]	@ 0x1ed
 8006872:	f107 03e0 	add.w	r3, r7, #224	@ 0xe0
 8006876:	f8d7 11e4 	ldr.w	r1, [r7, #484]	@ 0x1e4
 800687a:	4618      	mov	r0, r3
 800687c:	f7fe fc27 	bl	80050ce <uECC_vli_set>
			uECC_vli_set(ty, point + num_words, num_words);
 8006880:	f997 31ed 	ldrsb.w	r3, [r7, #493]	@ 0x1ed
 8006884:	009b      	lsls	r3, r3, #2
 8006886:	f8d7 21e4 	ldr.w	r2, [r7, #484]	@ 0x1e4
 800688a:	18d1      	adds	r1, r2, r3
 800688c:	f997 21ed 	ldrsb.w	r2, [r7, #493]	@ 0x1ed
 8006890:	f107 03c0 	add.w	r3, r7, #192	@ 0xc0
 8006894:	4618      	mov	r0, r3
 8006896:	f7fe fc1a 	bl	80050ce <uECC_vli_set>
			apply_z(tx, ty, z, curve);
 800689a:	f507 72c0 	add.w	r2, r7, #384	@ 0x180
 800689e:	f107 01c0 	add.w	r1, r7, #192	@ 0xc0
 80068a2:	f107 00e0 	add.w	r0, r7, #224	@ 0xe0
 80068a6:	f8d7 3200 	ldr.w	r3, [r7, #512]	@ 0x200
 80068aa:	f7ff fc21 	bl	80060f0 <apply_z>
			uECC_vli_modSub(tz, rx, tx, curve->p, num_words); /* Z = x2 - x1 */
 80068ae:	f8d7 3200 	ldr.w	r3, [r7, #512]	@ 0x200
 80068b2:	1d1c      	adds	r4, r3, #4
 80068b4:	f107 02e0 	add.w	r2, r7, #224	@ 0xe0
 80068b8:	f507 7190 	add.w	r1, r7, #288	@ 0x120
 80068bc:	f107 00a0 	add.w	r0, r7, #160	@ 0xa0
 80068c0:	f997 31ed 	ldrsb.w	r3, [r7, #493]	@ 0x1ed
 80068c4:	9300      	str	r3, [sp, #0]
 80068c6:	4623      	mov	r3, r4
 80068c8:	f7fe feae 	bl	8005628 <uECC_vli_modSub>
			XYcZ_add(tx, ty, rx, ry, curve);
 80068cc:	f507 7480 	add.w	r4, r7, #256	@ 0x100
 80068d0:	f507 7290 	add.w	r2, r7, #288	@ 0x120
 80068d4:	f107 01c0 	add.w	r1, r7, #192	@ 0xc0
 80068d8:	f107 00e0 	add.w	r0, r7, #224	@ 0xe0
 80068dc:	f8d7 3200 	ldr.w	r3, [r7, #512]	@ 0x200
 80068e0:	9300      	str	r3, [sp, #0]
 80068e2:	4623      	mov	r3, r4
 80068e4:	f7ff fc2c 	bl	8006140 <XYcZ_add>
			uECC_vli_modMult_fast(z, z, tz, curve);
 80068e8:	f107 02a0 	add.w	r2, r7, #160	@ 0xa0
 80068ec:	f507 71c0 	add.w	r1, r7, #384	@ 0x180
 80068f0:	f507 70c0 	add.w	r0, r7, #384	@ 0x180
 80068f4:	f8d7 3200 	ldr.w	r3, [r7, #512]	@ 0x200
 80068f8:	f7ff f80a 	bl	8005910 <uECC_vli_modMult_fast>
	for (i = num_bits - 2; i >= 0; --i) {
 80068fc:	f8b7 31ee 	ldrh.w	r3, [r7, #494]	@ 0x1ee
 8006900:	3b01      	subs	r3, #1
 8006902:	b29b      	uxth	r3, r3
 8006904:	f8a7 31ee 	strh.w	r3, [r7, #494]	@ 0x1ee
 8006908:	f9b7 31ee 	ldrsh.w	r3, [r7, #494]	@ 0x1ee
 800690c:	2b00      	cmp	r3, #0
 800690e:	f6bf af73 	bge.w	80067f8 <uECC_verify+0x404>
		}
  	}

	uECC_vli_modInv(z, z, curve->p, num_words); /* Z = 1/Z */
 8006912:	f8d7 3200 	ldr.w	r3, [r7, #512]	@ 0x200
 8006916:	1d1a      	adds	r2, r3, #4
 8006918:	f997 31ed 	ldrsb.w	r3, [r7, #493]	@ 0x1ed
 800691c:	f507 71c0 	add.w	r1, r7, #384	@ 0x180
 8006920:	f507 70c0 	add.w	r0, r7, #384	@ 0x180
 8006924:	f7ff f858 	bl	80059d8 <uECC_vli_modInv>
	apply_z(rx, ry, z, curve);
 8006928:	f507 72c0 	add.w	r2, r7, #384	@ 0x180
 800692c:	f507 7180 	add.w	r1, r7, #256	@ 0x100
 8006930:	f507 7090 	add.w	r0, r7, #288	@ 0x120
 8006934:	f8d7 3200 	ldr.w	r3, [r7, #512]	@ 0x200
 8006938:	f7ff fbda 	bl	80060f0 <apply_z>

	/* v = x1 (mod n) */
	if (uECC_vli_cmp_unsafe(curve->n, rx, num_n_words) != 1) {
 800693c:	f8d7 3200 	ldr.w	r3, [r7, #512]	@ 0x200
 8006940:	3324      	adds	r3, #36	@ 0x24
 8006942:	f997 21ec 	ldrsb.w	r2, [r7, #492]	@ 0x1ec
 8006946:	f507 7190 	add.w	r1, r7, #288	@ 0x120
 800694a:	4618      	mov	r0, r3
 800694c:	f7fe fbe6 	bl	800511c <uECC_vli_cmp_unsafe>
 8006950:	4603      	mov	r3, r0
 8006952:	2b01      	cmp	r3, #1
 8006954:	d00b      	beq.n	800696e <uECC_verify+0x57a>
		uECC_vli_sub(rx, rx, curve->n, num_n_words);
 8006956:	f8d7 3200 	ldr.w	r3, [r7, #512]	@ 0x200
 800695a:	f103 0224 	add.w	r2, r3, #36	@ 0x24
 800695e:	f997 31ec 	ldrsb.w	r3, [r7, #492]	@ 0x1ec
 8006962:	f507 7190 	add.w	r1, r7, #288	@ 0x120
 8006966:	f507 7090 	add.w	r0, r7, #288	@ 0x120
 800696a:	f7fe fc60 	bl	800522e <uECC_vli_sub>
	}

	/* Accept only if v == r. */
	return (int)(uECC_vli_equal(rx, r, num_words) == 0);
 800696e:	f997 21ed 	ldrsb.w	r2, [r7, #493]	@ 0x1ed
 8006972:	f107 0130 	add.w	r1, r7, #48	@ 0x30
 8006976:	f507 7390 	add.w	r3, r7, #288	@ 0x120
 800697a:	4618      	mov	r0, r3
 800697c:	f7fe fc0a 	bl	8005194 <uECC_vli_equal>
 8006980:	4603      	mov	r3, r0
 8006982:	2b00      	cmp	r3, #0
 8006984:	bf0c      	ite	eq
 8006986:	2301      	moveq	r3, #1
 8006988:	2300      	movne	r3, #0
 800698a:	b2db      	uxtb	r3, r3
}
 800698c:	4618      	mov	r0, r3
 800698e:	f507 77fa 	add.w	r7, r7, #500	@ 0x1f4
 8006992:	46bd      	mov	sp, r7
 8006994:	bd90      	pop	{r4, r7, pc}
	...

08006998 <tc_sha256_init>:
#include "utils.h"

static void compress(unsigned int *iv, const uint8_t *data);

int tc_sha256_init(TCSha256State_t s)
{
 8006998:	b580      	push	{r7, lr}
 800699a:	b082      	sub	sp, #8
 800699c:	af00      	add	r7, sp, #0
 800699e:	6078      	str	r0, [r7, #4]
	/* input sanity check: */
	if (s == (TCSha256State_t) 0) {
 80069a0:	687b      	ldr	r3, [r7, #4]
 80069a2:	2b00      	cmp	r3, #0
 80069a4:	d101      	bne.n	80069aa <tc_sha256_init+0x12>
		return TC_CRYPTO_FAIL;
 80069a6:	2300      	movs	r3, #0
 80069a8:	e01d      	b.n	80069e6 <tc_sha256_init+0x4e>
	 * Setting the initial state values.
	 * These values correspond to the first 32 bits of the fractional parts
	 * of the square roots of the first 8 primes: 2, 3, 5, 7, 11, 13, 17
	 * and 19.
	 */
	_set((uint8_t *) s, 0x00, sizeof(*s));
 80069aa:	2270      	movs	r2, #112	@ 0x70
 80069ac:	2100      	movs	r1, #0
 80069ae:	6878      	ldr	r0, [r7, #4]
 80069b0:	f000 fb49 	bl	8007046 <_set>
	s->iv[0] = 0x6a09e667;
 80069b4:	687b      	ldr	r3, [r7, #4]
 80069b6:	4a0e      	ldr	r2, [pc, #56]	@ (80069f0 <tc_sha256_init+0x58>)
 80069b8:	601a      	str	r2, [r3, #0]
	s->iv[1] = 0xbb67ae85;
 80069ba:	687b      	ldr	r3, [r7, #4]
 80069bc:	4a0d      	ldr	r2, [pc, #52]	@ (80069f4 <tc_sha256_init+0x5c>)
 80069be:	605a      	str	r2, [r3, #4]
	s->iv[2] = 0x3c6ef372;
 80069c0:	687b      	ldr	r3, [r7, #4]
 80069c2:	4a0d      	ldr	r2, [pc, #52]	@ (80069f8 <tc_sha256_init+0x60>)
 80069c4:	609a      	str	r2, [r3, #8]
	s->iv[3] = 0xa54ff53a;
 80069c6:	687b      	ldr	r3, [r7, #4]
 80069c8:	4a0c      	ldr	r2, [pc, #48]	@ (80069fc <tc_sha256_init+0x64>)
 80069ca:	60da      	str	r2, [r3, #12]
	s->iv[4] = 0x510e527f;
 80069cc:	687b      	ldr	r3, [r7, #4]
 80069ce:	4a0c      	ldr	r2, [pc, #48]	@ (8006a00 <tc_sha256_init+0x68>)
 80069d0:	611a      	str	r2, [r3, #16]
	s->iv[5] = 0x9b05688c;
 80069d2:	687b      	ldr	r3, [r7, #4]
 80069d4:	4a0b      	ldr	r2, [pc, #44]	@ (8006a04 <tc_sha256_init+0x6c>)
 80069d6:	615a      	str	r2, [r3, #20]
	s->iv[6] = 0x1f83d9ab;
 80069d8:	687b      	ldr	r3, [r7, #4]
 80069da:	4a0b      	ldr	r2, [pc, #44]	@ (8006a08 <tc_sha256_init+0x70>)
 80069dc:	619a      	str	r2, [r3, #24]
	s->iv[7] = 0x5be0cd19;
 80069de:	687b      	ldr	r3, [r7, #4]
 80069e0:	4a0a      	ldr	r2, [pc, #40]	@ (8006a0c <tc_sha256_init+0x74>)
 80069e2:	61da      	str	r2, [r3, #28]

	return TC_CRYPTO_SUCCESS;
 80069e4:	2301      	movs	r3, #1
}
 80069e6:	4618      	mov	r0, r3
 80069e8:	3708      	adds	r7, #8
 80069ea:	46bd      	mov	sp, r7
 80069ec:	bd80      	pop	{r7, pc}
 80069ee:	bf00      	nop
 80069f0:	6a09e667 	.word	0x6a09e667
 80069f4:	bb67ae85 	.word	0xbb67ae85
 80069f8:	3c6ef372 	.word	0x3c6ef372
 80069fc:	a54ff53a 	.word	0xa54ff53a
 8006a00:	510e527f 	.word	0x510e527f
 8006a04:	9b05688c 	.word	0x9b05688c
 8006a08:	1f83d9ab 	.word	0x1f83d9ab
 8006a0c:	5be0cd19 	.word	0x5be0cd19

08006a10 <tc_sha256_update>:

int tc_sha256_update(TCSha256State_t s, const uint8_t *data, size_t datalen)
{
 8006a10:	b5b0      	push	{r4, r5, r7, lr}
 8006a12:	b084      	sub	sp, #16
 8006a14:	af00      	add	r7, sp, #0
 8006a16:	60f8      	str	r0, [r7, #12]
 8006a18:	60b9      	str	r1, [r7, #8]
 8006a1a:	607a      	str	r2, [r7, #4]
	/* input sanity check: */
	if (s == (TCSha256State_t) 0 ||
 8006a1c:	68fb      	ldr	r3, [r7, #12]
 8006a1e:	2b00      	cmp	r3, #0
 8006a20:	d002      	beq.n	8006a28 <tc_sha256_update+0x18>
 8006a22:	68bb      	ldr	r3, [r7, #8]
 8006a24:	2b00      	cmp	r3, #0
 8006a26:	d101      	bne.n	8006a2c <tc_sha256_update+0x1c>
	    data == (void *) 0) {
		return TC_CRYPTO_FAIL;
 8006a28:	2300      	movs	r3, #0
 8006a2a:	e030      	b.n	8006a8e <tc_sha256_update+0x7e>
	} else if (datalen == 0) {
 8006a2c:	687b      	ldr	r3, [r7, #4]
 8006a2e:	2b00      	cmp	r3, #0
 8006a30:	d127      	bne.n	8006a82 <tc_sha256_update+0x72>
		return TC_CRYPTO_SUCCESS;
 8006a32:	2301      	movs	r3, #1
 8006a34:	e02b      	b.n	8006a8e <tc_sha256_update+0x7e>
	}

	while (datalen-- > 0) {
		s->leftover[s->leftover_offset++] = *(data++);
 8006a36:	68ba      	ldr	r2, [r7, #8]
 8006a38:	1c53      	adds	r3, r2, #1
 8006a3a:	60bb      	str	r3, [r7, #8]
 8006a3c:	68fb      	ldr	r3, [r7, #12]
 8006a3e:	6e9b      	ldr	r3, [r3, #104]	@ 0x68
 8006a40:	1c58      	adds	r0, r3, #1
 8006a42:	68f9      	ldr	r1, [r7, #12]
 8006a44:	6688      	str	r0, [r1, #104]	@ 0x68
 8006a46:	7811      	ldrb	r1, [r2, #0]
 8006a48:	68fa      	ldr	r2, [r7, #12]
 8006a4a:	4413      	add	r3, r2
 8006a4c:	460a      	mov	r2, r1
 8006a4e:	f883 2028 	strb.w	r2, [r3, #40]	@ 0x28
		if (s->leftover_offset >= TC_SHA256_BLOCK_SIZE) {
 8006a52:	68fb      	ldr	r3, [r7, #12]
 8006a54:	6e9b      	ldr	r3, [r3, #104]	@ 0x68
 8006a56:	2b3f      	cmp	r3, #63	@ 0x3f
 8006a58:	d913      	bls.n	8006a82 <tc_sha256_update+0x72>
			compress(s->iv, s->leftover);
 8006a5a:	68fa      	ldr	r2, [r7, #12]
 8006a5c:	68fb      	ldr	r3, [r7, #12]
 8006a5e:	3328      	adds	r3, #40	@ 0x28
 8006a60:	4619      	mov	r1, r3
 8006a62:	4610      	mov	r0, r2
 8006a64:	f000 f94e 	bl	8006d04 <compress>
			s->leftover_offset = 0;
 8006a68:	68fb      	ldr	r3, [r7, #12]
 8006a6a:	2200      	movs	r2, #0
 8006a6c:	669a      	str	r2, [r3, #104]	@ 0x68
			s->bits_hashed += (TC_SHA256_BLOCK_SIZE << 3);
 8006a6e:	68fb      	ldr	r3, [r7, #12]
 8006a70:	e9d3 2308 	ldrd	r2, r3, [r3, #32]
 8006a74:	f512 7400 	adds.w	r4, r2, #512	@ 0x200
 8006a78:	f143 0500 	adc.w	r5, r3, #0
 8006a7c:	68fb      	ldr	r3, [r7, #12]
 8006a7e:	e9c3 4508 	strd	r4, r5, [r3, #32]
	while (datalen-- > 0) {
 8006a82:	687b      	ldr	r3, [r7, #4]
 8006a84:	1e5a      	subs	r2, r3, #1
 8006a86:	607a      	str	r2, [r7, #4]
 8006a88:	2b00      	cmp	r3, #0
 8006a8a:	d1d4      	bne.n	8006a36 <tc_sha256_update+0x26>
		}
	}

	return TC_CRYPTO_SUCCESS;
 8006a8c:	2301      	movs	r3, #1
}
 8006a8e:	4618      	mov	r0, r3
 8006a90:	3710      	adds	r7, #16
 8006a92:	46bd      	mov	sp, r7
 8006a94:	bdb0      	pop	{r4, r5, r7, pc}

08006a96 <tc_sha256_final>:

int tc_sha256_final(uint8_t *digest, TCSha256State_t s)
{
 8006a96:	e92d 43b0 	stmdb	sp!, {r4, r5, r7, r8, r9, lr}
 8006a9a:	b084      	sub	sp, #16
 8006a9c:	af00      	add	r7, sp, #0
 8006a9e:	6078      	str	r0, [r7, #4]
 8006aa0:	6039      	str	r1, [r7, #0]
	unsigned int i;

	/* input sanity check: */
	if (digest == (uint8_t *) 0 ||
 8006aa2:	687b      	ldr	r3, [r7, #4]
 8006aa4:	2b00      	cmp	r3, #0
 8006aa6:	d002      	beq.n	8006aae <tc_sha256_final+0x18>
 8006aa8:	683b      	ldr	r3, [r7, #0]
 8006aaa:	2b00      	cmp	r3, #0
 8006aac:	d101      	bne.n	8006ab2 <tc_sha256_final+0x1c>
	    s == (TCSha256State_t) 0) {
		return TC_CRYPTO_FAIL;
 8006aae:	2300      	movs	r3, #0
 8006ab0:	e0e1      	b.n	8006c76 <tc_sha256_final+0x1e0>
	}

	s->bits_hashed += (s->leftover_offset << 3);
 8006ab2:	683b      	ldr	r3, [r7, #0]
 8006ab4:	e9d3 2308 	ldrd	r2, r3, [r3, #32]
 8006ab8:	6839      	ldr	r1, [r7, #0]
 8006aba:	6e89      	ldr	r1, [r1, #104]	@ 0x68
 8006abc:	00c9      	lsls	r1, r1, #3
 8006abe:	2000      	movs	r0, #0
 8006ac0:	460c      	mov	r4, r1
 8006ac2:	4605      	mov	r5, r0
 8006ac4:	eb12 0804 	adds.w	r8, r2, r4
 8006ac8:	eb43 0905 	adc.w	r9, r3, r5
 8006acc:	683b      	ldr	r3, [r7, #0]
 8006ace:	e9c3 8908 	strd	r8, r9, [r3, #32]

	s->leftover[s->leftover_offset++] = 0x80; /* always room for one byte */
 8006ad2:	683b      	ldr	r3, [r7, #0]
 8006ad4:	6e9b      	ldr	r3, [r3, #104]	@ 0x68
 8006ad6:	1c59      	adds	r1, r3, #1
 8006ad8:	683a      	ldr	r2, [r7, #0]
 8006ada:	6691      	str	r1, [r2, #104]	@ 0x68
 8006adc:	683a      	ldr	r2, [r7, #0]
 8006ade:	4413      	add	r3, r2
 8006ae0:	2280      	movs	r2, #128	@ 0x80
 8006ae2:	f883 2028 	strb.w	r2, [r3, #40]	@ 0x28
	if (s->leftover_offset > (sizeof(s->leftover) - 8)) {
 8006ae6:	683b      	ldr	r3, [r7, #0]
 8006ae8:	6e9b      	ldr	r3, [r3, #104]	@ 0x68
 8006aea:	2b38      	cmp	r3, #56	@ 0x38
 8006aec:	d917      	bls.n	8006b1e <tc_sha256_final+0x88>
		/* there is not room for all the padding in this block */
		_set(s->leftover + s->leftover_offset, 0x00,
 8006aee:	683b      	ldr	r3, [r7, #0]
 8006af0:	f103 0228 	add.w	r2, r3, #40	@ 0x28
 8006af4:	683b      	ldr	r3, [r7, #0]
 8006af6:	6e9b      	ldr	r3, [r3, #104]	@ 0x68
 8006af8:	18d0      	adds	r0, r2, r3
		     sizeof(s->leftover) - s->leftover_offset);
 8006afa:	683b      	ldr	r3, [r7, #0]
 8006afc:	6e9b      	ldr	r3, [r3, #104]	@ 0x68
		_set(s->leftover + s->leftover_offset, 0x00,
 8006afe:	f1c3 0340 	rsb	r3, r3, #64	@ 0x40
 8006b02:	461a      	mov	r2, r3
 8006b04:	2100      	movs	r1, #0
 8006b06:	f000 fa9e 	bl	8007046 <_set>
		compress(s->iv, s->leftover);
 8006b0a:	683a      	ldr	r2, [r7, #0]
 8006b0c:	683b      	ldr	r3, [r7, #0]
 8006b0e:	3328      	adds	r3, #40	@ 0x28
 8006b10:	4619      	mov	r1, r3
 8006b12:	4610      	mov	r0, r2
 8006b14:	f000 f8f6 	bl	8006d04 <compress>
		s->leftover_offset = 0;
 8006b18:	683b      	ldr	r3, [r7, #0]
 8006b1a:	2200      	movs	r2, #0
 8006b1c:	669a      	str	r2, [r3, #104]	@ 0x68
	}

	/* add the padding and the length in big-Endian format */
	_set(s->leftover + s->leftover_offset, 0x00,
 8006b1e:	683b      	ldr	r3, [r7, #0]
 8006b20:	f103 0228 	add.w	r2, r3, #40	@ 0x28
 8006b24:	683b      	ldr	r3, [r7, #0]
 8006b26:	6e9b      	ldr	r3, [r3, #104]	@ 0x68
 8006b28:	18d0      	adds	r0, r2, r3
	     sizeof(s->leftover) - 8 - s->leftover_offset);
 8006b2a:	683b      	ldr	r3, [r7, #0]
 8006b2c:	6e9b      	ldr	r3, [r3, #104]	@ 0x68
	_set(s->leftover + s->leftover_offset, 0x00,
 8006b2e:	f1c3 0338 	rsb	r3, r3, #56	@ 0x38
 8006b32:	461a      	mov	r2, r3
 8006b34:	2100      	movs	r1, #0
 8006b36:	f000 fa86 	bl	8007046 <_set>
	s->leftover[sizeof(s->leftover) - 1] = (uint8_t)(s->bits_hashed);
 8006b3a:	683b      	ldr	r3, [r7, #0]
 8006b3c:	e9d3 2308 	ldrd	r2, r3, [r3, #32]
 8006b40:	b2d2      	uxtb	r2, r2
 8006b42:	683b      	ldr	r3, [r7, #0]
 8006b44:	f883 2067 	strb.w	r2, [r3, #103]	@ 0x67
	s->leftover[sizeof(s->leftover) - 2] = (uint8_t)(s->bits_hashed >> 8);
 8006b48:	683b      	ldr	r3, [r7, #0]
 8006b4a:	e9d3 0108 	ldrd	r0, r1, [r3, #32]
 8006b4e:	f04f 0200 	mov.w	r2, #0
 8006b52:	f04f 0300 	mov.w	r3, #0
 8006b56:	0a02      	lsrs	r2, r0, #8
 8006b58:	ea42 6201 	orr.w	r2, r2, r1, lsl #24
 8006b5c:	0a0b      	lsrs	r3, r1, #8
 8006b5e:	b2d2      	uxtb	r2, r2
 8006b60:	683b      	ldr	r3, [r7, #0]
 8006b62:	f883 2066 	strb.w	r2, [r3, #102]	@ 0x66
	s->leftover[sizeof(s->leftover) - 3] = (uint8_t)(s->bits_hashed >> 16);
 8006b66:	683b      	ldr	r3, [r7, #0]
 8006b68:	e9d3 0108 	ldrd	r0, r1, [r3, #32]
 8006b6c:	f04f 0200 	mov.w	r2, #0
 8006b70:	f04f 0300 	mov.w	r3, #0
 8006b74:	0c02      	lsrs	r2, r0, #16
 8006b76:	ea42 4201 	orr.w	r2, r2, r1, lsl #16
 8006b7a:	0c0b      	lsrs	r3, r1, #16
 8006b7c:	b2d2      	uxtb	r2, r2
 8006b7e:	683b      	ldr	r3, [r7, #0]
 8006b80:	f883 2065 	strb.w	r2, [r3, #101]	@ 0x65
	s->leftover[sizeof(s->leftover) - 4] = (uint8_t)(s->bits_hashed >> 24);
 8006b84:	683b      	ldr	r3, [r7, #0]
 8006b86:	e9d3 0108 	ldrd	r0, r1, [r3, #32]
 8006b8a:	f04f 0200 	mov.w	r2, #0
 8006b8e:	f04f 0300 	mov.w	r3, #0
 8006b92:	0e02      	lsrs	r2, r0, #24
 8006b94:	ea42 2201 	orr.w	r2, r2, r1, lsl #8
 8006b98:	0e0b      	lsrs	r3, r1, #24
 8006b9a:	b2d2      	uxtb	r2, r2
 8006b9c:	683b      	ldr	r3, [r7, #0]
 8006b9e:	f883 2064 	strb.w	r2, [r3, #100]	@ 0x64
	s->leftover[sizeof(s->leftover) - 5] = (uint8_t)(s->bits_hashed >> 32);
 8006ba2:	683b      	ldr	r3, [r7, #0]
 8006ba4:	e9d3 0108 	ldrd	r0, r1, [r3, #32]
 8006ba8:	f04f 0200 	mov.w	r2, #0
 8006bac:	f04f 0300 	mov.w	r3, #0
 8006bb0:	000a      	movs	r2, r1
 8006bb2:	2300      	movs	r3, #0
 8006bb4:	b2d2      	uxtb	r2, r2
 8006bb6:	683b      	ldr	r3, [r7, #0]
 8006bb8:	f883 2063 	strb.w	r2, [r3, #99]	@ 0x63
	s->leftover[sizeof(s->leftover) - 6] = (uint8_t)(s->bits_hashed >> 40);
 8006bbc:	683b      	ldr	r3, [r7, #0]
 8006bbe:	e9d3 0108 	ldrd	r0, r1, [r3, #32]
 8006bc2:	f04f 0200 	mov.w	r2, #0
 8006bc6:	f04f 0300 	mov.w	r3, #0
 8006bca:	0a0a      	lsrs	r2, r1, #8
 8006bcc:	2300      	movs	r3, #0
 8006bce:	b2d2      	uxtb	r2, r2
 8006bd0:	683b      	ldr	r3, [r7, #0]
 8006bd2:	f883 2062 	strb.w	r2, [r3, #98]	@ 0x62
	s->leftover[sizeof(s->leftover) - 7] = (uint8_t)(s->bits_hashed >> 48);
 8006bd6:	683b      	ldr	r3, [r7, #0]
 8006bd8:	e9d3 0108 	ldrd	r0, r1, [r3, #32]
 8006bdc:	f04f 0200 	mov.w	r2, #0
 8006be0:	f04f 0300 	mov.w	r3, #0
 8006be4:	0c0a      	lsrs	r2, r1, #16
 8006be6:	2300      	movs	r3, #0
 8006be8:	b2d2      	uxtb	r2, r2
 8006bea:	683b      	ldr	r3, [r7, #0]
 8006bec:	f883 2061 	strb.w	r2, [r3, #97]	@ 0x61
	s->leftover[sizeof(s->leftover) - 8] = (uint8_t)(s->bits_hashed >> 56);
 8006bf0:	683b      	ldr	r3, [r7, #0]
 8006bf2:	e9d3 0108 	ldrd	r0, r1, [r3, #32]
 8006bf6:	f04f 0200 	mov.w	r2, #0
 8006bfa:	f04f 0300 	mov.w	r3, #0
 8006bfe:	0e0a      	lsrs	r2, r1, #24
 8006c00:	2300      	movs	r3, #0
 8006c02:	b2d2      	uxtb	r2, r2
 8006c04:	683b      	ldr	r3, [r7, #0]
 8006c06:	f883 2060 	strb.w	r2, [r3, #96]	@ 0x60

	/* hash the padding and length */
	compress(s->iv, s->leftover);
 8006c0a:	683a      	ldr	r2, [r7, #0]
 8006c0c:	683b      	ldr	r3, [r7, #0]
 8006c0e:	3328      	adds	r3, #40	@ 0x28
 8006c10:	4619      	mov	r1, r3
 8006c12:	4610      	mov	r0, r2
 8006c14:	f000 f876 	bl	8006d04 <compress>

	/* copy the iv out to digest */
	for (i = 0; i < TC_SHA256_STATE_BLOCKS; ++i) {
 8006c18:	2300      	movs	r3, #0
 8006c1a:	60fb      	str	r3, [r7, #12]
 8006c1c:	e022      	b.n	8006c64 <tc_sha256_final+0x1ce>
		unsigned int t = *((unsigned int *) &s->iv[i]);
 8006c1e:	683b      	ldr	r3, [r7, #0]
 8006c20:	68fa      	ldr	r2, [r7, #12]
 8006c22:	f853 3022 	ldr.w	r3, [r3, r2, lsl #2]
 8006c26:	60bb      	str	r3, [r7, #8]
		*digest++ = (uint8_t)(t >> 24);
 8006c28:	68bb      	ldr	r3, [r7, #8]
 8006c2a:	0e19      	lsrs	r1, r3, #24
 8006c2c:	687b      	ldr	r3, [r7, #4]
 8006c2e:	1c5a      	adds	r2, r3, #1
 8006c30:	607a      	str	r2, [r7, #4]
 8006c32:	b2ca      	uxtb	r2, r1
 8006c34:	701a      	strb	r2, [r3, #0]
		*digest++ = (uint8_t)(t >> 16);
 8006c36:	68bb      	ldr	r3, [r7, #8]
 8006c38:	0c19      	lsrs	r1, r3, #16
 8006c3a:	687b      	ldr	r3, [r7, #4]
 8006c3c:	1c5a      	adds	r2, r3, #1
 8006c3e:	607a      	str	r2, [r7, #4]
 8006c40:	b2ca      	uxtb	r2, r1
 8006c42:	701a      	strb	r2, [r3, #0]
		*digest++ = (uint8_t)(t >> 8);
 8006c44:	68bb      	ldr	r3, [r7, #8]
 8006c46:	0a19      	lsrs	r1, r3, #8
 8006c48:	687b      	ldr	r3, [r7, #4]
 8006c4a:	1c5a      	adds	r2, r3, #1
 8006c4c:	607a      	str	r2, [r7, #4]
 8006c4e:	b2ca      	uxtb	r2, r1
 8006c50:	701a      	strb	r2, [r3, #0]
		*digest++ = (uint8_t)(t);
 8006c52:	687b      	ldr	r3, [r7, #4]
 8006c54:	1c5a      	adds	r2, r3, #1
 8006c56:	607a      	str	r2, [r7, #4]
 8006c58:	68ba      	ldr	r2, [r7, #8]
 8006c5a:	b2d2      	uxtb	r2, r2
 8006c5c:	701a      	strb	r2, [r3, #0]
	for (i = 0; i < TC_SHA256_STATE_BLOCKS; ++i) {
 8006c5e:	68fb      	ldr	r3, [r7, #12]
 8006c60:	3301      	adds	r3, #1
 8006c62:	60fb      	str	r3, [r7, #12]
 8006c64:	68fb      	ldr	r3, [r7, #12]
 8006c66:	2b07      	cmp	r3, #7
 8006c68:	d9d9      	bls.n	8006c1e <tc_sha256_final+0x188>
	}

	/* destroy the current state */
	_set(s, 0, sizeof(*s));
 8006c6a:	2270      	movs	r2, #112	@ 0x70
 8006c6c:	2100      	movs	r1, #0
 8006c6e:	6838      	ldr	r0, [r7, #0]
 8006c70:	f000 f9e9 	bl	8007046 <_set>

	return TC_CRYPTO_SUCCESS;
 8006c74:	2301      	movs	r3, #1
}
 8006c76:	4618      	mov	r0, r3
 8006c78:	3710      	adds	r7, #16
 8006c7a:	46bd      	mov	sp, r7
 8006c7c:	e8bd 83b0 	ldmia.w	sp!, {r4, r5, r7, r8, r9, pc}

08006c80 <ROTR>:
	0x5b9cca4f, 0x682e6ff3, 0x748f82ee, 0x78a5636f, 0x84c87814, 0x8cc70208,
	0x90befffa, 0xa4506ceb, 0xbef9a3f7, 0xc67178f2
};

static inline unsigned int ROTR(unsigned int a, unsigned int n)
{
 8006c80:	b480      	push	{r7}
 8006c82:	b083      	sub	sp, #12
 8006c84:	af00      	add	r7, sp, #0
 8006c86:	6078      	str	r0, [r7, #4]
 8006c88:	6039      	str	r1, [r7, #0]
	return (((a) >> n) | ((a) << (32 - n)));
 8006c8a:	687a      	ldr	r2, [r7, #4]
 8006c8c:	683b      	ldr	r3, [r7, #0]
 8006c8e:	fa62 f303 	ror.w	r3, r2, r3
}
 8006c92:	4618      	mov	r0, r3
 8006c94:	370c      	adds	r7, #12
 8006c96:	46bd      	mov	sp, r7
 8006c98:	f85d 7b04 	ldr.w	r7, [sp], #4
 8006c9c:	4770      	bx	lr

08006c9e <BigEndian>:

#define Ch(a, b, c)(((a) & (b)) ^ ((~(a)) & (c)))
#define Maj(a, b, c)(((a) & (b)) ^ ((a) & (c)) ^ ((b) & (c)))

static inline unsigned int BigEndian(const uint8_t **c)
{
 8006c9e:	b480      	push	{r7}
 8006ca0:	b085      	sub	sp, #20
 8006ca2:	af00      	add	r7, sp, #0
 8006ca4:	6078      	str	r0, [r7, #4]
	unsigned int n = 0;
 8006ca6:	2300      	movs	r3, #0
 8006ca8:	60fb      	str	r3, [r7, #12]

	n = (((unsigned int)(*((*c)++))) << 24);
 8006caa:	687b      	ldr	r3, [r7, #4]
 8006cac:	681b      	ldr	r3, [r3, #0]
 8006cae:	1c59      	adds	r1, r3, #1
 8006cb0:	687a      	ldr	r2, [r7, #4]
 8006cb2:	6011      	str	r1, [r2, #0]
 8006cb4:	781b      	ldrb	r3, [r3, #0]
 8006cb6:	061b      	lsls	r3, r3, #24
 8006cb8:	60fb      	str	r3, [r7, #12]
	n |= ((unsigned int)(*((*c)++)) << 16);
 8006cba:	687b      	ldr	r3, [r7, #4]
 8006cbc:	681b      	ldr	r3, [r3, #0]
 8006cbe:	1c59      	adds	r1, r3, #1
 8006cc0:	687a      	ldr	r2, [r7, #4]
 8006cc2:	6011      	str	r1, [r2, #0]
 8006cc4:	781b      	ldrb	r3, [r3, #0]
 8006cc6:	041b      	lsls	r3, r3, #16
 8006cc8:	68fa      	ldr	r2, [r7, #12]
 8006cca:	4313      	orrs	r3, r2
 8006ccc:	60fb      	str	r3, [r7, #12]
	n |= ((unsigned int)(*((*c)++)) << 8);
 8006cce:	687b      	ldr	r3, [r7, #4]
 8006cd0:	681b      	ldr	r3, [r3, #0]
 8006cd2:	1c59      	adds	r1, r3, #1
 8006cd4:	687a      	ldr	r2, [r7, #4]
 8006cd6:	6011      	str	r1, [r2, #0]
 8006cd8:	781b      	ldrb	r3, [r3, #0]
 8006cda:	021b      	lsls	r3, r3, #8
 8006cdc:	68fa      	ldr	r2, [r7, #12]
 8006cde:	4313      	orrs	r3, r2
 8006ce0:	60fb      	str	r3, [r7, #12]
	n |= ((unsigned int)(*((*c)++)));
 8006ce2:	687b      	ldr	r3, [r7, #4]
 8006ce4:	681b      	ldr	r3, [r3, #0]
 8006ce6:	1c59      	adds	r1, r3, #1
 8006ce8:	687a      	ldr	r2, [r7, #4]
 8006cea:	6011      	str	r1, [r2, #0]
 8006cec:	781b      	ldrb	r3, [r3, #0]
 8006cee:	461a      	mov	r2, r3
 8006cf0:	68fb      	ldr	r3, [r7, #12]
 8006cf2:	4313      	orrs	r3, r2
 8006cf4:	60fb      	str	r3, [r7, #12]
	return n;
 8006cf6:	68fb      	ldr	r3, [r7, #12]
}
 8006cf8:	4618      	mov	r0, r3
 8006cfa:	3714      	adds	r7, #20
 8006cfc:	46bd      	mov	sp, r7
 8006cfe:	f85d 7b04 	ldr.w	r7, [sp], #4
 8006d02:	4770      	bx	lr

08006d04 <compress>:

static void compress(unsigned int *iv, const uint8_t *data)
{
 8006d04:	b590      	push	{r4, r7, lr}
 8006d06:	b0a1      	sub	sp, #132	@ 0x84
 8006d08:	af00      	add	r7, sp, #0
 8006d0a:	6078      	str	r0, [r7, #4]
 8006d0c:	6039      	str	r1, [r7, #0]
	unsigned int t1, t2;
	unsigned int work_space[16];
	unsigned int n;
	unsigned int i;

	a = iv[0]; b = iv[1]; c = iv[2]; d = iv[3];
 8006d0e:	687b      	ldr	r3, [r7, #4]
 8006d10:	681b      	ldr	r3, [r3, #0]
 8006d12:	67fb      	str	r3, [r7, #124]	@ 0x7c
 8006d14:	687b      	ldr	r3, [r7, #4]
 8006d16:	685b      	ldr	r3, [r3, #4]
 8006d18:	67bb      	str	r3, [r7, #120]	@ 0x78
 8006d1a:	687b      	ldr	r3, [r7, #4]
 8006d1c:	689b      	ldr	r3, [r3, #8]
 8006d1e:	677b      	str	r3, [r7, #116]	@ 0x74
 8006d20:	687b      	ldr	r3, [r7, #4]
 8006d22:	68db      	ldr	r3, [r3, #12]
 8006d24:	673b      	str	r3, [r7, #112]	@ 0x70
	e = iv[4]; f = iv[5]; g = iv[6]; h = iv[7];
 8006d26:	687b      	ldr	r3, [r7, #4]
 8006d28:	691b      	ldr	r3, [r3, #16]
 8006d2a:	66fb      	str	r3, [r7, #108]	@ 0x6c
 8006d2c:	687b      	ldr	r3, [r7, #4]
 8006d2e:	695b      	ldr	r3, [r3, #20]
 8006d30:	66bb      	str	r3, [r7, #104]	@ 0x68
 8006d32:	687b      	ldr	r3, [r7, #4]
 8006d34:	699b      	ldr	r3, [r3, #24]
 8006d36:	667b      	str	r3, [r7, #100]	@ 0x64
 8006d38:	687b      	ldr	r3, [r7, #4]
 8006d3a:	69db      	ldr	r3, [r3, #28]
 8006d3c:	663b      	str	r3, [r7, #96]	@ 0x60

	for (i = 0; i < 16; ++i) {
 8006d3e:	2300      	movs	r3, #0
 8006d40:	65fb      	str	r3, [r7, #92]	@ 0x5c
 8006d42:	e06b      	b.n	8006e1c <compress+0x118>
		n = BigEndian(&data);
 8006d44:	463b      	mov	r3, r7
 8006d46:	4618      	mov	r0, r3
 8006d48:	f7ff ffa9 	bl	8006c9e <BigEndian>
 8006d4c:	64b8      	str	r0, [r7, #72]	@ 0x48
		t1 = work_space[i] = n;
 8006d4e:	6dfb      	ldr	r3, [r7, #92]	@ 0x5c
 8006d50:	009b      	lsls	r3, r3, #2
 8006d52:	3380      	adds	r3, #128	@ 0x80
 8006d54:	443b      	add	r3, r7
 8006d56:	6cba      	ldr	r2, [r7, #72]	@ 0x48
 8006d58:	f843 2c78 	str.w	r2, [r3, #-120]
 8006d5c:	6dfb      	ldr	r3, [r7, #92]	@ 0x5c
 8006d5e:	009b      	lsls	r3, r3, #2
 8006d60:	3380      	adds	r3, #128	@ 0x80
 8006d62:	443b      	add	r3, r7
 8006d64:	f853 3c78 	ldr.w	r3, [r3, #-120]
 8006d68:	653b      	str	r3, [r7, #80]	@ 0x50
		t1 += h + Sigma1(e) + Ch(e, f, g) + k256[i];
 8006d6a:	2106      	movs	r1, #6
 8006d6c:	6ef8      	ldr	r0, [r7, #108]	@ 0x6c
 8006d6e:	f7ff ff87 	bl	8006c80 <ROTR>
 8006d72:	4604      	mov	r4, r0
 8006d74:	210b      	movs	r1, #11
 8006d76:	6ef8      	ldr	r0, [r7, #108]	@ 0x6c
 8006d78:	f7ff ff82 	bl	8006c80 <ROTR>
 8006d7c:	4603      	mov	r3, r0
 8006d7e:	405c      	eors	r4, r3
 8006d80:	2119      	movs	r1, #25
 8006d82:	6ef8      	ldr	r0, [r7, #108]	@ 0x6c
 8006d84:	f7ff ff7c 	bl	8006c80 <ROTR>
 8006d88:	4603      	mov	r3, r0
 8006d8a:	ea84 0203 	eor.w	r2, r4, r3
 8006d8e:	6e3b      	ldr	r3, [r7, #96]	@ 0x60
 8006d90:	441a      	add	r2, r3
 8006d92:	6ef9      	ldr	r1, [r7, #108]	@ 0x6c
 8006d94:	6ebb      	ldr	r3, [r7, #104]	@ 0x68
 8006d96:	4019      	ands	r1, r3
 8006d98:	6efb      	ldr	r3, [r7, #108]	@ 0x6c
 8006d9a:	43d8      	mvns	r0, r3
 8006d9c:	6e7b      	ldr	r3, [r7, #100]	@ 0x64
 8006d9e:	4003      	ands	r3, r0
 8006da0:	404b      	eors	r3, r1
 8006da2:	441a      	add	r2, r3
 8006da4:	499b      	ldr	r1, [pc, #620]	@ (8007014 <compress+0x310>)
 8006da6:	6dfb      	ldr	r3, [r7, #92]	@ 0x5c
 8006da8:	f851 3023 	ldr.w	r3, [r1, r3, lsl #2]
 8006dac:	4413      	add	r3, r2
 8006dae:	6d3a      	ldr	r2, [r7, #80]	@ 0x50
 8006db0:	4413      	add	r3, r2
 8006db2:	653b      	str	r3, [r7, #80]	@ 0x50
		t2 = Sigma0(a) + Maj(a, b, c);
 8006db4:	2102      	movs	r1, #2
 8006db6:	6ff8      	ldr	r0, [r7, #124]	@ 0x7c
 8006db8:	f7ff ff62 	bl	8006c80 <ROTR>
 8006dbc:	4604      	mov	r4, r0
 8006dbe:	210d      	movs	r1, #13
 8006dc0:	6ff8      	ldr	r0, [r7, #124]	@ 0x7c
 8006dc2:	f7ff ff5d 	bl	8006c80 <ROTR>
 8006dc6:	4603      	mov	r3, r0
 8006dc8:	405c      	eors	r4, r3
 8006dca:	2116      	movs	r1, #22
 8006dcc:	6ff8      	ldr	r0, [r7, #124]	@ 0x7c
 8006dce:	f7ff ff57 	bl	8006c80 <ROTR>
 8006dd2:	4603      	mov	r3, r0
 8006dd4:	ea84 0203 	eor.w	r2, r4, r3
 8006dd8:	6fb9      	ldr	r1, [r7, #120]	@ 0x78
 8006dda:	6f7b      	ldr	r3, [r7, #116]	@ 0x74
 8006ddc:	4059      	eors	r1, r3
 8006dde:	6ffb      	ldr	r3, [r7, #124]	@ 0x7c
 8006de0:	4019      	ands	r1, r3
 8006de2:	6fb8      	ldr	r0, [r7, #120]	@ 0x78
 8006de4:	6f7b      	ldr	r3, [r7, #116]	@ 0x74
 8006de6:	4003      	ands	r3, r0
 8006de8:	404b      	eors	r3, r1
 8006dea:	4413      	add	r3, r2
 8006dec:	64fb      	str	r3, [r7, #76]	@ 0x4c
		h = g; g = f; f = e; e = d + t1;
 8006dee:	6e7b      	ldr	r3, [r7, #100]	@ 0x64
 8006df0:	663b      	str	r3, [r7, #96]	@ 0x60
 8006df2:	6ebb      	ldr	r3, [r7, #104]	@ 0x68
 8006df4:	667b      	str	r3, [r7, #100]	@ 0x64
 8006df6:	6efb      	ldr	r3, [r7, #108]	@ 0x6c
 8006df8:	66bb      	str	r3, [r7, #104]	@ 0x68
 8006dfa:	6f3a      	ldr	r2, [r7, #112]	@ 0x70
 8006dfc:	6d3b      	ldr	r3, [r7, #80]	@ 0x50
 8006dfe:	4413      	add	r3, r2
 8006e00:	66fb      	str	r3, [r7, #108]	@ 0x6c
		d = c; c = b; b = a; a = t1 + t2;
 8006e02:	6f7b      	ldr	r3, [r7, #116]	@ 0x74
 8006e04:	673b      	str	r3, [r7, #112]	@ 0x70
 8006e06:	6fbb      	ldr	r3, [r7, #120]	@ 0x78
 8006e08:	677b      	str	r3, [r7, #116]	@ 0x74
 8006e0a:	6ffb      	ldr	r3, [r7, #124]	@ 0x7c
 8006e0c:	67bb      	str	r3, [r7, #120]	@ 0x78
 8006e0e:	6d3a      	ldr	r2, [r7, #80]	@ 0x50
 8006e10:	6cfb      	ldr	r3, [r7, #76]	@ 0x4c
 8006e12:	4413      	add	r3, r2
 8006e14:	67fb      	str	r3, [r7, #124]	@ 0x7c
	for (i = 0; i < 16; ++i) {
 8006e16:	6dfb      	ldr	r3, [r7, #92]	@ 0x5c
 8006e18:	3301      	adds	r3, #1
 8006e1a:	65fb      	str	r3, [r7, #92]	@ 0x5c
 8006e1c:	6dfb      	ldr	r3, [r7, #92]	@ 0x5c
 8006e1e:	2b0f      	cmp	r3, #15
 8006e20:	d990      	bls.n	8006d44 <compress+0x40>
	}

	for ( ; i < 64; ++i) {
 8006e22:	e0b0      	b.n	8006f86 <compress+0x282>
		s0 = work_space[(i+1)&0x0f];
 8006e24:	6dfb      	ldr	r3, [r7, #92]	@ 0x5c
 8006e26:	3301      	adds	r3, #1
 8006e28:	f003 030f 	and.w	r3, r3, #15
 8006e2c:	009b      	lsls	r3, r3, #2
 8006e2e:	3380      	adds	r3, #128	@ 0x80
 8006e30:	443b      	add	r3, r7
 8006e32:	f853 3c78 	ldr.w	r3, [r3, #-120]
 8006e36:	65bb      	str	r3, [r7, #88]	@ 0x58
		s0 = sigma0(s0);
 8006e38:	2107      	movs	r1, #7
 8006e3a:	6db8      	ldr	r0, [r7, #88]	@ 0x58
 8006e3c:	f7ff ff20 	bl	8006c80 <ROTR>
 8006e40:	4604      	mov	r4, r0
 8006e42:	2112      	movs	r1, #18
 8006e44:	6db8      	ldr	r0, [r7, #88]	@ 0x58
 8006e46:	f7ff ff1b 	bl	8006c80 <ROTR>
 8006e4a:	4603      	mov	r3, r0
 8006e4c:	ea84 0203 	eor.w	r2, r4, r3
 8006e50:	6dbb      	ldr	r3, [r7, #88]	@ 0x58
 8006e52:	08db      	lsrs	r3, r3, #3
 8006e54:	4053      	eors	r3, r2
 8006e56:	65bb      	str	r3, [r7, #88]	@ 0x58
		s1 = work_space[(i+14)&0x0f];
 8006e58:	6dfb      	ldr	r3, [r7, #92]	@ 0x5c
 8006e5a:	330e      	adds	r3, #14
 8006e5c:	f003 030f 	and.w	r3, r3, #15
 8006e60:	009b      	lsls	r3, r3, #2
 8006e62:	3380      	adds	r3, #128	@ 0x80
 8006e64:	443b      	add	r3, r7
 8006e66:	f853 3c78 	ldr.w	r3, [r3, #-120]
 8006e6a:	657b      	str	r3, [r7, #84]	@ 0x54
		s1 = sigma1(s1);
 8006e6c:	2111      	movs	r1, #17
 8006e6e:	6d78      	ldr	r0, [r7, #84]	@ 0x54
 8006e70:	f7ff ff06 	bl	8006c80 <ROTR>
 8006e74:	4604      	mov	r4, r0
 8006e76:	2113      	movs	r1, #19
 8006e78:	6d78      	ldr	r0, [r7, #84]	@ 0x54
 8006e7a:	f7ff ff01 	bl	8006c80 <ROTR>
 8006e7e:	4603      	mov	r3, r0
 8006e80:	ea84 0203 	eor.w	r2, r4, r3
 8006e84:	6d7b      	ldr	r3, [r7, #84]	@ 0x54
 8006e86:	0a9b      	lsrs	r3, r3, #10
 8006e88:	4053      	eors	r3, r2
 8006e8a:	657b      	str	r3, [r7, #84]	@ 0x54

		t1 = work_space[i&0xf] += s0 + s1 + work_space[(i+9)&0xf];
 8006e8c:	6dfb      	ldr	r3, [r7, #92]	@ 0x5c
 8006e8e:	f003 030f 	and.w	r3, r3, #15
 8006e92:	009b      	lsls	r3, r3, #2
 8006e94:	3380      	adds	r3, #128	@ 0x80
 8006e96:	443b      	add	r3, r7
 8006e98:	f853 1c78 	ldr.w	r1, [r3, #-120]
 8006e9c:	6dba      	ldr	r2, [r7, #88]	@ 0x58
 8006e9e:	6d7b      	ldr	r3, [r7, #84]	@ 0x54
 8006ea0:	441a      	add	r2, r3
 8006ea2:	6dfb      	ldr	r3, [r7, #92]	@ 0x5c
 8006ea4:	3309      	adds	r3, #9
 8006ea6:	f003 030f 	and.w	r3, r3, #15
 8006eaa:	009b      	lsls	r3, r3, #2
 8006eac:	3380      	adds	r3, #128	@ 0x80
 8006eae:	443b      	add	r3, r7
 8006eb0:	f853 3c78 	ldr.w	r3, [r3, #-120]
 8006eb4:	4413      	add	r3, r2
 8006eb6:	6dfa      	ldr	r2, [r7, #92]	@ 0x5c
 8006eb8:	f002 020f 	and.w	r2, r2, #15
 8006ebc:	4419      	add	r1, r3
 8006ebe:	0093      	lsls	r3, r2, #2
 8006ec0:	3380      	adds	r3, #128	@ 0x80
 8006ec2:	443b      	add	r3, r7
 8006ec4:	f843 1c78 	str.w	r1, [r3, #-120]
 8006ec8:	0093      	lsls	r3, r2, #2
 8006eca:	3380      	adds	r3, #128	@ 0x80
 8006ecc:	443b      	add	r3, r7
 8006ece:	f853 3c78 	ldr.w	r3, [r3, #-120]
 8006ed2:	653b      	str	r3, [r7, #80]	@ 0x50
		t1 += h + Sigma1(e) + Ch(e, f, g) + k256[i];
 8006ed4:	2106      	movs	r1, #6
 8006ed6:	6ef8      	ldr	r0, [r7, #108]	@ 0x6c
 8006ed8:	f7ff fed2 	bl	8006c80 <ROTR>
 8006edc:	4604      	mov	r4, r0
 8006ede:	210b      	movs	r1, #11
 8006ee0:	6ef8      	ldr	r0, [r7, #108]	@ 0x6c
 8006ee2:	f7ff fecd 	bl	8006c80 <ROTR>
 8006ee6:	4603      	mov	r3, r0
 8006ee8:	405c      	eors	r4, r3
 8006eea:	2119      	movs	r1, #25
 8006eec:	6ef8      	ldr	r0, [r7, #108]	@ 0x6c
 8006eee:	f7ff fec7 	bl	8006c80 <ROTR>
 8006ef2:	4603      	mov	r3, r0
 8006ef4:	ea84 0203 	eor.w	r2, r4, r3
 8006ef8:	6e3b      	ldr	r3, [r7, #96]	@ 0x60
 8006efa:	441a      	add	r2, r3
 8006efc:	6ef9      	ldr	r1, [r7, #108]	@ 0x6c
 8006efe:	6ebb      	ldr	r3, [r7, #104]	@ 0x68
 8006f00:	4019      	ands	r1, r3
 8006f02:	6efb      	ldr	r3, [r7, #108]	@ 0x6c
 8006f04:	43d8      	mvns	r0, r3
 8006f06:	6e7b      	ldr	r3, [r7, #100]	@ 0x64
 8006f08:	4003      	ands	r3, r0
 8006f0a:	404b      	eors	r3, r1
 8006f0c:	441a      	add	r2, r3
 8006f0e:	4941      	ldr	r1, [pc, #260]	@ (8007014 <compress+0x310>)
 8006f10:	6dfb      	ldr	r3, [r7, #92]	@ 0x5c
 8006f12:	f851 3023 	ldr.w	r3, [r1, r3, lsl #2]
 8006f16:	4413      	add	r3, r2
 8006f18:	6d3a      	ldr	r2, [r7, #80]	@ 0x50
 8006f1a:	4413      	add	r3, r2
 8006f1c:	653b      	str	r3, [r7, #80]	@ 0x50
		t2 = Sigma0(a) + Maj(a, b, c);
 8006f1e:	2102      	movs	r1, #2
 8006f20:	6ff8      	ldr	r0, [r7, #124]	@ 0x7c
 8006f22:	f7ff fead 	bl	8006c80 <ROTR>
 8006f26:	4604      	mov	r4, r0
 8006f28:	210d      	movs	r1, #13
 8006f2a:	6ff8      	ldr	r0, [r7, #124]	@ 0x7c
 8006f2c:	f7ff fea8 	bl	8006c80 <ROTR>
 8006f30:	4603      	mov	r3, r0
 8006f32:	405c      	eors	r4, r3
 8006f34:	2116      	movs	r1, #22
 8006f36:	6ff8      	ldr	r0, [r7, #124]	@ 0x7c
 8006f38:	f7ff fea2 	bl	8006c80 <ROTR>
 8006f3c:	4603      	mov	r3, r0
 8006f3e:	ea84 0203 	eor.w	r2, r4, r3
 8006f42:	6fb9      	ldr	r1, [r7, #120]	@ 0x78
 8006f44:	6f7b      	ldr	r3, [r7, #116]	@ 0x74
 8006f46:	4059      	eors	r1, r3
 8006f48:	6ffb      	ldr	r3, [r7, #124]	@ 0x7c
 8006f4a:	4019      	ands	r1, r3
 8006f4c:	6fb8      	ldr	r0, [r7, #120]	@ 0x78
 8006f4e:	6f7b      	ldr	r3, [r7, #116]	@ 0x74
 8006f50:	4003      	ands	r3, r0
 8006f52:	404b      	eors	r3, r1
 8006f54:	4413      	add	r3, r2
 8006f56:	64fb      	str	r3, [r7, #76]	@ 0x4c
		h = g; g = f; f = e; e = d + t1;
 8006f58:	6e7b      	ldr	r3, [r7, #100]	@ 0x64
 8006f5a:	663b      	str	r3, [r7, #96]	@ 0x60
 8006f5c:	6ebb      	ldr	r3, [r7, #104]	@ 0x68
 8006f5e:	667b      	str	r3, [r7, #100]	@ 0x64
 8006f60:	6efb      	ldr	r3, [r7, #108]	@ 0x6c
 8006f62:	66bb      	str	r3, [r7, #104]	@ 0x68
 8006f64:	6f3a      	ldr	r2, [r7, #112]	@ 0x70
 8006f66:	6d3b      	ldr	r3, [r7, #80]	@ 0x50
 8006f68:	4413      	add	r3, r2
 8006f6a:	66fb      	str	r3, [r7, #108]	@ 0x6c
		d = c; c = b; b = a; a = t1 + t2;
 8006f6c:	6f7b      	ldr	r3, [r7, #116]	@ 0x74
 8006f6e:	673b      	str	r3, [r7, #112]	@ 0x70
 8006f70:	6fbb      	ldr	r3, [r7, #120]	@ 0x78
 8006f72:	677b      	str	r3, [r7, #116]	@ 0x74
 8006f74:	6ffb      	ldr	r3, [r7, #124]	@ 0x7c
 8006f76:	67bb      	str	r3, [r7, #120]	@ 0x78
 8006f78:	6d3a      	ldr	r2, [r7, #80]	@ 0x50
 8006f7a:	6cfb      	ldr	r3, [r7, #76]	@ 0x4c
 8006f7c:	4413      	add	r3, r2
 8006f7e:	67fb      	str	r3, [r7, #124]	@ 0x7c
	for ( ; i < 64; ++i) {
 8006f80:	6dfb      	ldr	r3, [r7, #92]	@ 0x5c
 8006f82:	3301      	adds	r3, #1
 8006f84:	65fb      	str	r3, [r7, #92]	@ 0x5c
 8006f86:	6dfb      	ldr	r3, [r7, #92]	@ 0x5c
 8006f88:	2b3f      	cmp	r3, #63	@ 0x3f
 8006f8a:	f67f af4b 	bls.w	8006e24 <compress+0x120>
	}

	iv[0] += a; iv[1] += b; iv[2] += c; iv[3] += d;
 8006f8e:	687b      	ldr	r3, [r7, #4]
 8006f90:	681a      	ldr	r2, [r3, #0]
 8006f92:	6ffb      	ldr	r3, [r7, #124]	@ 0x7c
 8006f94:	441a      	add	r2, r3
 8006f96:	687b      	ldr	r3, [r7, #4]
 8006f98:	601a      	str	r2, [r3, #0]
 8006f9a:	687b      	ldr	r3, [r7, #4]
 8006f9c:	3304      	adds	r3, #4
 8006f9e:	6819      	ldr	r1, [r3, #0]
 8006fa0:	687b      	ldr	r3, [r7, #4]
 8006fa2:	3304      	adds	r3, #4
 8006fa4:	6fba      	ldr	r2, [r7, #120]	@ 0x78
 8006fa6:	440a      	add	r2, r1
 8006fa8:	601a      	str	r2, [r3, #0]
 8006faa:	687b      	ldr	r3, [r7, #4]
 8006fac:	3308      	adds	r3, #8
 8006fae:	6819      	ldr	r1, [r3, #0]
 8006fb0:	687b      	ldr	r3, [r7, #4]
 8006fb2:	3308      	adds	r3, #8
 8006fb4:	6f7a      	ldr	r2, [r7, #116]	@ 0x74
 8006fb6:	440a      	add	r2, r1
 8006fb8:	601a      	str	r2, [r3, #0]
 8006fba:	687b      	ldr	r3, [r7, #4]
 8006fbc:	330c      	adds	r3, #12
 8006fbe:	6819      	ldr	r1, [r3, #0]
 8006fc0:	687b      	ldr	r3, [r7, #4]
 8006fc2:	330c      	adds	r3, #12
 8006fc4:	6f3a      	ldr	r2, [r7, #112]	@ 0x70
 8006fc6:	440a      	add	r2, r1
 8006fc8:	601a      	str	r2, [r3, #0]
	iv[4] += e; iv[5] += f; iv[6] += g; iv[7] += h;
 8006fca:	687b      	ldr	r3, [r7, #4]
 8006fcc:	3310      	adds	r3, #16
 8006fce:	6819      	ldr	r1, [r3, #0]
 8006fd0:	687b      	ldr	r3, [r7, #4]
 8006fd2:	3310      	adds	r3, #16
 8006fd4:	6efa      	ldr	r2, [r7, #108]	@ 0x6c
 8006fd6:	440a      	add	r2, r1
 8006fd8:	601a      	str	r2, [r3, #0]
 8006fda:	687b      	ldr	r3, [r7, #4]
 8006fdc:	3314      	adds	r3, #20
 8006fde:	6819      	ldr	r1, [r3, #0]
 8006fe0:	687b      	ldr	r3, [r7, #4]
 8006fe2:	3314      	adds	r3, #20
 8006fe4:	6eba      	ldr	r2, [r7, #104]	@ 0x68
 8006fe6:	440a      	add	r2, r1
 8006fe8:	601a      	str	r2, [r3, #0]
 8006fea:	687b      	ldr	r3, [r7, #4]
 8006fec:	3318      	adds	r3, #24
 8006fee:	6819      	ldr	r1, [r3, #0]
 8006ff0:	687b      	ldr	r3, [r7, #4]
 8006ff2:	3318      	adds	r3, #24
 8006ff4:	6e7a      	ldr	r2, [r7, #100]	@ 0x64
 8006ff6:	440a      	add	r2, r1
 8006ff8:	601a      	str	r2, [r3, #0]
 8006ffa:	687b      	ldr	r3, [r7, #4]
 8006ffc:	331c      	adds	r3, #28
 8006ffe:	6819      	ldr	r1, [r3, #0]
 8007000:	687b      	ldr	r3, [r7, #4]
 8007002:	331c      	adds	r3, #28
 8007004:	6e3a      	ldr	r2, [r7, #96]	@ 0x60
 8007006:	440a      	add	r2, r1
 8007008:	601a      	str	r2, [r3, #0]
}
 800700a:	bf00      	nop
 800700c:	3784      	adds	r7, #132	@ 0x84
 800700e:	46bd      	mov	sp, r7
 8007010:	bd90      	pop	{r4, r7, pc}
 8007012:	bf00      	nop
 8007014:	08007dfc 	.word	0x08007dfc

08007018 <_copy>:

#define MASK_TWENTY_SEVEN 0x1b

unsigned int _copy(uint8_t *to, unsigned int to_len,
		   const uint8_t *from, unsigned int from_len)
{
 8007018:	b580      	push	{r7, lr}
 800701a:	b084      	sub	sp, #16
 800701c:	af00      	add	r7, sp, #0
 800701e:	60f8      	str	r0, [r7, #12]
 8007020:	60b9      	str	r1, [r7, #8]
 8007022:	607a      	str	r2, [r7, #4]
 8007024:	603b      	str	r3, [r7, #0]
	if (from_len <= to_len) {
 8007026:	683a      	ldr	r2, [r7, #0]
 8007028:	68bb      	ldr	r3, [r7, #8]
 800702a:	429a      	cmp	r2, r3
 800702c:	d806      	bhi.n	800703c <_copy+0x24>
		(void)memcpy(to, from, from_len);
 800702e:	683a      	ldr	r2, [r7, #0]
 8007030:	6879      	ldr	r1, [r7, #4]
 8007032:	68f8      	ldr	r0, [r7, #12]
 8007034:	f000 f864 	bl	8007100 <memcpy>
		return from_len;
 8007038:	683b      	ldr	r3, [r7, #0]
 800703a:	e000      	b.n	800703e <_copy+0x26>
	} else {
		return TC_CRYPTO_FAIL;
 800703c:	2300      	movs	r3, #0
	}
}
 800703e:	4618      	mov	r0, r3
 8007040:	3710      	adds	r7, #16
 8007042:	46bd      	mov	sp, r7
 8007044:	bd80      	pop	{r7, pc}

08007046 <_set>:

void _set(void *to, uint8_t val, unsigned int len)
{
 8007046:	b580      	push	{r7, lr}
 8007048:	b084      	sub	sp, #16
 800704a:	af00      	add	r7, sp, #0
 800704c:	60f8      	str	r0, [r7, #12]
 800704e:	460b      	mov	r3, r1
 8007050:	607a      	str	r2, [r7, #4]
 8007052:	72fb      	strb	r3, [r7, #11]
	(void)memset(to, val, len);
 8007054:	7afb      	ldrb	r3, [r7, #11]
 8007056:	687a      	ldr	r2, [r7, #4]
 8007058:	4619      	mov	r1, r3
 800705a:	68f8      	ldr	r0, [r7, #12]
 800705c:	f000 f823 	bl	80070a6 <memset>
}
 8007060:	bf00      	nop
 8007062:	3710      	adds	r7, #16
 8007064:	46bd      	mov	sp, r7
 8007066:	bd80      	pop	{r7, pc}

08007068 <_double_byte>:

/*
 * Doubles the value of a byte for values up to 127.
 */
uint8_t _double_byte(uint8_t a)
{
 8007068:	b480      	push	{r7}
 800706a:	b083      	sub	sp, #12
 800706c:	af00      	add	r7, sp, #0
 800706e:	4603      	mov	r3, r0
 8007070:	71fb      	strb	r3, [r7, #7]
	return ((a<<1) ^ ((a>>7) * MASK_TWENTY_SEVEN));
 8007072:	f997 3007 	ldrsb.w	r3, [r7, #7]
 8007076:	005b      	lsls	r3, r3, #1
 8007078:	b25a      	sxtb	r2, r3
 800707a:	79fb      	ldrb	r3, [r7, #7]
 800707c:	09db      	lsrs	r3, r3, #7
 800707e:	b2db      	uxtb	r3, r3
 8007080:	b25b      	sxtb	r3, r3
 8007082:	4619      	mov	r1, r3
 8007084:	0049      	lsls	r1, r1, #1
 8007086:	440b      	add	r3, r1
 8007088:	4619      	mov	r1, r3
 800708a:	00c8      	lsls	r0, r1, #3
 800708c:	4619      	mov	r1, r3
 800708e:	4603      	mov	r3, r0
 8007090:	440b      	add	r3, r1
 8007092:	b25b      	sxtb	r3, r3
 8007094:	4053      	eors	r3, r2
 8007096:	b25b      	sxtb	r3, r3
 8007098:	b2db      	uxtb	r3, r3
}
 800709a:	4618      	mov	r0, r3
 800709c:	370c      	adds	r7, #12
 800709e:	46bd      	mov	sp, r7
 80070a0:	f85d 7b04 	ldr.w	r7, [sp], #4
 80070a4:	4770      	bx	lr

080070a6 <memset>:
 80070a6:	4402      	add	r2, r0
 80070a8:	4603      	mov	r3, r0
 80070aa:	4293      	cmp	r3, r2
 80070ac:	d100      	bne.n	80070b0 <memset+0xa>
 80070ae:	4770      	bx	lr
 80070b0:	f803 1b01 	strb.w	r1, [r3], #1
 80070b4:	e7f9      	b.n	80070aa <memset+0x4>
	...

080070b8 <__libc_init_array>:
 80070b8:	b570      	push	{r4, r5, r6, lr}
 80070ba:	4d0d      	ldr	r5, [pc, #52]	@ (80070f0 <__libc_init_array+0x38>)
 80070bc:	4c0d      	ldr	r4, [pc, #52]	@ (80070f4 <__libc_init_array+0x3c>)
 80070be:	1b64      	subs	r4, r4, r5
 80070c0:	10a4      	asrs	r4, r4, #2
 80070c2:	2600      	movs	r6, #0
 80070c4:	42a6      	cmp	r6, r4
 80070c6:	d109      	bne.n	80070dc <__libc_init_array+0x24>
 80070c8:	4d0b      	ldr	r5, [pc, #44]	@ (80070f8 <__libc_init_array+0x40>)
 80070ca:	4c0c      	ldr	r4, [pc, #48]	@ (80070fc <__libc_init_array+0x44>)
 80070cc:	f000 f826 	bl	800711c <_init>
 80070d0:	1b64      	subs	r4, r4, r5
 80070d2:	10a4      	asrs	r4, r4, #2
 80070d4:	2600      	movs	r6, #0
 80070d6:	42a6      	cmp	r6, r4
 80070d8:	d105      	bne.n	80070e6 <__libc_init_array+0x2e>
 80070da:	bd70      	pop	{r4, r5, r6, pc}
 80070dc:	f855 3b04 	ldr.w	r3, [r5], #4
 80070e0:	4798      	blx	r3
 80070e2:	3601      	adds	r6, #1
 80070e4:	e7ee      	b.n	80070c4 <__libc_init_array+0xc>
 80070e6:	f855 3b04 	ldr.w	r3, [r5], #4
 80070ea:	4798      	blx	r3
 80070ec:	3601      	adds	r6, #1
 80070ee:	e7f2      	b.n	80070d6 <__libc_init_array+0x1e>
 80070f0:	08007f04 	.word	0x08007f04
 80070f4:	08007f04 	.word	0x08007f04
 80070f8:	08007f04 	.word	0x08007f04
 80070fc:	08007f08 	.word	0x08007f08

08007100 <memcpy>:
 8007100:	440a      	add	r2, r1
 8007102:	4291      	cmp	r1, r2
 8007104:	f100 33ff 	add.w	r3, r0, #4294967295
 8007108:	d100      	bne.n	800710c <memcpy+0xc>
 800710a:	4770      	bx	lr
 800710c:	b510      	push	{r4, lr}
 800710e:	f811 4b01 	ldrb.w	r4, [r1], #1
 8007112:	f803 4f01 	strb.w	r4, [r3, #1]!
 8007116:	4291      	cmp	r1, r2
 8007118:	d1f9      	bne.n	800710e <memcpy+0xe>
 800711a:	bd10      	pop	{r4, pc}

0800711c <_init>:
 800711c:	b5f8      	push	{r3, r4, r5, r6, r7, lr}
 800711e:	bf00      	nop
 8007120:	bcf8      	pop	{r3, r4, r5, r6, r7}
 8007122:	bc08      	pop	{r3}
 8007124:	469e      	mov	lr, r3
 8007126:	4770      	bx	lr

08007128 <_fini>:
 8007128:	b5f8      	push	{r3, r4, r5, r6, r7, lr}
 800712a:	bf00      	nop
 800712c:	bcf8      	pop	{r3, r4, r5, r6, r7}
 800712e:	bc08      	pop	{r3}
 8007130:	469e      	mov	lr, r3
 8007132:	4770      	bx	lr
