
bootloader.elf:     file format elf32-littlearm

Sections:
Idx Name          Size      VMA       LMA       File off  Algn
  0 .isr_vector   000001c8  08000000  08000000  00001000  2**0
                  CONTENTS, ALLOC, LOAD, READONLY, DATA
  1 .text         0000309c  080001d0  080001d0  000011d0  2**4
                  CONTENTS, ALLOC, LOAD, READONLY, CODE
  2 .rodata       00000258  0800326c  0800326c  0000426c  2**0
                  CONTENTS, ALLOC, LOAD, READONLY, DATA
  3 .ARM.extab    00000000  080034c4  080034c4  00006014  2**0
                  CONTENTS, READONLY
  4 .ARM          00000008  080034c4  080034c4  000044c4  2**2
                  CONTENTS, ALLOC, LOAD, READONLY, DATA
  5 .preinit_array 00000000  080034cc  080034cc  00006014  2**0
                  CONTENTS, ALLOC, LOAD, DATA
  6 .init_array   00000004  080034cc  080034cc  000044cc  2**2
                  CONTENTS, ALLOC, LOAD, READONLY, DATA
  7 .fini_array   00000004  080034d0  080034d0  000044d0  2**2
                  CONTENTS, ALLOC, LOAD, READONLY, DATA
  8 .data         00000068  20000000  080034d4  00005000  2**2
                  CONTENTS, ALLOC, LOAD, DATA
  9 .bss          0000023c  20000068  0800353c  00005068  2**2
                  ALLOC
 10 .shared_api_section 00000014  0800f000  0800f000  00006000  2**2
                  CONTENTS, ALLOC, LOAD, READONLY, DATA
 11 ._user_heap_stack 00000604  200002a4  200002a4  000062a4  2**0
                  ALLOC
 12 .ARM.attributes 00000030  00000000  00000000  00006014  2**0
                  CONTENTS, READONLY
 13 .debug_info   00011850  00000000  00000000  00006044  2**0
                  CONTENTS, READONLY, DEBUGGING, OCTETS
 14 .debug_abbrev 00002a6c  00000000  00000000  00017894  2**0
                  CONTENTS, READONLY, DEBUGGING, OCTETS
 15 .debug_loclists 00005a8d  00000000  00000000  0001a300  2**0
                  CONTENTS, READONLY, DEBUGGING, OCTETS
 16 .debug_aranges 00000b40  00000000  00000000  0001fd90  2**3
                  CONTENTS, READONLY, DEBUGGING, OCTETS
 17 .debug_rnglists 00000a2b  00000000  00000000  000208d0  2**0
                  CONTENTS, READONLY, DEBUGGING, OCTETS
 18 .debug_macro  0002657b  00000000  00000000  000212fb  2**0
                  CONTENTS, READONLY, DEBUGGING, OCTETS
 19 .debug_line   00012702  00000000  00000000  00047876  2**0
                  CONTENTS, READONLY, DEBUGGING, OCTETS
 20 .debug_str    000f0371  00000000  00000000  00059f78  2**0
                  CONTENTS, READONLY, DEBUGGING, OCTETS
 21 .comment      00000043  00000000  00000000  0014a2e9  2**0
                  CONTENTS, READONLY
 22 .debug_frame  0000235c  00000000  00000000  0014a32c  2**2
                  CONTENTS, READONLY, DEBUGGING, OCTETS
 23 .debug_line_str 00000098  00000000  00000000  0014c688  2**0
                  CONTENTS, READONLY, DEBUGGING, OCTETS

Disassembly of section .text:

080001d0 <__do_global_dtors_aux>:
 80001d0:	b510      	push	{r4, lr}
 80001d2:	4c05      	ldr	r4, [pc, #20]	@ (80001e8 <__do_global_dtors_aux+0x18>)
 80001d4:	7823      	ldrb	r3, [r4, #0]
 80001d6:	b933      	cbnz	r3, 80001e6 <__do_global_dtors_aux+0x16>
 80001d8:	4b04      	ldr	r3, [pc, #16]	@ (80001ec <__do_global_dtors_aux+0x1c>)
 80001da:	b113      	cbz	r3, 80001e2 <__do_global_dtors_aux+0x12>
 80001dc:	4804      	ldr	r0, [pc, #16]	@ (80001f0 <__do_global_dtors_aux+0x20>)
 80001de:	f3af 8000 	nop.w
 80001e2:	2301      	movs	r3, #1
 80001e4:	7023      	strb	r3, [r4, #0]
 80001e6:	bd10      	pop	{r4, pc}
 80001e8:	20000068 	.word	0x20000068
 80001ec:	00000000 	.word	0x00000000
 80001f0:	08003254 	.word	0x08003254

080001f4 <frame_dummy>:
 80001f4:	b508      	push	{r3, lr}
 80001f6:	4b03      	ldr	r3, [pc, #12]	@ (8000204 <frame_dummy+0x10>)
 80001f8:	b11b      	cbz	r3, 8000202 <frame_dummy+0xe>
 80001fa:	4903      	ldr	r1, [pc, #12]	@ (8000208 <frame_dummy+0x14>)
 80001fc:	4803      	ldr	r0, [pc, #12]	@ (800020c <frame_dummy+0x18>)
 80001fe:	f3af 8000 	nop.w
 8000202:	bd08      	pop	{r3, pc}
 8000204:	00000000 	.word	0x00000000
 8000208:	2000006c 	.word	0x2000006c
 800020c:	08003254 	.word	0x08003254

08000210 <memchr>:
 8000210:	f001 01ff 	and.w	r1, r1, #255	@ 0xff
 8000214:	2a10      	cmp	r2, #16
 8000216:	db2b      	blt.n	8000270 <memchr+0x60>
 8000218:	f010 0f07 	tst.w	r0, #7
 800021c:	d008      	beq.n	8000230 <memchr+0x20>
 800021e:	f810 3b01 	ldrb.w	r3, [r0], #1
 8000222:	3a01      	subs	r2, #1
 8000224:	428b      	cmp	r3, r1
 8000226:	d02d      	beq.n	8000284 <memchr+0x74>
 8000228:	f010 0f07 	tst.w	r0, #7
 800022c:	b342      	cbz	r2, 8000280 <memchr+0x70>
 800022e:	d1f6      	bne.n	800021e <memchr+0xe>
 8000230:	b4f0      	push	{r4, r5, r6, r7}
 8000232:	ea41 2101 	orr.w	r1, r1, r1, lsl #8
 8000236:	ea41 4101 	orr.w	r1, r1, r1, lsl #16
 800023a:	f022 0407 	bic.w	r4, r2, #7
 800023e:	f07f 0700 	mvns.w	r7, #0
 8000242:	2300      	movs	r3, #0
 8000244:	e8f0 5602 	ldrd	r5, r6, [r0], #8
 8000248:	3c08      	subs	r4, #8
 800024a:	ea85 0501 	eor.w	r5, r5, r1
 800024e:	ea86 0601 	eor.w	r6, r6, r1
 8000252:	fa85 f547 	uadd8	r5, r5, r7
 8000256:	faa3 f587 	sel	r5, r3, r7
 800025a:	fa86 f647 	uadd8	r6, r6, r7
 800025e:	faa5 f687 	sel	r6, r5, r7
 8000262:	b98e      	cbnz	r6, 8000288 <memchr+0x78>
 8000264:	d1ee      	bne.n	8000244 <memchr+0x34>
 8000266:	bcf0      	pop	{r4, r5, r6, r7}
 8000268:	f001 01ff 	and.w	r1, r1, #255	@ 0xff
 800026c:	f002 0207 	and.w	r2, r2, #7
 8000270:	b132      	cbz	r2, 8000280 <memchr+0x70>
 8000272:	f810 3b01 	ldrb.w	r3, [r0], #1
 8000276:	3a01      	subs	r2, #1
 8000278:	ea83 0301 	eor.w	r3, r3, r1
 800027c:	b113      	cbz	r3, 8000284 <memchr+0x74>
 800027e:	d1f8      	bne.n	8000272 <memchr+0x62>
 8000280:	2000      	movs	r0, #0
 8000282:	4770      	bx	lr
 8000284:	3801      	subs	r0, #1
 8000286:	4770      	bx	lr
 8000288:	2d00      	cmp	r5, #0
 800028a:	bf06      	itte	eq
 800028c:	4635      	moveq	r5, r6
 800028e:	3803      	subeq	r0, #3
 8000290:	3807      	subne	r0, #7
 8000292:	f015 0f01 	tst.w	r5, #1
 8000296:	d107      	bne.n	80002a8 <memchr+0x98>
 8000298:	3001      	adds	r0, #1
 800029a:	f415 7f80 	tst.w	r5, #256	@ 0x100
 800029e:	bf02      	ittt	eq
 80002a0:	3001      	addeq	r0, #1
 80002a2:	f415 3fc0 	tsteq.w	r5, #98304	@ 0x18000
 80002a6:	3001      	addeq	r0, #1
 80002a8:	bcf0      	pop	{r4, r5, r6, r7}
 80002aa:	3801      	subs	r0, #1
 80002ac:	4770      	bx	lr
 80002ae:	bf00      	nop

080002b0 <__aeabi_uldivmod>:
 80002b0:	b953      	cbnz	r3, 80002c8 <__aeabi_uldivmod+0x18>
 80002b2:	b94a      	cbnz	r2, 80002c8 <__aeabi_uldivmod+0x18>
 80002b4:	2900      	cmp	r1, #0
 80002b6:	bf08      	it	eq
 80002b8:	2800      	cmpeq	r0, #0
 80002ba:	bf1c      	itt	ne
 80002bc:	f04f 31ff 	movne.w	r1, #4294967295
 80002c0:	f04f 30ff 	movne.w	r0, #4294967295
 80002c4:	f000 b988 	b.w	80005d8 <__aeabi_idiv0>
 80002c8:	f1ad 0c08 	sub.w	ip, sp, #8
 80002cc:	e96d ce04 	strd	ip, lr, [sp, #-16]!
 80002d0:	f000 f806 	bl	80002e0 <__udivmoddi4>
 80002d4:	f8dd e004 	ldr.w	lr, [sp, #4]
 80002d8:	e9dd 2302 	ldrd	r2, r3, [sp, #8]
 80002dc:	b004      	add	sp, #16
 80002de:	4770      	bx	lr

080002e0 <__udivmoddi4>:
 80002e0:	e92d 47f0 	stmdb	sp!, {r4, r5, r6, r7, r8, r9, sl, lr}
 80002e4:	9d08      	ldr	r5, [sp, #32]
 80002e6:	468e      	mov	lr, r1
 80002e8:	4604      	mov	r4, r0
 80002ea:	4688      	mov	r8, r1
 80002ec:	2b00      	cmp	r3, #0
 80002ee:	d14a      	bne.n	8000386 <__udivmoddi4+0xa6>
 80002f0:	428a      	cmp	r2, r1
 80002f2:	4617      	mov	r7, r2
 80002f4:	d962      	bls.n	80003bc <__udivmoddi4+0xdc>
 80002f6:	fab2 f682 	clz	r6, r2
 80002fa:	b14e      	cbz	r6, 8000310 <__udivmoddi4+0x30>
 80002fc:	f1c6 0320 	rsb	r3, r6, #32
 8000300:	fa01 f806 	lsl.w	r8, r1, r6
 8000304:	fa20 f303 	lsr.w	r3, r0, r3
 8000308:	40b7      	lsls	r7, r6
 800030a:	ea43 0808 	orr.w	r8, r3, r8
 800030e:	40b4      	lsls	r4, r6
 8000310:	ea4f 4e17 	mov.w	lr, r7, lsr #16
 8000314:	fa1f fc87 	uxth.w	ip, r7
 8000318:	fbb8 f1fe 	udiv	r1, r8, lr
 800031c:	0c23      	lsrs	r3, r4, #16
 800031e:	fb0e 8811 	mls	r8, lr, r1, r8
 8000322:	ea43 4308 	orr.w	r3, r3, r8, lsl #16
 8000326:	fb01 f20c 	mul.w	r2, r1, ip
 800032a:	429a      	cmp	r2, r3
 800032c:	d909      	bls.n	8000342 <__udivmoddi4+0x62>
 800032e:	18fb      	adds	r3, r7, r3
 8000330:	f101 30ff 	add.w	r0, r1, #4294967295
 8000334:	f080 80ea 	bcs.w	800050c <__udivmoddi4+0x22c>
 8000338:	429a      	cmp	r2, r3
 800033a:	f240 80e7 	bls.w	800050c <__udivmoddi4+0x22c>
 800033e:	3902      	subs	r1, #2
 8000340:	443b      	add	r3, r7
 8000342:	1a9a      	subs	r2, r3, r2
 8000344:	b2a3      	uxth	r3, r4
 8000346:	fbb2 f0fe 	udiv	r0, r2, lr
 800034a:	fb0e 2210 	mls	r2, lr, r0, r2
 800034e:	ea43 4302 	orr.w	r3, r3, r2, lsl #16
 8000352:	fb00 fc0c 	mul.w	ip, r0, ip
 8000356:	459c      	cmp	ip, r3
 8000358:	d909      	bls.n	800036e <__udivmoddi4+0x8e>
 800035a:	18fb      	adds	r3, r7, r3
 800035c:	f100 32ff 	add.w	r2, r0, #4294967295
 8000360:	f080 80d6 	bcs.w	8000510 <__udivmoddi4+0x230>
 8000364:	459c      	cmp	ip, r3
 8000366:	f240 80d3 	bls.w	8000510 <__udivmoddi4+0x230>
 800036a:	443b      	add	r3, r7
 800036c:	3802      	subs	r0, #2
 800036e:	ea40 4001 	orr.w	r0, r0, r1, lsl #16
 8000372:	eba3 030c 	sub.w	r3, r3, ip
 8000376:	2100      	movs	r1, #0
 8000378:	b11d      	cbz	r5, 8000382 <__udivmoddi4+0xa2>
 800037a:	40f3      	lsrs	r3, r6
 800037c:	2200      	movs	r2, #0
 800037e:	e9c5 3200 	strd	r3, r2, [r5]
 8000382:	e8bd 87f0 	ldmia.w	sp!, {r4, r5, r6, r7, r8, r9, sl, pc}
 8000386:	428b      	cmp	r3, r1
 8000388:	d905      	bls.n	8000396 <__udivmoddi4+0xb6>
 800038a:	b10d      	cbz	r5, 8000390 <__udivmoddi4+0xb0>
 800038c:	e9c5 0100 	strd	r0, r1, [r5]
 8000390:	2100      	movs	r1, #0
 8000392:	4608      	mov	r0, r1
 8000394:	e7f5      	b.n	8000382 <__udivmoddi4+0xa2>
 8000396:	fab3 f183 	clz	r1, r3
 800039a:	2900      	cmp	r1, #0
 800039c:	d146      	bne.n	800042c <__udivmoddi4+0x14c>
 800039e:	4573      	cmp	r3, lr
 80003a0:	d302      	bcc.n	80003a8 <__udivmoddi4+0xc8>
 80003a2:	4282      	cmp	r2, r0
 80003a4:	f200 8105 	bhi.w	80005b2 <__udivmoddi4+0x2d2>
 80003a8:	1a84      	subs	r4, r0, r2
 80003aa:	eb6e 0203 	sbc.w	r2, lr, r3
 80003ae:	2001      	movs	r0, #1
 80003b0:	4690      	mov	r8, r2
 80003b2:	2d00      	cmp	r5, #0
 80003b4:	d0e5      	beq.n	8000382 <__udivmoddi4+0xa2>
 80003b6:	e9c5 4800 	strd	r4, r8, [r5]
 80003ba:	e7e2      	b.n	8000382 <__udivmoddi4+0xa2>
 80003bc:	2a00      	cmp	r2, #0
 80003be:	f000 8090 	beq.w	80004e2 <__udivmoddi4+0x202>
 80003c2:	fab2 f682 	clz	r6, r2
 80003c6:	2e00      	cmp	r6, #0
 80003c8:	f040 80a4 	bne.w	8000514 <__udivmoddi4+0x234>
 80003cc:	1a8a      	subs	r2, r1, r2
 80003ce:	0c03      	lsrs	r3, r0, #16
 80003d0:	ea4f 4e17 	mov.w	lr, r7, lsr #16
 80003d4:	b280      	uxth	r0, r0
 80003d6:	b2bc      	uxth	r4, r7
 80003d8:	2101      	movs	r1, #1
 80003da:	fbb2 fcfe 	udiv	ip, r2, lr
 80003de:	fb0e 221c 	mls	r2, lr, ip, r2
 80003e2:	ea43 4302 	orr.w	r3, r3, r2, lsl #16
 80003e6:	fb04 f20c 	mul.w	r2, r4, ip
 80003ea:	429a      	cmp	r2, r3
 80003ec:	d907      	bls.n	80003fe <__udivmoddi4+0x11e>
 80003ee:	18fb      	adds	r3, r7, r3
 80003f0:	f10c 38ff 	add.w	r8, ip, #4294967295
 80003f4:	d202      	bcs.n	80003fc <__udivmoddi4+0x11c>
 80003f6:	429a      	cmp	r2, r3
 80003f8:	f200 80e0 	bhi.w	80005bc <__udivmoddi4+0x2dc>
 80003fc:	46c4      	mov	ip, r8
 80003fe:	1a9b      	subs	r3, r3, r2
 8000400:	fbb3 f2fe 	udiv	r2, r3, lr
 8000404:	fb0e 3312 	mls	r3, lr, r2, r3
 8000408:	ea40 4303 	orr.w	r3, r0, r3, lsl #16
 800040c:	fb02 f404 	mul.w	r4, r2, r4
 8000410:	429c      	cmp	r4, r3
 8000412:	d907      	bls.n	8000424 <__udivmoddi4+0x144>
 8000414:	18fb      	adds	r3, r7, r3
 8000416:	f102 30ff 	add.w	r0, r2, #4294967295
 800041a:	d202      	bcs.n	8000422 <__udivmoddi4+0x142>
 800041c:	429c      	cmp	r4, r3
 800041e:	f200 80ca 	bhi.w	80005b6 <__udivmoddi4+0x2d6>
 8000422:	4602      	mov	r2, r0
 8000424:	1b1b      	subs	r3, r3, r4
 8000426:	ea42 400c 	orr.w	r0, r2, ip, lsl #16
 800042a:	e7a5      	b.n	8000378 <__udivmoddi4+0x98>
 800042c:	f1c1 0620 	rsb	r6, r1, #32
 8000430:	408b      	lsls	r3, r1
 8000432:	fa22 f706 	lsr.w	r7, r2, r6
 8000436:	431f      	orrs	r7, r3
 8000438:	fa0e f401 	lsl.w	r4, lr, r1
 800043c:	fa20 f306 	lsr.w	r3, r0, r6
 8000440:	fa2e fe06 	lsr.w	lr, lr, r6
 8000444:	ea4f 4917 	mov.w	r9, r7, lsr #16
 8000448:	4323      	orrs	r3, r4
 800044a:	fa00 f801 	lsl.w	r8, r0, r1
 800044e:	fa1f fc87 	uxth.w	ip, r7
 8000452:	fbbe f0f9 	udiv	r0, lr, r9
 8000456:	0c1c      	lsrs	r4, r3, #16
 8000458:	fb09 ee10 	mls	lr, r9, r0, lr
 800045c:	ea44 440e 	orr.w	r4, r4, lr, lsl #16
 8000460:	fb00 fe0c 	mul.w	lr, r0, ip
 8000464:	45a6      	cmp	lr, r4
 8000466:	fa02 f201 	lsl.w	r2, r2, r1
 800046a:	d909      	bls.n	8000480 <__udivmoddi4+0x1a0>
 800046c:	193c      	adds	r4, r7, r4
 800046e:	f100 3aff 	add.w	sl, r0, #4294967295
 8000472:	f080 809c 	bcs.w	80005ae <__udivmoddi4+0x2ce>
 8000476:	45a6      	cmp	lr, r4
 8000478:	f240 8099 	bls.w	80005ae <__udivmoddi4+0x2ce>
 800047c:	3802      	subs	r0, #2
 800047e:	443c      	add	r4, r7
 8000480:	eba4 040e 	sub.w	r4, r4, lr
 8000484:	fa1f fe83 	uxth.w	lr, r3
 8000488:	fbb4 f3f9 	udiv	r3, r4, r9
 800048c:	fb09 4413 	mls	r4, r9, r3, r4
 8000490:	ea4e 4404 	orr.w	r4, lr, r4, lsl #16
 8000494:	fb03 fc0c 	mul.w	ip, r3, ip
 8000498:	45a4      	cmp	ip, r4
 800049a:	d908      	bls.n	80004ae <__udivmoddi4+0x1ce>
 800049c:	193c      	adds	r4, r7, r4
 800049e:	f103 3eff 	add.w	lr, r3, #4294967295
 80004a2:	f080 8082 	bcs.w	80005aa <__udivmoddi4+0x2ca>
 80004a6:	45a4      	cmp	ip, r4
 80004a8:	d97f      	bls.n	80005aa <__udivmoddi4+0x2ca>
 80004aa:	3b02      	subs	r3, #2
 80004ac:	443c      	add	r4, r7
 80004ae:	ea43 4000 	orr.w	r0, r3, r0, lsl #16
 80004b2:	eba4 040c 	sub.w	r4, r4, ip
 80004b6:	fba0 ec02 	umull	lr, ip, r0, r2
 80004ba:	4564      	cmp	r4, ip
 80004bc:	4673      	mov	r3, lr
 80004be:	46e1      	mov	r9, ip
 80004c0:	d362      	bcc.n	8000588 <__udivmoddi4+0x2a8>
 80004c2:	d05f      	beq.n	8000584 <__udivmoddi4+0x2a4>
 80004c4:	b15d      	cbz	r5, 80004de <__udivmoddi4+0x1fe>
 80004c6:	ebb8 0203 	subs.w	r2, r8, r3
 80004ca:	eb64 0409 	sbc.w	r4, r4, r9
 80004ce:	fa04 f606 	lsl.w	r6, r4, r6
 80004d2:	fa22 f301 	lsr.w	r3, r2, r1
 80004d6:	431e      	orrs	r6, r3
 80004d8:	40cc      	lsrs	r4, r1
 80004da:	e9c5 6400 	strd	r6, r4, [r5]
 80004de:	2100      	movs	r1, #0
 80004e0:	e74f      	b.n	8000382 <__udivmoddi4+0xa2>
 80004e2:	fbb1 fcf2 	udiv	ip, r1, r2
 80004e6:	0c01      	lsrs	r1, r0, #16
 80004e8:	ea41 410e 	orr.w	r1, r1, lr, lsl #16
 80004ec:	b280      	uxth	r0, r0
 80004ee:	ea40 4201 	orr.w	r2, r0, r1, lsl #16
 80004f2:	463b      	mov	r3, r7
 80004f4:	4638      	mov	r0, r7
 80004f6:	463c      	mov	r4, r7
 80004f8:	46b8      	mov	r8, r7
 80004fa:	46be      	mov	lr, r7
 80004fc:	2620      	movs	r6, #32
 80004fe:	fbb1 f1f7 	udiv	r1, r1, r7
 8000502:	eba2 0208 	sub.w	r2, r2, r8
 8000506:	ea41 410c 	orr.w	r1, r1, ip, lsl #16
 800050a:	e766      	b.n	80003da <__udivmoddi4+0xfa>
 800050c:	4601      	mov	r1, r0
 800050e:	e718      	b.n	8000342 <__udivmoddi4+0x62>
 8000510:	4610      	mov	r0, r2
 8000512:	e72c      	b.n	800036e <__udivmoddi4+0x8e>
 8000514:	f1c6 0220 	rsb	r2, r6, #32
 8000518:	fa2e f302 	lsr.w	r3, lr, r2
 800051c:	40b7      	lsls	r7, r6
 800051e:	40b1      	lsls	r1, r6
 8000520:	fa20 f202 	lsr.w	r2, r0, r2
 8000524:	ea4f 4e17 	mov.w	lr, r7, lsr #16
 8000528:	430a      	orrs	r2, r1
 800052a:	fbb3 f8fe 	udiv	r8, r3, lr
 800052e:	b2bc      	uxth	r4, r7
 8000530:	fb0e 3318 	mls	r3, lr, r8, r3
 8000534:	0c11      	lsrs	r1, r2, #16
 8000536:	ea41 4103 	orr.w	r1, r1, r3, lsl #16
 800053a:	fb08 f904 	mul.w	r9, r8, r4
 800053e:	40b0      	lsls	r0, r6
 8000540:	4589      	cmp	r9, r1
 8000542:	ea4f 4310 	mov.w	r3, r0, lsr #16
 8000546:	b280      	uxth	r0, r0
 8000548:	d93e      	bls.n	80005c8 <__udivmoddi4+0x2e8>
 800054a:	1879      	adds	r1, r7, r1
 800054c:	f108 3cff 	add.w	ip, r8, #4294967295
 8000550:	d201      	bcs.n	8000556 <__udivmoddi4+0x276>
 8000552:	4589      	cmp	r9, r1
 8000554:	d81f      	bhi.n	8000596 <__udivmoddi4+0x2b6>
 8000556:	eba1 0109 	sub.w	r1, r1, r9
 800055a:	fbb1 f9fe 	udiv	r9, r1, lr
 800055e:	fb09 f804 	mul.w	r8, r9, r4
 8000562:	fb0e 1119 	mls	r1, lr, r9, r1
 8000566:	b292      	uxth	r2, r2
 8000568:	ea42 4201 	orr.w	r2, r2, r1, lsl #16
 800056c:	4542      	cmp	r2, r8
 800056e:	d229      	bcs.n	80005c4 <__udivmoddi4+0x2e4>
 8000570:	18ba      	adds	r2, r7, r2
 8000572:	f109 31ff 	add.w	r1, r9, #4294967295
 8000576:	d2c4      	bcs.n	8000502 <__udivmoddi4+0x222>
 8000578:	4542      	cmp	r2, r8
 800057a:	d2c2      	bcs.n	8000502 <__udivmoddi4+0x222>
 800057c:	f1a9 0102 	sub.w	r1, r9, #2
 8000580:	443a      	add	r2, r7
 8000582:	e7be      	b.n	8000502 <__udivmoddi4+0x222>
 8000584:	45f0      	cmp	r8, lr
 8000586:	d29d      	bcs.n	80004c4 <__udivmoddi4+0x1e4>
 8000588:	ebbe 0302 	subs.w	r3, lr, r2
 800058c:	eb6c 0c07 	sbc.w	ip, ip, r7
 8000590:	3801      	subs	r0, #1
 8000592:	46e1      	mov	r9, ip
 8000594:	e796      	b.n	80004c4 <__udivmoddi4+0x1e4>
 8000596:	eba7 0909 	sub.w	r9, r7, r9
 800059a:	4449      	add	r1, r9
 800059c:	f1a8 0c02 	sub.w	ip, r8, #2
 80005a0:	fbb1 f9fe 	udiv	r9, r1, lr
 80005a4:	fb09 f804 	mul.w	r8, r9, r4
 80005a8:	e7db      	b.n	8000562 <__udivmoddi4+0x282>
 80005aa:	4673      	mov	r3, lr
 80005ac:	e77f      	b.n	80004ae <__udivmoddi4+0x1ce>
 80005ae:	4650      	mov	r0, sl
 80005b0:	e766      	b.n	8000480 <__udivmoddi4+0x1a0>
 80005b2:	4608      	mov	r0, r1
 80005b4:	e6fd      	b.n	80003b2 <__udivmoddi4+0xd2>
 80005b6:	443b      	add	r3, r7
 80005b8:	3a02      	subs	r2, #2
 80005ba:	e733      	b.n	8000424 <__udivmoddi4+0x144>
 80005bc:	f1ac 0c02 	sub.w	ip, ip, #2
 80005c0:	443b      	add	r3, r7
 80005c2:	e71c      	b.n	80003fe <__udivmoddi4+0x11e>
 80005c4:	4649      	mov	r1, r9
 80005c6:	e79c      	b.n	8000502 <__udivmoddi4+0x222>
 80005c8:	eba1 0109 	sub.w	r1, r1, r9
 80005cc:	46c4      	mov	ip, r8
 80005ce:	fbb1 f9fe 	udiv	r9, r1, lr
 80005d2:	fb09 f804 	mul.w	r8, r9, r4
 80005d6:	e7c4      	b.n	8000562 <__udivmoddi4+0x282>

080005d8 <__aeabi_idiv0>:
 80005d8:	4770      	bx	lr
 80005da:	bf00      	nop

080005dc <__NVIC_SystemReset>:
  \details Acts as a special kind of Data Memory Barrier.
           It completes when all explicit memory accesses before this instruction complete.
 */
__STATIC_FORCEINLINE void __DSB(void)
{
  __ASM volatile ("dsb 0xF":::"memory");
 80005dc:	f3bf 8f4f 	dsb	sy
__NO_RETURN __STATIC_INLINE void __NVIC_SystemReset(void)
{
  __DSB();                                                          /* Ensure all outstanding memory accesses included
                                                                       buffered write are completed before reset */
  SCB->AIRCR  = (uint32_t)((0x5FAUL << SCB_AIRCR_VECTKEY_Pos)    |
                           (SCB->AIRCR & SCB_AIRCR_PRIGROUP_Msk) |
 80005e0:	4905      	ldr	r1, [pc, #20]	@ (80005f8 <__NVIC_SystemReset+0x1c>)
  SCB->AIRCR  = (uint32_t)((0x5FAUL << SCB_AIRCR_VECTKEY_Pos)    |
 80005e2:	4b06      	ldr	r3, [pc, #24]	@ (80005fc <__NVIC_SystemReset+0x20>)
                           (SCB->AIRCR & SCB_AIRCR_PRIGROUP_Msk) |
 80005e4:	68ca      	ldr	r2, [r1, #12]
 80005e6:	f402 62e0 	and.w	r2, r2, #1792	@ 0x700
  SCB->AIRCR  = (uint32_t)((0x5FAUL << SCB_AIRCR_VECTKEY_Pos)    |
 80005ea:	4313      	orrs	r3, r2
 80005ec:	60cb      	str	r3, [r1, #12]
 80005ee:	f3bf 8f4f 	dsb	sy
                            SCB_AIRCR_SYSRESETREQ_Msk    );         /* Keep priority group unchanged */
  __DSB();                                                          /* Ensure completion of memory access */

  for(;;)                                                           /* wait until reset */
  {
    __NOP();
 80005f2:	bf00      	nop
  for(;;)                                                           /* wait until reset */
 80005f4:	e7fd      	b.n	80005f2 <__NVIC_SystemReset+0x16>
 80005f6:	bf00      	nop
 80005f8:	e000ed00 	.word	0xe000ed00
 80005fc:	05fa0004 	.word	0x05fa0004

08000600 <BL_RequestUpdate>:
    HAL_PWR_EnableBkUpAccess();
    HAL_RTCEx_BKUPWrite(&hrtc, RTC_BKP_DR1, status);
    HAL_PWREx_DisableBkUpReg();
}

void BL_RequestUpdate(void) {
 8000600:	b508      	push	{r3, lr}
    HAL_PWR_EnableBkUpAccess();
 8000602:	f000 fdc1 	bl	8001188 <HAL_PWR_EnableBkUpAccess>
    HAL_RTCEx_BKUPWrite(&hrtc, RTC_BKP_DR0, 0xCAFEBABE); // Magic Flag
 8000606:	4a03      	ldr	r2, [pc, #12]	@ (8000614 <BL_RequestUpdate+0x14>)
 8000608:	2100      	movs	r1, #0
 800060a:	4803      	ldr	r0, [pc, #12]	@ (8000618 <BL_RequestUpdate+0x18>)
 800060c:	f001 fc6b 	bl	8001ee6 <HAL_RTCEx_BKUPWrite>
    NVIC_SystemReset();
 8000610:	f7ff ffe4 	bl	80005dc <__NVIC_SystemReset>
 8000614:	cafebabe 	.word	0xcafebabe
 8000618:	2000010c 	.word	0x2000010c

0800061c <BL_GetStatus>:
    HAL_PWREx_DisableBkUpReg();
}

uint32_t BL_GetStatus(void) {
    return HAL_RTCEx_BKUPRead(&hrtc, RTC_BKP_DR1);
 800061c:	2101      	movs	r1, #1
 800061e:	4801      	ldr	r0, [pc, #4]	@ (8000624 <BL_GetStatus+0x8>)
 8000620:	f001 bc66 	b.w	8001ef0 <HAL_RTCEx_BKUPRead>
 8000624:	2000010c 	.word	0x2000010c

08000628 <Bootloader_InternalVerify>:
//    if (image_end > footer_addr) return 0; // must not overlap footer
//
//    return footer_addr;

	// 1. Basic sanity checks on input
	if (slot_size < sizeof(fw_footer_t)) return 0;
 8000628:	294b      	cmp	r1, #75	@ 0x4b
    // For now, return 1 so the bootloader thinks the image is valid
    return 1;
}

BL_Status_t Bootloader_InternalVerify(uint32_t slot_start, uint32_t slot_size)
{
 800062a:	b5f0      	push	{r4, r5, r6, r7, lr}
	if (slot_size < sizeof(fw_footer_t)) return 0;
 800062c:	d90a      	bls.n	8000644 <Bootloader_InternalVerify+0x1c>
	uint32_t slot_end = slot_start + slot_size;
 800062e:	1845      	adds	r5, r0, r1
	for (uint32_t addr = slot_end - 4; addr >= slot_start + sizeof(fw_footer_t); addr -= 4)
 8000630:	f100 074c 	add.w	r7, r0, #76	@ 0x4c
		if (*(uint32_t*)addr == FOOTER_MAGIC)
 8000634:	f8df c054 	ldr.w	ip, [pc, #84]	@ 800068c <Bootloader_InternalVerify+0x64>
 8000638:	bf2c      	ite	cs
 800063a:	2601      	movcs	r6, #1
 800063c:	2600      	movcc	r6, #0
	for (uint32_t addr = slot_end - 4; addr >= slot_start + sizeof(fw_footer_t); addr -= 4)
 800063e:	1f2a      	subs	r2, r5, #4
 8000640:	42ba      	cmp	r2, r7
 8000642:	d201      	bcs.n	8000648 <Bootloader_InternalVerify+0x20>
    // 1) Find footer (deterministic)
    uint32_t footer_addr = Find_Footer(slot_start, slot_size);
    if (footer_addr == 0) return BL_ERR_FOOTER_NOT_FOUND;
 8000644:	2001      	movs	r0, #1
 8000646:	e01b      	b.n	8000680 <Bootloader_InternalVerify+0x58>
		if (*(uint32_t*)addr == FOOTER_MAGIC)
 8000648:	6813      	ldr	r3, [r2, #0]
 800064a:	4563      	cmp	r3, ip
 800064c:	d111      	bne.n	8000672 <Bootloader_InternalVerify+0x4a>
			if (f->version == 0 || f->version == 0xFFFFFFFF) continue;
 800064e:	f852 3c08 	ldr.w	r3, [r2, #-8]
 8000652:	f1a2 0448 	sub.w	r4, r2, #72	@ 0x48
 8000656:	3b01      	subs	r3, #1
 8000658:	3303      	adds	r3, #3
 800065a:	d80a      	bhi.n	8000672 <Bootloader_InternalVerify+0x4a>
			if ((f->image_size % 4) != 0) continue;
 800065c:	f852 3c04 	ldr.w	r3, [r2, #-4]
 8000660:	f013 0f03 	tst.w	r3, #3
 8000664:	d105      	bne.n	8000672 <Bootloader_InternalVerify+0x4a>
			if (f->image_size == 0 || f->image_size > slot_size) continue;
 8000666:	b123      	cbz	r3, 8000672 <Bootloader_InternalVerify+0x4a>
 8000668:	4299      	cmp	r1, r3
 800066a:	d302      	bcc.n	8000672 <Bootloader_InternalVerify+0x4a>
			uint32_t expected_footer_addr = slot_start + f->image_size;
 800066c:	4403      	add	r3, r0
			if (expected_footer_addr == footer_start)
 800066e:	42a3      	cmp	r3, r4
 8000670:	d007      	beq.n	8000682 <Bootloader_InternalVerify+0x5a>
	for (uint32_t addr = slot_end - 4; addr >= slot_start + sizeof(fw_footer_t); addr -= 4)
 8000672:	3a04      	subs	r2, #4
 8000674:	e7e4      	b.n	8000640 <Bootloader_InternalVerify+0x18>
    uint32_t slot_end = slot_start + slot_size;
    uint32_t image_end = slot_start + f->image_size;

    if (slot_end < slot_start) return BL_ERR_IMAGE_RANGE_BAD;    // overflow protection
    if (image_end > footer_addr) return BL_ERR_IMAGE_RANGE_BAD;
    if (image_end > slot_end) return BL_ERR_IMAGE_RANGE_BAD;
 8000676:	42ab      	cmp	r3, r5
 8000678:	bf94      	ite	ls
 800067a:	2300      	movls	r3, #0
 800067c:	2301      	movhi	r3, #1
 800067e:	0098      	lsls	r0, r3, #2
        return BL_ERR_SIG_FAIL;
    }


    return BL_OK;
}
 8000680:	bdf0      	pop	{r4, r5, r6, r7, pc}
    if (slot_end < slot_start) return BL_ERR_IMAGE_RANGE_BAD;    // overflow protection
 8000682:	2e00      	cmp	r6, #0
 8000684:	d0f7      	beq.n	8000676 <Bootloader_InternalVerify+0x4e>
 8000686:	2004      	movs	r0, #4
 8000688:	e7fa      	b.n	8000680 <Bootloader_InternalVerify+0x58>
 800068a:	bf00      	nop
 800068c:	454e4421 	.word	0x454e4421

08000690 <BL_VerifySlot>:
    if(slot_id == 1) return Bootloader_InternalVerify(APP_DOWNLOAD_START_ADDR, APP_DOWNLOAD_SIZE);
 8000690:	2801      	cmp	r0, #1
int BL_VerifySlot(uint32_t slot_id) {
 8000692:	b508      	push	{r3, lr}
    if(slot_id == 1) return Bootloader_InternalVerify(APP_DOWNLOAD_START_ADDR, APP_DOWNLOAD_SIZE);
 8000694:	bf07      	ittee	eq
 8000696:	f44f 2100 	moveq.w	r1, #524288	@ 0x80000
 800069a:	4803      	ldreq	r0, [pc, #12]	@ (80006a8 <BL_VerifySlot+0x18>)
    return Bootloader_InternalVerify(APP_ACTIVE_START_ADDR, APP_ACTIVE_SIZE);
 800069c:	f44f 21e0 	movne.w	r1, #458752	@ 0x70000
 80006a0:	4802      	ldrne	r0, [pc, #8]	@ (80006ac <BL_VerifySlot+0x1c>)
 80006a2:	f7ff ffc1 	bl	8000628 <Bootloader_InternalVerify>
}
 80006a6:	bd08      	pop	{r3, pc}
 80006a8:	08080000 	.word	0x08080000
 80006ac:	08010000 	.word	0x08010000

080006b0 <Bootloader_JumpToApp>:
}

void Bootloader_JumpToApp(void) {
	// 1. Fetch Addresses
	uint32_t app_addr = APP_ACTIVE_START_ADDR;
	uint32_t app_stack_addr= *(volatile uint32_t*)app_addr;
 80006b0:	4b25      	ldr	r3, [pc, #148]	@ (8000748 <Bootloader_JumpToApp+0x98>)
	uint32_t app_reset_handler = *(volatile uint32_t*)(app_addr + 4); // <--- Added this


	// 2. Safety Cleanup (REQUIRED to prevent Hard Faults)
	HAL_Delay(100);          // Wait for any printf to finish
 80006b2:	2064      	movs	r0, #100	@ 0x64
void Bootloader_JumpToApp(void) {
 80006b4:	e92d 41f0 	stmdb	sp!, {r4, r5, r6, r7, r8, lr}
	uint32_t app_stack_addr= *(volatile uint32_t*)app_addr;
 80006b8:	681d      	ldr	r5, [r3, #0]
	uint32_t app_reset_handler = *(volatile uint32_t*)(app_addr + 4); // <--- Added this
 80006ba:	685c      	ldr	r4, [r3, #4]
	HAL_Delay(100);          // Wait for any printf to finish
 80006bc:	f000 fb64 	bl	8000d88 <HAL_Delay>
  __ASM volatile ("cpsid i" : : : "memory");
 80006c0:	b672      	cpsid	i
  __ASM volatile ("dsb 0xF":::"memory");
 80006c2:	f3bf 8f4f 	dsb	sy
  __ASM volatile ("isb 0xF":::"memory");
 80006c6:	f3bf 8f6f 	isb	sy
__STATIC_INLINE void SCB_DisableICache (void)
{
  #if defined (__ICACHE_PRESENT) && (__ICACHE_PRESENT == 1U)
    __DSB();
    __ISB();
    SCB->CCR &= ~(uint32_t)SCB_CCR_IC_Msk;  /* disable I-Cache */
 80006ca:	4b20      	ldr	r3, [pc, #128]	@ (800074c <Bootloader_JumpToApp+0x9c>)
 80006cc:	695a      	ldr	r2, [r3, #20]
 80006ce:	f422 3200 	bic.w	r2, r2, #131072	@ 0x20000
 80006d2:	615a      	str	r2, [r3, #20]
    SCB->ICIALLU = 0UL;                     /* invalidate I-Cache */
 80006d4:	2200      	movs	r2, #0
 80006d6:	f8c3 2250 	str.w	r2, [r3, #592]	@ 0x250
  __ASM volatile ("dsb 0xF":::"memory");
 80006da:	f3bf 8f4f 	dsb	sy
  __ASM volatile ("isb 0xF":::"memory");
 80006de:	f3bf 8f6f 	isb	sy
  #if defined (__DCACHE_PRESENT) && (__DCACHE_PRESENT == 1U)
    uint32_t ccsidr;
    uint32_t sets;
    uint32_t ways;

    SCB->CSSELR = 0U; /*(0U << 1U) | 0U;*/  /* Level 1 data cache */
 80006e2:	f8c3 2084 	str.w	r2, [r3, #132]	@ 0x84
  __ASM volatile ("dsb 0xF":::"memory");
 80006e6:	f3bf 8f4f 	dsb	sy
    __DSB();

    SCB->CCR &= ~(uint32_t)SCB_CCR_DC_Msk;  /* disable D-Cache */
 80006ea:	695a      	ldr	r2, [r3, #20]
 80006ec:	f422 3280 	bic.w	r2, r2, #65536	@ 0x10000
 80006f0:	615a      	str	r2, [r3, #20]
 80006f2:	f3bf 8f4f 	dsb	sy
    __DSB();

    ccsidr = SCB->CCSIDR;
 80006f6:	f8d3 2080 	ldr.w	r2, [r3, #128]	@ 0x80
                                            /* clean & invalidate D-Cache */
    sets = (uint32_t)(CCSIDR_SETS(ccsidr));
    do {
      ways = (uint32_t)(CCSIDR_WAYS(ccsidr));
      do {
        SCB->DCCISW = (((sets << SCB_DCCISW_SET_Pos) & SCB_DCCISW_SET_Msk) |
 80006fa:	f643 76e0 	movw	r6, #16352	@ 0x3fe0
      ways = (uint32_t)(CCSIDR_WAYS(ccsidr));
 80006fe:	f3c2 00c9 	ubfx	r0, r2, #3, #10
    sets = (uint32_t)(CCSIDR_SETS(ccsidr));
 8000702:	f3c2 324e 	ubfx	r2, r2, #13, #15
 8000706:	0152      	lsls	r2, r2, #5
        SCB->DCCISW = (((sets << SCB_DCCISW_SET_Pos) & SCB_DCCISW_SET_Msk) |
 8000708:	ea02 0c06 	and.w	ip, r2, r6
      ways = (uint32_t)(CCSIDR_WAYS(ccsidr));
 800070c:	4601      	mov	r1, r0
        SCB->DCCISW = (((sets << SCB_DCCISW_SET_Pos) & SCB_DCCISW_SET_Msk) |
 800070e:	ea4c 7781 	orr.w	r7, ip, r1, lsl #30
                       ((ways << SCB_DCCISW_WAY_Pos) & SCB_DCCISW_WAY_Msk)  );
        #if defined ( __CC_ARM )
          __schedule_barrier();
        #endif
      } while (ways-- != 0U);
 8000712:	3901      	subs	r1, #1
        SCB->DCCISW = (((sets << SCB_DCCISW_SET_Pos) & SCB_DCCISW_SET_Msk) |
 8000714:	f8c3 7274 	str.w	r7, [r3, #628]	@ 0x274
      } while (ways-- != 0U);
 8000718:	d2f9      	bcs.n	800070e <Bootloader_JumpToApp+0x5e>
    } while(sets-- != 0U);
 800071a:	3a20      	subs	r2, #32
 800071c:	f112 0f20 	cmn.w	r2, #32
 8000720:	d1f2      	bne.n	8000708 <Bootloader_JumpToApp+0x58>
 8000722:	f3bf 8f4f 	dsb	sy
  __ASM volatile ("isb 0xF":::"memory");
 8000726:	f3bf 8f6f 	isb	sy
	__disable_irq();         // Turn off interrupts
	SCB_DisableICache();     // Turn off I-Cache
	SCB_DisableDCache();     // Turn off D-Cache
	SysTick->CTRL = 0;       // Turn off SysTick
 800072a:	f04f 22e0 	mov.w	r2, #3758153728	@ 0xe000e000
 800072e:	2100      	movs	r1, #0
 8000730:	6111      	str	r1, [r2, #16]
	SysTick->LOAD = 0;
 8000732:	6151      	str	r1, [r2, #20]
	SysTick->VAL  = 0;
 8000734:	6191      	str	r1, [r2, #24]
	//HAL_RCC_DeInitS();        // Turn off Clocks
	// 3. Update Vector Table (YOU MISSED THIS!)

	 SCB->VTOR = app_addr;    // <--- REQUIRED: Tells CPU to use App's Interrupts
 8000736:	4a04      	ldr	r2, [pc, #16]	@ (8000748 <Bootloader_JumpToApp+0x98>)
 8000738:	609a      	str	r2, [r3, #8]
  __ASM volatile ("MSR msp, %0" : : "r" (topOfMainStack) : );
 800073a:	f385 8808 	msr	MSP, r5
	// 3. The Jump Logic
	__set_MSP(app_stack_addr);               // 2. Set the Main Stack Pointer

	// 3. Jump to Reset Handler
	void (*pJump)(void) = (void (*)(void))app_reset_handler;
	pJump();
 800073e:	4623      	mov	r3, r4


}
 8000740:	e8bd 41f0 	ldmia.w	sp!, {r4, r5, r6, r7, r8, lr}
	pJump();
 8000744:	4718      	bx	r3
 8000746:	bf00      	nop
 8000748:	08010000 	.word	0x08010000
 800074c:	e000ed00 	.word	0xe000ed00

08000750 <SystemClock_Config>:
/**
  * @brief System Clock Configuration
  * @retval None
  */
void SystemClock_Config(void)
{
 8000750:	b530      	push	{r4, r5, lr}
  RCC_OscInitTypeDef RCC_OscInitStruct = {0};
 8000752:	2500      	movs	r5, #0
{
 8000754:	b095      	sub	sp, #84	@ 0x54
  RCC_ClkInitTypeDef RCC_ClkInitStruct = {0};
 8000756:	2214      	movs	r2, #20
  */
  RCC_OscInitStruct.OscillatorType = RCC_OSCILLATORTYPE_HSI|RCC_OSCILLATORTYPE_LSI;
  RCC_OscInitStruct.HSIState = RCC_HSI_ON;
  RCC_OscInitStruct.HSICalibrationValue = RCC_HSICALIBRATION_DEFAULT;
  RCC_OscInitStruct.LSIState = RCC_LSI_ON;
  RCC_OscInitStruct.PLL.PLLState = RCC_PLL_ON;
 8000758:	2402      	movs	r4, #2
  RCC_ClkInitTypeDef RCC_ClkInitStruct = {0};
 800075a:	4629      	mov	r1, r5
 800075c:	a803      	add	r0, sp, #12
  RCC_OscInitTypeDef RCC_OscInitStruct = {0};
 800075e:	e9cd 5509 	strd	r5, r5, [sp, #36]	@ 0x24
  RCC_ClkInitTypeDef RCC_ClkInitStruct = {0};
 8000762:	f002 f8a3 	bl	80028ac <memset>
  __HAL_RCC_PWR_CLK_ENABLE();
 8000766:	4b20      	ldr	r3, [pc, #128]	@ (80007e8 <SystemClock_Config+0x98>)
  RCC_OscInitStruct.PLL.PLLSource = RCC_PLLSOURCE_HSI;
  RCC_OscInitStruct.PLL.PLLM = 8;
  RCC_OscInitStruct.PLL.PLLN = 216;
 8000768:	2008      	movs	r0, #8
  __HAL_RCC_PWR_CLK_ENABLE();
 800076a:	6c1a      	ldr	r2, [r3, #64]	@ 0x40
 800076c:	f042 5280 	orr.w	r2, r2, #268435456	@ 0x10000000
 8000770:	641a      	str	r2, [r3, #64]	@ 0x40
 8000772:	6c1b      	ldr	r3, [r3, #64]	@ 0x40
 8000774:	f003 5380 	and.w	r3, r3, #268435456	@ 0x10000000
 8000778:	9301      	str	r3, [sp, #4]
 800077a:	9b01      	ldr	r3, [sp, #4]
  __HAL_PWR_VOLTAGESCALING_CONFIG(PWR_REGULATOR_VOLTAGE_SCALE1);
 800077c:	4b1b      	ldr	r3, [pc, #108]	@ (80007ec <SystemClock_Config+0x9c>)
 800077e:	681a      	ldr	r2, [r3, #0]
 8000780:	f442 4240 	orr.w	r2, r2, #49152	@ 0xc000
 8000784:	601a      	str	r2, [r3, #0]
  RCC_OscInitStruct.HSICalibrationValue = RCC_HSICALIBRATION_DEFAULT;
 8000786:	2210      	movs	r2, #16
  __HAL_PWR_VOLTAGESCALING_CONFIG(PWR_REGULATOR_VOLTAGE_SCALE1);
 8000788:	681b      	ldr	r3, [r3, #0]
 800078a:	f403 4340 	and.w	r3, r3, #49152	@ 0xc000
 800078e:	9302      	str	r3, [sp, #8]
 8000790:	9b02      	ldr	r3, [sp, #8]
  RCC_OscInitStruct.OscillatorType = RCC_OSCILLATORTYPE_HSI|RCC_OSCILLATORTYPE_LSI;
 8000792:	230a      	movs	r3, #10
 8000794:	9308      	str	r3, [sp, #32]
  RCC_OscInitStruct.HSICalibrationValue = RCC_HSICALIBRATION_DEFAULT;
 8000796:	2301      	movs	r3, #1
 8000798:	e9cd 320b 	strd	r3, r2, [sp, #44]	@ 0x2c
  RCC_OscInitStruct.LSIState = RCC_LSI_ON;
 800079c:	930d      	str	r3, [sp, #52]	@ 0x34
  RCC_OscInitStruct.PLL.PLLN = 216;
 800079e:	23d8      	movs	r3, #216	@ 0xd8
 80007a0:	e9cd 0310 	strd	r0, r3, [sp, #64]	@ 0x40
  RCC_OscInitStruct.PLL.PLLP = RCC_PLLP_DIV2;
  RCC_OscInitStruct.PLL.PLLQ = 2;
  if (HAL_RCC_OscConfig(&RCC_OscInitStruct) != HAL_OK)
 80007a4:	a808      	add	r0, sp, #32
  RCC_OscInitStruct.PLL.PLLSource = RCC_PLLSOURCE_HSI;
 80007a6:	e9cd 450e 	strd	r4, r5, [sp, #56]	@ 0x38
  RCC_OscInitStruct.PLL.PLLQ = 2;
 80007aa:	e9cd 4412 	strd	r4, r4, [sp, #72]	@ 0x48
  if (HAL_RCC_OscConfig(&RCC_OscInitStruct) != HAL_OK)
 80007ae:	f000 fd2b 	bl	8001208 <HAL_RCC_OscConfig>
 80007b2:	b108      	cbz	r0, 80007b8 <SystemClock_Config+0x68>
  __ASM volatile ("cpsid i" : : : "memory");
 80007b4:	b672      	cpsid	i
void Error_Handler(void)
{
  /* USER CODE BEGIN Error_Handler_Debug */
  /* User can add his own implementation to report the HAL error return state */
  __disable_irq();
  while (1)
 80007b6:	e7fe      	b.n	80007b6 <SystemClock_Config+0x66>
  if (HAL_PWREx_EnableOverDrive() != HAL_OK)
 80007b8:	f000 fcee 	bl	8001198 <HAL_PWREx_EnableOverDrive>
 80007bc:	b108      	cbz	r0, 80007c2 <SystemClock_Config+0x72>
 80007be:	b672      	cpsid	i
  while (1)
 80007c0:	e7fe      	b.n	80007c0 <SystemClock_Config+0x70>
  RCC_ClkInitStruct.ClockType = RCC_CLOCKTYPE_HCLK|RCC_CLOCKTYPE_SYSCLK
 80007c2:	230f      	movs	r3, #15
  RCC_ClkInitStruct.APB2CLKDivider = RCC_HCLK_DIV2;
 80007c4:	f44f 52a0 	mov.w	r2, #5120	@ 0x1400
  RCC_ClkInitStruct.AHBCLKDivider = RCC_SYSCLK_DIV1;
 80007c8:	9005      	str	r0, [sp, #20]
  if (HAL_RCC_ClockConfig(&RCC_ClkInitStruct, FLASH_LATENCY_7) != HAL_OK)
 80007ca:	2107      	movs	r1, #7
 80007cc:	a803      	add	r0, sp, #12
  RCC_ClkInitStruct.SYSCLKSource = RCC_SYSCLKSOURCE_PLLCLK;
 80007ce:	e9cd 3403 	strd	r3, r4, [sp, #12]
  RCC_ClkInitStruct.APB2CLKDivider = RCC_HCLK_DIV2;
 80007d2:	f44f 5380 	mov.w	r3, #4096	@ 0x1000
 80007d6:	e9cd 2306 	strd	r2, r3, [sp, #24]
  if (HAL_RCC_ClockConfig(&RCC_ClkInitStruct, FLASH_LATENCY_7) != HAL_OK)
 80007da:	f000 fefd 	bl	80015d8 <HAL_RCC_ClockConfig>
 80007de:	b108      	cbz	r0, 80007e4 <SystemClock_Config+0x94>
 80007e0:	b672      	cpsid	i
  while (1)
 80007e2:	e7fe      	b.n	80007e2 <SystemClock_Config+0x92>
}
 80007e4:	b015      	add	sp, #84	@ 0x54
 80007e6:	bd30      	pop	{r4, r5, pc}
 80007e8:	40023800 	.word	0x40023800
 80007ec:	40007000 	.word	0x40007000

080007f0 <main>:
{
 80007f0:	b580      	push	{r7, lr}
 80007f2:	b08a      	sub	sp, #40	@ 0x28
  MPU_Region_InitTypeDef MPU_InitStruct = {0};
 80007f4:	2210      	movs	r2, #16
 80007f6:	2100      	movs	r1, #0
  MPU_InitStruct.Size = MPU_REGION_SIZE_1MB;
 80007f8:	f04f 6400 	mov.w	r4, #134217728	@ 0x8000000
  MPU_Region_InitTypeDef MPU_InitStruct = {0};
 80007fc:	a805      	add	r0, sp, #20
  MPU_InitStruct.Enable = MPU_REGION_ENABLE;
 80007fe:	2601      	movs	r6, #1
  MPU_Region_InitTypeDef MPU_InitStruct = {0};
 8000800:	f002 f854 	bl	80028ac <memset>
  GPIO_InitStruct.Pin = USER_LED_Pin;
 8000804:	2702      	movs	r7, #2
  HAL_MPU_Disable();
 8000806:	f000 fb29 	bl	8000e5c <HAL_MPU_Disable>
  MPU_InitStruct.Size = MPU_REGION_SIZE_1MB;
 800080a:	4b50      	ldr	r3, [pc, #320]	@ (800094c <main+0x15c>)
  HAL_MPU_ConfigRegion(&MPU_InitStruct);
 800080c:	a805      	add	r0, sp, #20
  MPU_InitStruct.Enable = MPU_REGION_ENABLE;
 800080e:	f8ad 6014 	strh.w	r6, [sp, #20]
  MPU_InitStruct.Size = MPU_REGION_SIZE_1MB;
 8000812:	e9cd 4306 	strd	r4, r3, [sp, #24]
  MPU_InitStruct.DisableExec = MPU_INSTRUCTION_ACCESS_ENABLE;
 8000816:	f44f 7380 	mov.w	r3, #256	@ 0x100
  GPIO_InitStruct.Pull = GPIO_NOPULL;
 800081a:	2400      	movs	r4, #0
  MPU_InitStruct.DisableExec = MPU_INSTRUCTION_ACCESS_ENABLE;
 800081c:	9308      	str	r3, [sp, #32]
  HAL_MPU_ConfigRegion(&MPU_InitStruct);
 800081e:	f000 fb3b 	bl	8000e98 <HAL_MPU_ConfigRegion>
  HAL_MPU_Enable(MPU_PRIVILEGED_DEFAULT);
 8000822:	2004      	movs	r0, #4
 8000824:	f000 fb28 	bl	8000e78 <HAL_MPU_Enable>
  HAL_Init();
 8000828:	f000 fa90 	bl	8000d4c <HAL_Init>
  SystemClock_Config();
 800082c:	f7ff ff90 	bl	8000750 <SystemClock_Config>
  GPIO_InitTypeDef GPIO_InitStruct = {0};
 8000830:	2214      	movs	r2, #20
 8000832:	2100      	movs	r1, #0
 8000834:	eb0d 0002 	add.w	r0, sp, r2
 8000838:	f002 f838 	bl	80028ac <memset>
  __HAL_RCC_GPIOA_CLK_ENABLE();
 800083c:	4b44      	ldr	r3, [pc, #272]	@ (8000950 <main+0x160>)
  HAL_GPIO_WritePin(USER_LED_GPIO_Port, USER_LED_Pin, GPIO_PIN_RESET);
 800083e:	2102      	movs	r1, #2
 8000840:	4844      	ldr	r0, [pc, #272]	@ (8000954 <main+0x164>)
  __HAL_RCC_GPIOA_CLK_ENABLE();
 8000842:	6b1a      	ldr	r2, [r3, #48]	@ 0x30
 8000844:	4332      	orrs	r2, r6
 8000846:	631a      	str	r2, [r3, #48]	@ 0x30
 8000848:	6b1a      	ldr	r2, [r3, #48]	@ 0x30
 800084a:	4032      	ands	r2, r6
 800084c:	9202      	str	r2, [sp, #8]
 800084e:	9a02      	ldr	r2, [sp, #8]
  __HAL_RCC_GPIOB_CLK_ENABLE();
 8000850:	6b1a      	ldr	r2, [r3, #48]	@ 0x30
 8000852:	f042 0202 	orr.w	r2, r2, #2
 8000856:	631a      	str	r2, [r3, #48]	@ 0x30
 8000858:	6b1a      	ldr	r2, [r3, #48]	@ 0x30
 800085a:	f002 0202 	and.w	r2, r2, #2
 800085e:	9203      	str	r2, [sp, #12]
 8000860:	9a03      	ldr	r2, [sp, #12]
  __HAL_RCC_GPIOI_CLK_ENABLE();
 8000862:	6b1a      	ldr	r2, [r3, #48]	@ 0x30
 8000864:	f442 7280 	orr.w	r2, r2, #256	@ 0x100
 8000868:	631a      	str	r2, [r3, #48]	@ 0x30
  HAL_GPIO_WritePin(USER_LED_GPIO_Port, USER_LED_Pin, GPIO_PIN_RESET);
 800086a:	2200      	movs	r2, #0
  __HAL_RCC_GPIOI_CLK_ENABLE();
 800086c:	6b1b      	ldr	r3, [r3, #48]	@ 0x30
 800086e:	f403 7380 	and.w	r3, r3, #256	@ 0x100
 8000872:	9304      	str	r3, [sp, #16]
 8000874:	9b04      	ldr	r3, [sp, #16]
  HAL_GPIO_WritePin(USER_LED_GPIO_Port, USER_LED_Pin, GPIO_PIN_RESET);
 8000876:	f000 fc81 	bl	800117c <HAL_GPIO_WritePin>
  HAL_GPIO_Init(USER_LED_GPIO_Port, &GPIO_InitStruct);
 800087a:	a905      	add	r1, sp, #20
 800087c:	4835      	ldr	r0, [pc, #212]	@ (8000954 <main+0x164>)
  GPIO_InitStruct.Mode = GPIO_MODE_OUTPUT_PP;
 800087e:	e9cd 7605 	strd	r7, r6, [sp, #20]
  GPIO_InitStruct.Speed = GPIO_SPEED_FREQ_LOW;
 8000882:	e9cd 4407 	strd	r4, r4, [sp, #28]
  HAL_GPIO_Init(USER_LED_GPIO_Port, &GPIO_InitStruct);
 8000886:	f000 fb95 	bl	8000fb4 <HAL_GPIO_Init>
  hcrc.Instance = CRC;
 800088a:	4833      	ldr	r0, [pc, #204]	@ (8000958 <main+0x168>)
 800088c:	4b33      	ldr	r3, [pc, #204]	@ (800095c <main+0x16c>)
  hcrc.Init.DefaultPolynomialUse = DEFAULT_POLYNOMIAL_ENABLE;
 800088e:	8084      	strh	r4, [r0, #4]
  hcrc.Instance = CRC;
 8000890:	6003      	str	r3, [r0, #0]
  hcrc.InputDataFormat = CRC_INPUTDATA_FORMAT_BYTES;
 8000892:	6206      	str	r6, [r0, #32]
  hcrc.Init.OutputDataInversionMode = CRC_OUTPUTDATA_INVERSION_DISABLE;
 8000894:	e9c0 4405 	strd	r4, r4, [r0, #20]
  if (HAL_CRC_Init(&hcrc) != HAL_OK)
 8000898:	f000 fb2a 	bl	8000ef0 <HAL_CRC_Init>
 800089c:	4605      	mov	r5, r0
 800089e:	b108      	cbz	r0, 80008a4 <main+0xb4>
 80008a0:	b672      	cpsid	i
  while (1)
 80008a2:	e7fe      	b.n	80008a2 <main+0xb2>
  RTC_TimeTypeDef sTime = {0};
 80008a4:	2214      	movs	r2, #20
 80008a6:	4601      	mov	r1, r0
  hrtc.Instance = RTC;
 80008a8:	4c2d      	ldr	r4, [pc, #180]	@ (8000960 <main+0x170>)
  RTC_TimeTypeDef sTime = {0};
 80008aa:	eb0d 0002 	add.w	r0, sp, r2
 80008ae:	f001 fffd 	bl	80028ac <memset>
  hrtc.Instance = RTC;
 80008b2:	4b2c      	ldr	r3, [pc, #176]	@ (8000964 <main+0x174>)
  hrtc.Init.SynchPrediv = 255;
 80008b4:	207f      	movs	r0, #127	@ 0x7f
  RTC_DateTypeDef sDate = {0};
 80008b6:	9501      	str	r5, [sp, #4]
  hrtc.Init.OutPutType = RTC_OUTPUT_TYPE_OPENDRAIN;
 80008b8:	61a5      	str	r5, [r4, #24]
  hrtc.Init.HourFormat = RTC_HOURFORMAT_24;
 80008ba:	e9c4 3500 	strd	r3, r5, [r4]
  hrtc.Init.SynchPrediv = 255;
 80008be:	23ff      	movs	r3, #255	@ 0xff
 80008c0:	e9c4 0302 	strd	r0, r3, [r4, #8]
  if (HAL_RTC_Init(&hrtc) != HAL_OK)
 80008c4:	4620      	mov	r0, r4
  hrtc.Init.OutPutPolarity = RTC_OUTPUT_POLARITY_HIGH;
 80008c6:	e9c4 5504 	strd	r5, r5, [r4, #16]
  if (HAL_RTC_Init(&hrtc) != HAL_OK)
 80008ca:	f001 fa1a 	bl	8001d02 <HAL_RTC_Init>
 80008ce:	b108      	cbz	r0, 80008d4 <main+0xe4>
 80008d0:	b672      	cpsid	i
  while (1)
 80008d2:	e7fe      	b.n	80008d2 <main+0xe2>
  sTime.Hours = 0x0;
 80008d4:	f8ad 0014 	strh.w	r0, [sp, #20]
  if (HAL_RTC_SetTime(&hrtc, &sTime, RTC_FORMAT_BCD) != HAL_OK)
 80008d8:	4632      	mov	r2, r6
  sTime.Seconds = 0x0;
 80008da:	f88d 0016 	strb.w	r0, [sp, #22]
  if (HAL_RTC_SetTime(&hrtc, &sTime, RTC_FORMAT_BCD) != HAL_OK)
 80008de:	a905      	add	r1, sp, #20
  sTime.StoreOperation = RTC_STOREOPERATION_RESET;
 80008e0:	e9cd 0008 	strd	r0, r0, [sp, #32]
  if (HAL_RTC_SetTime(&hrtc, &sTime, RTC_FORMAT_BCD) != HAL_OK)
 80008e4:	4620      	mov	r0, r4
 80008e6:	f001 fa5f 	bl	8001da8 <HAL_RTC_SetTime>
 80008ea:	b108      	cbz	r0, 80008f0 <main+0x100>
 80008ec:	b672      	cpsid	i
  while (1)
 80008ee:	e7fe      	b.n	80008ee <main+0xfe>
  sDate.WeekDay = RTC_WEEKDAY_MONDAY;
 80008f0:	4b1d      	ldr	r3, [pc, #116]	@ (8000968 <main+0x178>)
  if (HAL_RTC_SetDate(&hrtc, &sDate, RTC_FORMAT_BCD) != HAL_OK)
 80008f2:	4632      	mov	r2, r6
 80008f4:	a901      	add	r1, sp, #4
 80008f6:	4620      	mov	r0, r4
  sDate.WeekDay = RTC_WEEKDAY_MONDAY;
 80008f8:	9301      	str	r3, [sp, #4]
  if (HAL_RTC_SetDate(&hrtc, &sDate, RTC_FORMAT_BCD) != HAL_OK)
 80008fa:	f001 faae 	bl	8001e5a <HAL_RTC_SetDate>
 80008fe:	4603      	mov	r3, r0
 8000900:	b108      	cbz	r0, 8000906 <main+0x116>
 8000902:	b672      	cpsid	i
  while (1)
 8000904:	e7fe      	b.n	8000904 <main+0x114>
  huart1.Instance = USART1;
 8000906:	4819      	ldr	r0, [pc, #100]	@ (800096c <main+0x17c>)
  huart1.Init.BaudRate = 115200;
 8000908:	f44f 32e1 	mov.w	r2, #115200	@ 0x1c200
 800090c:	4918      	ldr	r1, [pc, #96]	@ (8000970 <main+0x180>)
  huart1.Init.Parity = UART_PARITY_NONE;
 800090e:	6103      	str	r3, [r0, #16]
  huart1.AdvancedInit.AdvFeatureInit = UART_ADVFEATURE_NO_INIT;
 8000910:	6243      	str	r3, [r0, #36]	@ 0x24
  huart1.Init.BaudRate = 115200;
 8000912:	e9c0 1200 	strd	r1, r2, [r0]
  huart1.Init.Mode = UART_MODE_TX_RX;
 8000916:	220c      	movs	r2, #12
  huart1.Init.StopBits = UART_STOPBITS_1;
 8000918:	e9c0 3302 	strd	r3, r3, [r0, #8]
  huart1.Init.HwFlowCtl = UART_HWCONTROL_NONE;
 800091c:	e9c0 2305 	strd	r2, r3, [r0, #20]
  huart1.Init.OneBitSampling = UART_ONE_BIT_SAMPLE_DISABLE;
 8000920:	e9c0 3307 	strd	r3, r3, [r0, #28]
  if (HAL_UART_Init(&huart1) != HAL_OK)
 8000924:	f001 fcdc 	bl	80022e0 <HAL_UART_Init>
 8000928:	b108      	cbz	r0, 800092e <main+0x13e>
 800092a:	b672      	cpsid	i
  while (1)
 800092c:	e7fe      	b.n	800092c <main+0x13c>
  printf("Starting Bootloader Version-(%d,%d)\r\n",BL_Version[0],BL_Version[1]);
 800092e:	463a      	mov	r2, r7
 8000930:	4631      	mov	r1, r6
 8000932:	4810      	ldr	r0, [pc, #64]	@ (8000974 <main+0x184>)
 8000934:	f001 fe72 	bl	800261c <iprintf>
    printf("Bypassing verification... Jumping to App!\r\n");
 8000938:	480f      	ldr	r0, [pc, #60]	@ (8000978 <main+0x188>)
 800093a:	f001 fed7 	bl	80026ec <puts>
    Bootloader_JumpToApp();
 800093e:	f7ff feb7 	bl	80006b0 <Bootloader_JumpToApp>
    printf("Jump Failed! (No valid app found at 0x08010000)\r\n");
 8000942:	480e      	ldr	r0, [pc, #56]	@ (800097c <main+0x18c>)
 8000944:	f001 fed2 	bl	80026ec <puts>
  while (1)
 8000948:	e7fe      	b.n	8000948 <main+0x158>
 800094a:	bf00      	nop
 800094c:	02000013 	.word	0x02000013
 8000950:	40023800 	.word	0x40023800
 8000954:	40022000 	.word	0x40022000
 8000958:	2000012c 	.word	0x2000012c
 800095c:	40023000 	.word	0x40023000
 8000960:	2000010c 	.word	0x2000010c
 8000964:	40002800 	.word	0x40002800
 8000968:	00010101 	.word	0x00010101
 800096c:	20000084 	.word	0x20000084
 8000970:	40011000 	.word	0x40011000
 8000974:	0800326c 	.word	0x0800326c
 8000978:	08003292 	.word	0x08003292
 800097c:	080032bd 	.word	0x080032bd

08000980 <_write>:
{
 8000980:	4610      	mov	r0, r2
 8000982:	1e4b      	subs	r3, r1, #1
 8000984:	4a0b      	ldr	r2, [pc, #44]	@ (80009b4 <_write+0x34>)
    for (int i = 0; i < len; i++)
 8000986:	f1c1 0101 	rsb	r1, r1, #1
{
 800098a:	b530      	push	{r4, r5, lr}
            USART1->TDR = '\r'; // Send Carriage Return
 800098c:	250d      	movs	r5, #13
    for (int i = 0; i < len; i++)
 800098e:	18cc      	adds	r4, r1, r3
 8000990:	42a0      	cmp	r0, r4
 8000992:	dc00      	bgt.n	8000996 <_write+0x16>
}
 8000994:	bd30      	pop	{r4, r5, pc}
        if (ptr[i] == '\n')
 8000996:	785c      	ldrb	r4, [r3, #1]
 8000998:	2c0a      	cmp	r4, #10
 800099a:	d103      	bne.n	80009a4 <_write+0x24>
            while (!(USART1->ISR & USART_ISR_TXE));
 800099c:	69d4      	ldr	r4, [r2, #28]
 800099e:	0624      	lsls	r4, r4, #24
 80009a0:	d5fc      	bpl.n	800099c <_write+0x1c>
            USART1->TDR = '\r'; // Send Carriage Return
 80009a2:	6295      	str	r5, [r2, #40]	@ 0x28
        while (!(USART1->ISR & USART_ISR_TXE));
 80009a4:	69d4      	ldr	r4, [r2, #28]
 80009a6:	0624      	lsls	r4, r4, #24
 80009a8:	d5fc      	bpl.n	80009a4 <_write+0x24>
        USART1->TDR = (uint8_t)ptr[i];
 80009aa:	f813 4f01 	ldrb.w	r4, [r3, #1]!
 80009ae:	6294      	str	r4, [r2, #40]	@ 0x28
    for (int i = 0; i < len; i++)
 80009b0:	e7ed      	b.n	800098e <_write+0xe>
 80009b2:	bf00      	nop
 80009b4:	40011000 	.word	0x40011000

080009b8 <print_hardfault_reason>:
void print_hardfault_reason(void) {
 80009b8:	b51f      	push	{r0, r1, r2, r3, r4, lr}
    volatile uint32_t cfsr  = SCB->CFSR;
 80009ba:	4b2f      	ldr	r3, [pc, #188]	@ (8000a78 <print_hardfault_reason+0xc0>)
    printf("\r\n--- Hard Fault Detected ---\r\n");
 80009bc:	482f      	ldr	r0, [pc, #188]	@ (8000a7c <print_hardfault_reason+0xc4>)
    volatile uint32_t cfsr  = SCB->CFSR;
 80009be:	6a9a      	ldr	r2, [r3, #40]	@ 0x28
 80009c0:	9200      	str	r2, [sp, #0]
    volatile uint32_t hfsr  = SCB->HFSR;
 80009c2:	6ada      	ldr	r2, [r3, #44]	@ 0x2c
 80009c4:	9201      	str	r2, [sp, #4]
    volatile uint32_t mmfar = SCB->MMFAR;
 80009c6:	6b5a      	ldr	r2, [r3, #52]	@ 0x34
 80009c8:	9202      	str	r2, [sp, #8]
    volatile uint32_t bfar  = SCB->BFAR;
 80009ca:	6b9b      	ldr	r3, [r3, #56]	@ 0x38
 80009cc:	9303      	str	r3, [sp, #12]
    printf("\r\n--- Hard Fault Detected ---\r\n");
 80009ce:	f001 fe8d 	bl	80026ec <puts>
    printf("CFSR:  0x%08lX\r\n", cfsr);
 80009d2:	9900      	ldr	r1, [sp, #0]
 80009d4:	482a      	ldr	r0, [pc, #168]	@ (8000a80 <print_hardfault_reason+0xc8>)
 80009d6:	f001 fe21 	bl	800261c <iprintf>
    printf("HFSR:  0x%08lX\r\n", hfsr);
 80009da:	9901      	ldr	r1, [sp, #4]
 80009dc:	4829      	ldr	r0, [pc, #164]	@ (8000a84 <print_hardfault_reason+0xcc>)
 80009de:	f001 fe1d 	bl	800261c <iprintf>
    printf("MMFAR: 0x%08lX\r\n", mmfar);
 80009e2:	9902      	ldr	r1, [sp, #8]
 80009e4:	4828      	ldr	r0, [pc, #160]	@ (8000a88 <print_hardfault_reason+0xd0>)
 80009e6:	f001 fe19 	bl	800261c <iprintf>
    printf("BFAR:  0x%08lX\r\n", bfar);
 80009ea:	9903      	ldr	r1, [sp, #12]
 80009ec:	4827      	ldr	r0, [pc, #156]	@ (8000a8c <print_hardfault_reason+0xd4>)
 80009ee:	f001 fe15 	bl	800261c <iprintf>
    if (cfsr & (1 << 24)) printf(" -> Unaligned Access UsageFault\r\n");
 80009f2:	9b00      	ldr	r3, [sp, #0]
 80009f4:	01da      	lsls	r2, r3, #7
 80009f6:	d502      	bpl.n	80009fe <print_hardfault_reason+0x46>
 80009f8:	4825      	ldr	r0, [pc, #148]	@ (8000a90 <print_hardfault_reason+0xd8>)
 80009fa:	f001 fe77 	bl	80026ec <puts>
    if (cfsr & (1 << 25)) printf(" -> Divide by Zero UsageFault\r\n");
 80009fe:	9b00      	ldr	r3, [sp, #0]
 8000a00:	019b      	lsls	r3, r3, #6
 8000a02:	d502      	bpl.n	8000a0a <print_hardfault_reason+0x52>
 8000a04:	4823      	ldr	r0, [pc, #140]	@ (8000a94 <print_hardfault_reason+0xdc>)
 8000a06:	f001 fe71 	bl	80026ec <puts>
    if (cfsr & (1 << 18)) printf(" -> Integrity Check Error\r\n");
 8000a0a:	9b00      	ldr	r3, [sp, #0]
 8000a0c:	0358      	lsls	r0, r3, #13
 8000a0e:	d502      	bpl.n	8000a16 <print_hardfault_reason+0x5e>
 8000a10:	4821      	ldr	r0, [pc, #132]	@ (8000a98 <print_hardfault_reason+0xe0>)
 8000a12:	f001 fe6b 	bl	80026ec <puts>
    if (cfsr & (1 << 17)) printf(" -> Invalid PC Load\r\n");
 8000a16:	9b00      	ldr	r3, [sp, #0]
 8000a18:	0399      	lsls	r1, r3, #14
 8000a1a:	d502      	bpl.n	8000a22 <print_hardfault_reason+0x6a>
 8000a1c:	481f      	ldr	r0, [pc, #124]	@ (8000a9c <print_hardfault_reason+0xe4>)
 8000a1e:	f001 fe65 	bl	80026ec <puts>
    if (cfsr & (1 << 16)) printf(" -> Invalid State\r\n");
 8000a22:	9b00      	ldr	r3, [sp, #0]
 8000a24:	03da      	lsls	r2, r3, #15
 8000a26:	d502      	bpl.n	8000a2e <print_hardfault_reason+0x76>
 8000a28:	481d      	ldr	r0, [pc, #116]	@ (8000aa0 <print_hardfault_reason+0xe8>)
 8000a2a:	f001 fe5f 	bl	80026ec <puts>
    if (cfsr & (1 << 0))  printf(" -> Instruction Access Violation (MPU)\r\n");
 8000a2e:	9b00      	ldr	r3, [sp, #0]
 8000a30:	07db      	lsls	r3, r3, #31
 8000a32:	d502      	bpl.n	8000a3a <print_hardfault_reason+0x82>
 8000a34:	481b      	ldr	r0, [pc, #108]	@ (8000aa4 <print_hardfault_reason+0xec>)
 8000a36:	f001 fe59 	bl	80026ec <puts>
    if (cfsr & (1 << 1))  printf(" -> Data Access Violation (MPU)\r\n");
 8000a3a:	9b00      	ldr	r3, [sp, #0]
 8000a3c:	0798      	lsls	r0, r3, #30
 8000a3e:	d502      	bpl.n	8000a46 <print_hardfault_reason+0x8e>
 8000a40:	4819      	ldr	r0, [pc, #100]	@ (8000aa8 <print_hardfault_reason+0xf0>)
 8000a42:	f001 fe53 	bl	80026ec <puts>
    if (cfsr & (1 << 8))  printf(" -> Instruction Bus Error\r\n");
 8000a46:	9b00      	ldr	r3, [sp, #0]
 8000a48:	05d9      	lsls	r1, r3, #23
 8000a4a:	d502      	bpl.n	8000a52 <print_hardfault_reason+0x9a>
 8000a4c:	4817      	ldr	r0, [pc, #92]	@ (8000aac <print_hardfault_reason+0xf4>)
 8000a4e:	f001 fe4d 	bl	80026ec <puts>
    if (cfsr & (1 << 9))  printf(" -> Precise Data Bus Error\r\n");
 8000a52:	9b00      	ldr	r3, [sp, #0]
 8000a54:	059a      	lsls	r2, r3, #22
 8000a56:	d502      	bpl.n	8000a5e <print_hardfault_reason+0xa6>
 8000a58:	4815      	ldr	r0, [pc, #84]	@ (8000ab0 <print_hardfault_reason+0xf8>)
 8000a5a:	f001 fe47 	bl	80026ec <puts>
    if (cfsr & (1 << 15)) printf(" -> BFAR Address Valid: 0x%08lX\r\n", bfar);
 8000a5e:	9b00      	ldr	r3, [sp, #0]
 8000a60:	041b      	lsls	r3, r3, #16
 8000a62:	d506      	bpl.n	8000a72 <print_hardfault_reason+0xba>
 8000a64:	9903      	ldr	r1, [sp, #12]
 8000a66:	4813      	ldr	r0, [pc, #76]	@ (8000ab4 <print_hardfault_reason+0xfc>)
}
 8000a68:	b005      	add	sp, #20
 8000a6a:	f85d eb04 	ldr.w	lr, [sp], #4
    if (cfsr & (1 << 15)) printf(" -> BFAR Address Valid: 0x%08lX\r\n", bfar);
 8000a6e:	f001 bdd5 	b.w	800261c <iprintf>
}
 8000a72:	b005      	add	sp, #20
 8000a74:	f85d fb04 	ldr.w	pc, [sp], #4
 8000a78:	e000ed00 	.word	0xe000ed00
 8000a7c:	080032ee 	.word	0x080032ee
 8000a80:	0800330d 	.word	0x0800330d
 8000a84:	0800331e 	.word	0x0800331e
 8000a88:	0800332f 	.word	0x0800332f
 8000a8c:	08003340 	.word	0x08003340
 8000a90:	08003351 	.word	0x08003351
 8000a94:	08003372 	.word	0x08003372
 8000a98:	08003391 	.word	0x08003391
 8000a9c:	080033ac 	.word	0x080033ac
 8000aa0:	080033c1 	.word	0x080033c1
 8000aa4:	080033d4 	.word	0x080033d4
 8000aa8:	080033fc 	.word	0x080033fc
 8000aac:	0800341d 	.word	0x0800341d
 8000ab0:	08003438 	.word	0x08003438
 8000ab4:	08003454 	.word	0x08003454

08000ab8 <Error_Handler>:
 8000ab8:	b672      	cpsid	i
  while (1)
 8000aba:	e7fe      	b.n	8000aba <Error_Handler+0x2>

08000abc <HAL_MspInit>:

  /* USER CODE BEGIN MspInit 0 */

  /* USER CODE END MspInit 0 */

  __HAL_RCC_PWR_CLK_ENABLE();
 8000abc:	4b0a      	ldr	r3, [pc, #40]	@ (8000ae8 <HAL_MspInit+0x2c>)
{
 8000abe:	b082      	sub	sp, #8
  __HAL_RCC_PWR_CLK_ENABLE();
 8000ac0:	6c1a      	ldr	r2, [r3, #64]	@ 0x40
 8000ac2:	f042 5280 	orr.w	r2, r2, #268435456	@ 0x10000000
 8000ac6:	641a      	str	r2, [r3, #64]	@ 0x40
 8000ac8:	6c1a      	ldr	r2, [r3, #64]	@ 0x40
 8000aca:	f002 5280 	and.w	r2, r2, #268435456	@ 0x10000000
 8000ace:	9200      	str	r2, [sp, #0]
 8000ad0:	9a00      	ldr	r2, [sp, #0]
  __HAL_RCC_SYSCFG_CLK_ENABLE();
 8000ad2:	6c5a      	ldr	r2, [r3, #68]	@ 0x44
 8000ad4:	f442 4280 	orr.w	r2, r2, #16384	@ 0x4000
 8000ad8:	645a      	str	r2, [r3, #68]	@ 0x44
 8000ada:	6c5b      	ldr	r3, [r3, #68]	@ 0x44
 8000adc:	f403 4380 	and.w	r3, r3, #16384	@ 0x4000
 8000ae0:	9301      	str	r3, [sp, #4]
 8000ae2:	9b01      	ldr	r3, [sp, #4]
  /* System interrupt init*/

  /* USER CODE BEGIN MspInit 1 */

  /* USER CODE END MspInit 1 */
}
 8000ae4:	b002      	add	sp, #8
 8000ae6:	4770      	bx	lr
 8000ae8:	40023800 	.word	0x40023800

08000aec <HAL_CRC_MspInit>:
  * @param hcrc: CRC handle pointer
  * @retval None
  */
void HAL_CRC_MspInit(CRC_HandleTypeDef* hcrc)
{
  if(hcrc->Instance==CRC)
 8000aec:	6802      	ldr	r2, [r0, #0]
{
 8000aee:	b082      	sub	sp, #8
  if(hcrc->Instance==CRC)
 8000af0:	4b08      	ldr	r3, [pc, #32]	@ (8000b14 <HAL_CRC_MspInit+0x28>)
 8000af2:	429a      	cmp	r2, r3
 8000af4:	d10b      	bne.n	8000b0e <HAL_CRC_MspInit+0x22>
  {
    /* USER CODE BEGIN CRC_MspInit 0 */

    /* USER CODE END CRC_MspInit 0 */
    /* Peripheral clock enable */
    __HAL_RCC_CRC_CLK_ENABLE();
 8000af6:	f8d3 2830 	ldr.w	r2, [r3, #2096]	@ 0x830
 8000afa:	f503 6300 	add.w	r3, r3, #2048	@ 0x800
 8000afe:	f442 5280 	orr.w	r2, r2, #4096	@ 0x1000
 8000b02:	631a      	str	r2, [r3, #48]	@ 0x30
 8000b04:	6b1b      	ldr	r3, [r3, #48]	@ 0x30
 8000b06:	f403 5380 	and.w	r3, r3, #4096	@ 0x1000
 8000b0a:	9301      	str	r3, [sp, #4]
 8000b0c:	9b01      	ldr	r3, [sp, #4]

    /* USER CODE END CRC_MspInit 1 */

  }

}
 8000b0e:	b002      	add	sp, #8
 8000b10:	4770      	bx	lr
 8000b12:	bf00      	nop
 8000b14:	40023000 	.word	0x40023000

08000b18 <HAL_RTC_MspInit>:
  * This function configures the hardware resources used in this example
  * @param hrtc: RTC handle pointer
  * @retval None
  */
void HAL_RTC_MspInit(RTC_HandleTypeDef* hrtc)
{
 8000b18:	b510      	push	{r4, lr}
 8000b1a:	b0a2      	sub	sp, #136	@ 0x88
 8000b1c:	4604      	mov	r4, r0
  RCC_PeriphCLKInitTypeDef PeriphClkInitStruct = {0};
 8000b1e:	2284      	movs	r2, #132	@ 0x84
 8000b20:	2100      	movs	r1, #0
 8000b22:	a801      	add	r0, sp, #4
 8000b24:	f001 fec2 	bl	80028ac <memset>
  if(hrtc->Instance==RTC)
 8000b28:	6822      	ldr	r2, [r4, #0]
 8000b2a:	4b0a      	ldr	r3, [pc, #40]	@ (8000b54 <HAL_RTC_MspInit+0x3c>)
 8000b2c:	429a      	cmp	r2, r3
 8000b2e:	d10f      	bne.n	8000b50 <HAL_RTC_MspInit+0x38>

    /* USER CODE END RTC_MspInit 0 */

  /** Initializes the peripherals clock
  */
    PeriphClkInitStruct.PeriphClockSelection = RCC_PERIPHCLK_RTC;
 8000b30:	2320      	movs	r3, #32
    PeriphClkInitStruct.RTCClockSelection = RCC_RTCCLKSOURCE_LSI;
    if (HAL_RCCEx_PeriphCLKConfig(&PeriphClkInitStruct) != HAL_OK)
 8000b32:	a801      	add	r0, sp, #4
    PeriphClkInitStruct.PeriphClockSelection = RCC_PERIPHCLK_RTC;
 8000b34:	9301      	str	r3, [sp, #4]
    PeriphClkInitStruct.RTCClockSelection = RCC_RTCCLKSOURCE_LSI;
 8000b36:	f44f 7300 	mov.w	r3, #512	@ 0x200
 8000b3a:	930d      	str	r3, [sp, #52]	@ 0x34
    if (HAL_RCCEx_PeriphCLKConfig(&PeriphClkInitStruct) != HAL_OK)
 8000b3c:	f000 fe0a 	bl	8001754 <HAL_RCCEx_PeriphCLKConfig>
 8000b40:	b108      	cbz	r0, 8000b46 <HAL_RTC_MspInit+0x2e>
    {
      Error_Handler();
 8000b42:	f7ff ffb9 	bl	8000ab8 <Error_Handler>
    }

    /* Peripheral clock enable */
    __HAL_RCC_RTC_ENABLE();
 8000b46:	4a04      	ldr	r2, [pc, #16]	@ (8000b58 <HAL_RTC_MspInit+0x40>)
 8000b48:	6f13      	ldr	r3, [r2, #112]	@ 0x70
 8000b4a:	f443 4300 	orr.w	r3, r3, #32768	@ 0x8000
 8000b4e:	6713      	str	r3, [r2, #112]	@ 0x70

    /* USER CODE END RTC_MspInit 1 */

  }

}
 8000b50:	b022      	add	sp, #136	@ 0x88
 8000b52:	bd10      	pop	{r4, pc}
 8000b54:	40002800 	.word	0x40002800
 8000b58:	40023800 	.word	0x40023800

08000b5c <HAL_UART_MspInit>:
  * This function configures the hardware resources used in this example
  * @param huart: UART handle pointer
  * @retval None
  */
void HAL_UART_MspInit(UART_HandleTypeDef* huart)
{
 8000b5c:	b5f0      	push	{r4, r5, r6, r7, lr}
 8000b5e:	b0ab      	sub	sp, #172	@ 0xac
 8000b60:	4604      	mov	r4, r0
  GPIO_InitTypeDef GPIO_InitStruct = {0};
 8000b62:	2214      	movs	r2, #20
 8000b64:	2100      	movs	r1, #0
 8000b66:	a804      	add	r0, sp, #16
 8000b68:	f001 fea0 	bl	80028ac <memset>
  RCC_PeriphCLKInitTypeDef PeriphClkInitStruct = {0};
 8000b6c:	2284      	movs	r2, #132	@ 0x84
 8000b6e:	2100      	movs	r1, #0
 8000b70:	a809      	add	r0, sp, #36	@ 0x24
 8000b72:	f001 fe9b 	bl	80028ac <memset>
  if(huart->Instance==USART1)
 8000b76:	6822      	ldr	r2, [r4, #0]
 8000b78:	4b20      	ldr	r3, [pc, #128]	@ (8000bfc <HAL_UART_MspInit+0xa0>)
 8000b7a:	429a      	cmp	r2, r3
 8000b7c:	d13c      	bne.n	8000bf8 <HAL_UART_MspInit+0x9c>

    /* USER CODE END USART1_MspInit 0 */

  /** Initializes the peripherals clock
  */
    PeriphClkInitStruct.PeriphClockSelection = RCC_PERIPHCLK_USART1;
 8000b7e:	2340      	movs	r3, #64	@ 0x40
    PeriphClkInitStruct.Usart1ClockSelection = RCC_USART1CLKSOURCE_PCLK2;
    if (HAL_RCCEx_PeriphCLKConfig(&PeriphClkInitStruct) != HAL_OK)
 8000b80:	a809      	add	r0, sp, #36	@ 0x24
    PeriphClkInitStruct.PeriphClockSelection = RCC_PERIPHCLK_USART1;
 8000b82:	9309      	str	r3, [sp, #36]	@ 0x24
    if (HAL_RCCEx_PeriphCLKConfig(&PeriphClkInitStruct) != HAL_OK)
 8000b84:	f000 fde6 	bl	8001754 <HAL_RCCEx_PeriphCLKConfig>
 8000b88:	b108      	cbz	r0, 8000b8e <HAL_UART_MspInit+0x32>
    {
      Error_Handler();
 8000b8a:	f7ff ff95 	bl	8000ab8 <Error_Handler>
    }

    /* Peripheral clock enable */
    __HAL_RCC_USART1_CLK_ENABLE();
 8000b8e:	4b1c      	ldr	r3, [pc, #112]	@ (8000c00 <HAL_UART_MspInit+0xa4>)
    /**USART1 GPIO Configuration
    PB7     ------> USART1_RX
    PA9     ------> USART1_TX
    */
    GPIO_InitStruct.Pin = GPIO_PIN_7;
    GPIO_InitStruct.Mode = GPIO_MODE_AF_PP;
 8000b90:	2702      	movs	r7, #2
    GPIO_InitStruct.Pull = GPIO_NOPULL;
    GPIO_InitStruct.Speed = GPIO_SPEED_FREQ_VERY_HIGH;
 8000b92:	2600      	movs	r6, #0
 8000b94:	2503      	movs	r5, #3
    __HAL_RCC_USART1_CLK_ENABLE();
 8000b96:	6c5a      	ldr	r2, [r3, #68]	@ 0x44
    GPIO_InitStruct.Alternate = GPIO_AF7_USART1;
 8000b98:	2407      	movs	r4, #7
    HAL_GPIO_Init(GPIOB, &GPIO_InitStruct);
 8000b9a:	a904      	add	r1, sp, #16
 8000b9c:	4819      	ldr	r0, [pc, #100]	@ (8000c04 <HAL_UART_MspInit+0xa8>)
    __HAL_RCC_USART1_CLK_ENABLE();
 8000b9e:	f042 0210 	orr.w	r2, r2, #16
 8000ba2:	645a      	str	r2, [r3, #68]	@ 0x44
 8000ba4:	6c5a      	ldr	r2, [r3, #68]	@ 0x44
 8000ba6:	f002 0210 	and.w	r2, r2, #16
 8000baa:	9201      	str	r2, [sp, #4]
 8000bac:	9a01      	ldr	r2, [sp, #4]
    __HAL_RCC_GPIOB_CLK_ENABLE();
 8000bae:	6b1a      	ldr	r2, [r3, #48]	@ 0x30
 8000bb0:	f042 0202 	orr.w	r2, r2, #2
 8000bb4:	631a      	str	r2, [r3, #48]	@ 0x30
 8000bb6:	6b1a      	ldr	r2, [r3, #48]	@ 0x30
 8000bb8:	f002 0202 	and.w	r2, r2, #2
 8000bbc:	9202      	str	r2, [sp, #8]
 8000bbe:	9a02      	ldr	r2, [sp, #8]
    __HAL_RCC_GPIOA_CLK_ENABLE();
 8000bc0:	6b1a      	ldr	r2, [r3, #48]	@ 0x30
 8000bc2:	f042 0201 	orr.w	r2, r2, #1
 8000bc6:	631a      	str	r2, [r3, #48]	@ 0x30
 8000bc8:	6b1b      	ldr	r3, [r3, #48]	@ 0x30
    GPIO_InitStruct.Alternate = GPIO_AF7_USART1;
 8000bca:	9408      	str	r4, [sp, #32]
    __HAL_RCC_GPIOA_CLK_ENABLE();
 8000bcc:	f003 0301 	and.w	r3, r3, #1
 8000bd0:	9303      	str	r3, [sp, #12]
 8000bd2:	9b03      	ldr	r3, [sp, #12]
    GPIO_InitStruct.Mode = GPIO_MODE_AF_PP;
 8000bd4:	2380      	movs	r3, #128	@ 0x80
    GPIO_InitStruct.Speed = GPIO_SPEED_FREQ_VERY_HIGH;
 8000bd6:	e9cd 6506 	strd	r6, r5, [sp, #24]
    GPIO_InitStruct.Mode = GPIO_MODE_AF_PP;
 8000bda:	e9cd 3704 	strd	r3, r7, [sp, #16]
    HAL_GPIO_Init(GPIOB, &GPIO_InitStruct);
 8000bde:	f000 f9e9 	bl	8000fb4 <HAL_GPIO_Init>

    GPIO_InitStruct.Pin = GPIO_PIN_9;
 8000be2:	f44f 7300 	mov.w	r3, #512	@ 0x200
    GPIO_InitStruct.Mode = GPIO_MODE_AF_PP;
    GPIO_InitStruct.Pull = GPIO_NOPULL;
    GPIO_InitStruct.Speed = GPIO_SPEED_FREQ_VERY_HIGH;
    GPIO_InitStruct.Alternate = GPIO_AF7_USART1;
    HAL_GPIO_Init(GPIOA, &GPIO_InitStruct);
 8000be6:	a904      	add	r1, sp, #16
 8000be8:	4807      	ldr	r0, [pc, #28]	@ (8000c08 <HAL_UART_MspInit+0xac>)
    GPIO_InitStruct.Alternate = GPIO_AF7_USART1;
 8000bea:	9408      	str	r4, [sp, #32]
    GPIO_InitStruct.Mode = GPIO_MODE_AF_PP;
 8000bec:	e9cd 3704 	strd	r3, r7, [sp, #16]
    GPIO_InitStruct.Speed = GPIO_SPEED_FREQ_VERY_HIGH;
 8000bf0:	e9cd 6506 	strd	r6, r5, [sp, #24]
    HAL_GPIO_Init(GPIOA, &GPIO_InitStruct);
 8000bf4:	f000 f9de 	bl	8000fb4 <HAL_GPIO_Init>

    /* USER CODE END USART1_MspInit 1 */

  }

}
 8000bf8:	b02b      	add	sp, #172	@ 0xac
 8000bfa:	bdf0      	pop	{r4, r5, r6, r7, pc}
 8000bfc:	40011000 	.word	0x40011000
 8000c00:	40023800 	.word	0x40023800
 8000c04:	40020400 	.word	0x40020400
 8000c08:	40020000 	.word	0x40020000

08000c0c <NMI_Handler>:
{
  /* USER CODE BEGIN NonMaskableInt_IRQn 0 */

  /* USER CODE END NonMaskableInt_IRQn 0 */
  /* USER CODE BEGIN NonMaskableInt_IRQn 1 */
   while (1)
 8000c0c:	e7fe      	b.n	8000c0c <NMI_Handler>

08000c0e <HardFault_Handler>:

/**
  * @brief This function handles Hard fault interrupt.
  */
void HardFault_Handler(void)
{
 8000c0e:	b508      	push	{r3, lr}
  /* USER CODE BEGIN HardFault_IRQn 0 */
	print_hardfault_reason();
 8000c10:	f7ff fed2 	bl	80009b8 <print_hardfault_reason>
  /* USER CODE END HardFault_IRQn 0 */
  while (1)
 8000c14:	e7fe      	b.n	8000c14 <HardFault_Handler+0x6>

08000c16 <MemManage_Handler>:
void MemManage_Handler(void)
{
  /* USER CODE BEGIN MemoryManagement_IRQn 0 */

  /* USER CODE END MemoryManagement_IRQn 0 */
  while (1)
 8000c16:	e7fe      	b.n	8000c16 <MemManage_Handler>

08000c18 <BusFault_Handler>:
void BusFault_Handler(void)
{
  /* USER CODE BEGIN BusFault_IRQn 0 */

  /* USER CODE END BusFault_IRQn 0 */
  while (1)
 8000c18:	e7fe      	b.n	8000c18 <BusFault_Handler>

08000c1a <UsageFault_Handler>:
void UsageFault_Handler(void)
{
  /* USER CODE BEGIN UsageFault_IRQn 0 */

  /* USER CODE END UsageFault_IRQn 0 */
  while (1)
 8000c1a:	e7fe      	b.n	8000c1a <UsageFault_Handler>

08000c1c <SVC_Handler>:

  /* USER CODE END SVCall_IRQn 0 */
  /* USER CODE BEGIN SVCall_IRQn 1 */

  /* USER CODE END SVCall_IRQn 1 */
}
 8000c1c:	4770      	bx	lr

08000c1e <DebugMon_Handler>:

/**
  * @brief This function handles Debug monitor.
  */
void DebugMon_Handler(void)
 8000c1e:	4770      	bx	lr

08000c20 <PendSV_Handler>:
}

/**
  * @brief This function handles Pendable request for system service.
  */
void PendSV_Handler(void)
 8000c20:	4770      	bx	lr

08000c22 <SysTick_Handler>:
void SysTick_Handler(void)
{
  /* USER CODE BEGIN SysTick_IRQn 0 */

  /* USER CODE END SysTick_IRQn 0 */
  HAL_IncTick();
 8000c22:	f000 b89f 	b.w	8000d64 <HAL_IncTick>

08000c26 <_read>:
  _kill(status, -1);
  while (1) {}    /* Make sure we hang here */
}

__attribute__((weak)) int _read(int file, char *ptr, int len)
{
 8000c26:	b570      	push	{r4, r5, r6, lr}
 8000c28:	460d      	mov	r5, r1
 8000c2a:	4614      	mov	r4, r2
  (void)file;
  int DataIdx;

  for (DataIdx = 0; DataIdx < len; DataIdx++)
 8000c2c:	460e      	mov	r6, r1
 8000c2e:	1b73      	subs	r3, r6, r5
 8000c30:	429c      	cmp	r4, r3
 8000c32:	dc01      	bgt.n	8000c38 <_read+0x12>
  {
    *ptr++ = __io_getchar();
  }

  return len;
}
 8000c34:	4620      	mov	r0, r4
 8000c36:	bd70      	pop	{r4, r5, r6, pc}
    *ptr++ = __io_getchar();
 8000c38:	f3af 8000 	nop.w
 8000c3c:	f806 0b01 	strb.w	r0, [r6], #1
  for (DataIdx = 0; DataIdx < len; DataIdx++)
 8000c40:	e7f5      	b.n	8000c2e <_read+0x8>

08000c42 <_close>:

int _close(int file)
{
  (void)file;
  return -1;
}
 8000c42:	f04f 30ff 	mov.w	r0, #4294967295
 8000c46:	4770      	bx	lr

08000c48 <_fstat>:


int _fstat(int file, struct stat *st)
{
  (void)file;
  st->st_mode = S_IFCHR;
 8000c48:	f44f 5300 	mov.w	r3, #8192	@ 0x2000
  return 0;
}
 8000c4c:	2000      	movs	r0, #0
  st->st_mode = S_IFCHR;
 8000c4e:	604b      	str	r3, [r1, #4]
}
 8000c50:	4770      	bx	lr

08000c52 <_isatty>:

int _isatty(int file)
{
  (void)file;
  return 1;
}
 8000c52:	2001      	movs	r0, #1
 8000c54:	4770      	bx	lr

08000c56 <_lseek>:
{
  (void)file;
  (void)ptr;
  (void)dir;
  return 0;
}
 8000c56:	2000      	movs	r0, #0
 8000c58:	4770      	bx	lr
	...

08000c5c <_sbrk>:
  const uint32_t stack_limit = (uint32_t)&_estack - (uint32_t)&_Min_Stack_Size;
  const uint8_t *max_heap = (uint8_t *)stack_limit;
  uint8_t *prev_heap_end;

  /* Initialize heap end at first call */
  if (NULL == __sbrk_heap_end)
 8000c5c:	4a0b      	ldr	r2, [pc, #44]	@ (8000c8c <_sbrk+0x30>)
{
 8000c5e:	4603      	mov	r3, r0
  if (NULL == __sbrk_heap_end)
 8000c60:	6811      	ldr	r1, [r2, #0]
{
 8000c62:	b510      	push	{r4, lr}
  if (NULL == __sbrk_heap_end)
 8000c64:	b909      	cbnz	r1, 8000c6a <_sbrk+0xe>
  {
    __sbrk_heap_end = &_end;
 8000c66:	490a      	ldr	r1, [pc, #40]	@ (8000c90 <_sbrk+0x34>)
 8000c68:	6011      	str	r1, [r2, #0]
  }

  /* Protect heap from growing into the reserved MSP stack */
  if (__sbrk_heap_end + incr > max_heap)
 8000c6a:	6810      	ldr	r0, [r2, #0]
 8000c6c:	4909      	ldr	r1, [pc, #36]	@ (8000c94 <_sbrk+0x38>)
 8000c6e:	4c0a      	ldr	r4, [pc, #40]	@ (8000c98 <_sbrk+0x3c>)
 8000c70:	4403      	add	r3, r0
 8000c72:	1b09      	subs	r1, r1, r4
 8000c74:	428b      	cmp	r3, r1
 8000c76:	d906      	bls.n	8000c86 <_sbrk+0x2a>
  {
    errno = ENOMEM;
 8000c78:	f001 fe76 	bl	8002968 <__errno>
 8000c7c:	230c      	movs	r3, #12
 8000c7e:	6003      	str	r3, [r0, #0]
    return (void *)-1;
 8000c80:	f04f 30ff 	mov.w	r0, #4294967295

  prev_heap_end = __sbrk_heap_end;
  __sbrk_heap_end += incr;

  return (void *)prev_heap_end;
}
 8000c84:	bd10      	pop	{r4, pc}
  __sbrk_heap_end += incr;
 8000c86:	6013      	str	r3, [r2, #0]
  return (void *)prev_heap_end;
 8000c88:	e7fc      	b.n	8000c84 <_sbrk+0x28>
 8000c8a:	bf00      	nop
 8000c8c:	20000150 	.word	0x20000150
 8000c90:	200002a8 	.word	0x200002a8
 8000c94:	20050000 	.word	0x20050000
 8000c98:	00000400 	.word	0x00000400

08000c9c <SystemInit>:
  */
void SystemInit(void)
{
  /* FPU settings ------------------------------------------------------------*/
#if (__FPU_PRESENT == 1) && (__FPU_USED == 1)
  SCB->CPACR |= ((3UL << 10*2)|(3UL << 11*2));  /* set CP10 and CP11 Full Access */
 8000c9c:	4a03      	ldr	r2, [pc, #12]	@ (8000cac <SystemInit+0x10>)
 8000c9e:	f8d2 3088 	ldr.w	r3, [r2, #136]	@ 0x88
 8000ca2:	f443 0370 	orr.w	r3, r3, #15728640	@ 0xf00000
 8000ca6:	f8c2 3088 	str.w	r3, [r2, #136]	@ 0x88

  /* Configure the Vector Table location -------------------------------------*/
#if defined(USER_VECT_TAB_ADDRESS)
  SCB->VTOR = VECT_TAB_BASE_ADDRESS | VECT_TAB_OFFSET; /* Vector Table Relocation in Internal SRAM */
#endif /* USER_VECT_TAB_ADDRESS */
}
 8000caa:	4770      	bx	lr
 8000cac:	e000ed00 	.word	0xe000ed00

08000cb0 <Reset_Handler>:

    .section  .text.Reset_Handler
  .weak  Reset_Handler
  .type  Reset_Handler, %function
Reset_Handler:  
  ldr   sp, =_estack      /* set stack pointer */
 8000cb0:	f8df d034 	ldr.w	sp, [pc, #52]	@ 8000ce8 <LoopFillZerobss+0xe>
  
/* Call the clock system initialization function.*/
  bl  SystemInit   
 8000cb4:	f7ff fff2 	bl	8000c9c <SystemInit>

/* Copy the data segment initializers from flash to SRAM */  
  ldr r0, =_sdata
 8000cb8:	480c      	ldr	r0, [pc, #48]	@ (8000cec <LoopFillZerobss+0x12>)
  ldr r1, =_edata
 8000cba:	490d      	ldr	r1, [pc, #52]	@ (8000cf0 <LoopFillZerobss+0x16>)
  ldr r2, =_sidata
 8000cbc:	4a0d      	ldr	r2, [pc, #52]	@ (8000cf4 <LoopFillZerobss+0x1a>)
  movs r3, #0
 8000cbe:	2300      	movs	r3, #0
  b LoopCopyDataInit
 8000cc0:	e002      	b.n	8000cc8 <LoopCopyDataInit>

08000cc2 <CopyDataInit>:

CopyDataInit:
  ldr r4, [r2, r3]
 8000cc2:	58d4      	ldr	r4, [r2, r3]
  str r4, [r0, r3]
 8000cc4:	50c4      	str	r4, [r0, r3]
  adds r3, r3, #4
 8000cc6:	3304      	adds	r3, #4

08000cc8 <LoopCopyDataInit>:

LoopCopyDataInit:
  adds r4, r0, r3
 8000cc8:	18c4      	adds	r4, r0, r3
  cmp r4, r1
 8000cca:	428c      	cmp	r4, r1
  bcc CopyDataInit
 8000ccc:	d3f9      	bcc.n	8000cc2 <CopyDataInit>
  
/* Zero fill the bss segment. */
  ldr r2, =_sbss
 8000cce:	4a0a      	ldr	r2, [pc, #40]	@ (8000cf8 <LoopFillZerobss+0x1e>)
  ldr r4, =_ebss
 8000cd0:	4c0a      	ldr	r4, [pc, #40]	@ (8000cfc <LoopFillZerobss+0x22>)
  movs r3, #0
 8000cd2:	2300      	movs	r3, #0
  b LoopFillZerobss
 8000cd4:	e001      	b.n	8000cda <LoopFillZerobss>

08000cd6 <FillZerobss>:

FillZerobss:
  str  r3, [r2]
 8000cd6:	6013      	str	r3, [r2, #0]
  adds r2, r2, #4
 8000cd8:	3204      	adds	r2, #4

08000cda <LoopFillZerobss>:

LoopFillZerobss:
  cmp r2, r4
 8000cda:	42a2      	cmp	r2, r4
  bcc FillZerobss
 8000cdc:	d3fb      	bcc.n	8000cd6 <FillZerobss>
  
/* Call static constructors */
    bl __libc_init_array
 8000cde:	f001 fe49 	bl	8002974 <__libc_init_array>
/* Call the application's entry point.*/
  bl  main
 8000ce2:	f7ff fd85 	bl	80007f0 <main>
  bx  lr    
 8000ce6:	4770      	bx	lr
  ldr   sp, =_estack      /* set stack pointer */
 8000ce8:	20050000 	.word	0x20050000
  ldr r0, =_sdata
 8000cec:	20000000 	.word	0x20000000
  ldr r1, =_edata
 8000cf0:	20000068 	.word	0x20000068
  ldr r2, =_sidata
 8000cf4:	080034d4 	.word	0x080034d4
  ldr r2, =_sbss
 8000cf8:	20000068 	.word	0x20000068
  ldr r4, =_ebss
 8000cfc:	200002a4 	.word	0x200002a4

08000d00 <ADC_IRQHandler>:
 * @retval None       
*/
    .section  .text.Default_Handler,"ax",%progbits
Default_Handler:
Infinite_Loop:
  b  Infinite_Loop
 8000d00:	e7fe      	b.n	8000d00 <ADC_IRQHandler>
	...

08000d04 <HAL_InitTick>:
  *       implementation  in user file.
  * @param TickPriority Tick interrupt priority.
  * @retval HAL status
  */
__weak HAL_StatusTypeDef HAL_InitTick(uint32_t TickPriority)
{
 8000d04:	b538      	push	{r3, r4, r5, lr}
  /* Configure the SysTick to have interrupt in 1ms time basis*/
  if (HAL_SYSTICK_Config(SystemCoreClock / (1000U / uwTickFreq)) > 0U)
 8000d06:	4b0e      	ldr	r3, [pc, #56]	@ (8000d40 <HAL_InitTick+0x3c>)
{
 8000d08:	4605      	mov	r5, r0
  if (HAL_SYSTICK_Config(SystemCoreClock / (1000U / uwTickFreq)) > 0U)
 8000d0a:	781a      	ldrb	r2, [r3, #0]
 8000d0c:	f44f 737a 	mov.w	r3, #1000	@ 0x3e8
 8000d10:	fbb3 f3f2 	udiv	r3, r3, r2
 8000d14:	4a0b      	ldr	r2, [pc, #44]	@ (8000d44 <HAL_InitTick+0x40>)
 8000d16:	6810      	ldr	r0, [r2, #0]
 8000d18:	fbb0 f0f3 	udiv	r0, r0, r3
 8000d1c:	f000 f88a 	bl	8000e34 <HAL_SYSTICK_Config>
 8000d20:	4604      	mov	r4, r0
 8000d22:	b958      	cbnz	r0, 8000d3c <HAL_InitTick+0x38>
  {
    return HAL_ERROR;
  }

  /* Configure the SysTick IRQ priority */
  if (TickPriority < (1UL << __NVIC_PRIO_BITS))
 8000d24:	2d0f      	cmp	r5, #15
 8000d26:	d809      	bhi.n	8000d3c <HAL_InitTick+0x38>
  {
    HAL_NVIC_SetPriority(SysTick_IRQn, TickPriority, 0U);
 8000d28:	4602      	mov	r2, r0
 8000d2a:	4629      	mov	r1, r5
 8000d2c:	f04f 30ff 	mov.w	r0, #4294967295
 8000d30:	f000 f84e 	bl	8000dd0 <HAL_NVIC_SetPriority>
    uwTickPrio = TickPriority;
 8000d34:	4b04      	ldr	r3, [pc, #16]	@ (8000d48 <HAL_InitTick+0x44>)
 8000d36:	4620      	mov	r0, r4
 8000d38:	601d      	str	r5, [r3, #0]
    return HAL_ERROR;
  }

  /* Return function status */
  return HAL_OK;
}
 8000d3a:	bd38      	pop	{r3, r4, r5, pc}
    return HAL_ERROR;
 8000d3c:	2001      	movs	r0, #1
 8000d3e:	e7fc      	b.n	8000d3a <HAL_InitTick+0x36>
 8000d40:	20000004 	.word	0x20000004
 8000d44:	20000000 	.word	0x20000000
 8000d48:	20000008 	.word	0x20000008

08000d4c <HAL_Init>:
{
 8000d4c:	b508      	push	{r3, lr}
  HAL_NVIC_SetPriorityGrouping(NVIC_PRIORITYGROUP_4);
 8000d4e:	2003      	movs	r0, #3
 8000d50:	f000 f82c 	bl	8000dac <HAL_NVIC_SetPriorityGrouping>
  HAL_InitTick(TICK_INT_PRIORITY);
 8000d54:	2000      	movs	r0, #0
 8000d56:	f7ff ffd5 	bl	8000d04 <HAL_InitTick>
  HAL_MspInit();
 8000d5a:	f7ff feaf 	bl	8000abc <HAL_MspInit>
}
 8000d5e:	2000      	movs	r0, #0
 8000d60:	bd08      	pop	{r3, pc}
	...

08000d64 <HAL_IncTick>:
  *      implementations in user file.
  * @retval None
  */
__weak void HAL_IncTick(void)
{
  uwTick += uwTickFreq;
 8000d64:	4a03      	ldr	r2, [pc, #12]	@ (8000d74 <HAL_IncTick+0x10>)
 8000d66:	4b04      	ldr	r3, [pc, #16]	@ (8000d78 <HAL_IncTick+0x14>)
 8000d68:	6811      	ldr	r1, [r2, #0]
 8000d6a:	781b      	ldrb	r3, [r3, #0]
 8000d6c:	440b      	add	r3, r1
 8000d6e:	6013      	str	r3, [r2, #0]
}
 8000d70:	4770      	bx	lr
 8000d72:	bf00      	nop
 8000d74:	20000154 	.word	0x20000154
 8000d78:	20000004 	.word	0x20000004

08000d7c <HAL_GetTick>:
  *       implementations in user file.
  * @retval tick value
  */
__weak uint32_t HAL_GetTick(void)
{
  return uwTick;
 8000d7c:	4b01      	ldr	r3, [pc, #4]	@ (8000d84 <HAL_GetTick+0x8>)
 8000d7e:	6818      	ldr	r0, [r3, #0]
}
 8000d80:	4770      	bx	lr
 8000d82:	bf00      	nop
 8000d84:	20000154 	.word	0x20000154

08000d88 <HAL_Delay>:
  *       implementations in user file.
  * @param Delay  specifies the delay time length, in milliseconds.
  * @retval None
  */
__weak void HAL_Delay(uint32_t Delay)
{
 8000d88:	b538      	push	{r3, r4, r5, lr}
 8000d8a:	4604      	mov	r4, r0
  uint32_t tickstart = HAL_GetTick();
 8000d8c:	f7ff fff6 	bl	8000d7c <HAL_GetTick>
 8000d90:	4605      	mov	r5, r0
  uint32_t wait = Delay;

  /* Add a freq to guarantee minimum wait */
  if (wait < HAL_MAX_DELAY)
 8000d92:	1c63      	adds	r3, r4, #1
  {
    wait += (uint32_t)(uwTickFreq);
 8000d94:	bf1e      	ittt	ne
 8000d96:	4b04      	ldrne	r3, [pc, #16]	@ (8000da8 <HAL_Delay+0x20>)
 8000d98:	781b      	ldrbne	r3, [r3, #0]
 8000d9a:	18e4      	addne	r4, r4, r3
  }

  while ((HAL_GetTick() - tickstart) < wait)
 8000d9c:	f7ff ffee 	bl	8000d7c <HAL_GetTick>
 8000da0:	1b43      	subs	r3, r0, r5
 8000da2:	42a3      	cmp	r3, r4
 8000da4:	d3fa      	bcc.n	8000d9c <HAL_Delay+0x14>
  {
  }
}
 8000da6:	bd38      	pop	{r3, r4, r5, pc}
 8000da8:	20000004 	.word	0x20000004

08000dac <HAL_NVIC_SetPriorityGrouping>:
  reg_value  =  SCB->AIRCR;                                                   /* read old register configuration    */
 8000dac:	4907      	ldr	r1, [pc, #28]	@ (8000dcc <HAL_NVIC_SetPriorityGrouping+0x20>)
                (PriorityGroupTmp << SCB_AIRCR_PRIGROUP_Pos)  );              /* Insert write key and priority group */
 8000dae:	0203      	lsls	r3, r0, #8
  reg_value  =  SCB->AIRCR;                                                   /* read old register configuration    */
 8000db0:	68ca      	ldr	r2, [r1, #12]
                (PriorityGroupTmp << SCB_AIRCR_PRIGROUP_Pos)  );              /* Insert write key and priority group */
 8000db2:	f403 63e0 	and.w	r3, r3, #1792	@ 0x700
  reg_value &= ~((uint32_t)(SCB_AIRCR_VECTKEY_Msk | SCB_AIRCR_PRIGROUP_Msk)); /* clear bits to change               */
 8000db6:	f422 62e0 	bic.w	r2, r2, #1792	@ 0x700
 8000dba:	0412      	lsls	r2, r2, #16
 8000dbc:	0c12      	lsrs	r2, r2, #16
                ((uint32_t)0x5FAUL << SCB_AIRCR_VECTKEY_Pos) |
 8000dbe:	4313      	orrs	r3, r2
  reg_value  =  (reg_value                                   |
 8000dc0:	f043 63bf 	orr.w	r3, r3, #100139008	@ 0x5f80000
 8000dc4:	f443 3300 	orr.w	r3, r3, #131072	@ 0x20000
  SCB->AIRCR =  reg_value;
 8000dc8:	60cb      	str	r3, [r1, #12]
  /* Check the parameters */
  assert_param(IS_NVIC_PRIORITY_GROUP(PriorityGroup));
  
  /* Set the PRIGROUP[10:8] bits according to the PriorityGroup parameter value */
  NVIC_SetPriorityGrouping(PriorityGroup);
}
 8000dca:	4770      	bx	lr
 8000dcc:	e000ed00 	.word	0xe000ed00

08000dd0 <HAL_NVIC_SetPriority>:
  return ((uint32_t)((SCB->AIRCR & SCB_AIRCR_PRIGROUP_Msk) >> SCB_AIRCR_PRIGROUP_Pos));
 8000dd0:	4b16      	ldr	r3, [pc, #88]	@ (8000e2c <HAL_NVIC_SetPriority+0x5c>)
  *         This parameter can be a value between 0 and 15
  *         A lower priority value indicates a higher priority.          
  * @retval None
  */
void HAL_NVIC_SetPriority(IRQn_Type IRQn, uint32_t PreemptPriority, uint32_t SubPriority)
{ 
 8000dd2:	b530      	push	{r4, r5, lr}
 8000dd4:	68dc      	ldr	r4, [r3, #12]
 8000dd6:	f3c4 2402 	ubfx	r4, r4, #8, #3
  PreemptPriorityBits = ((7UL - PriorityGroupTmp) > (uint32_t)(__NVIC_PRIO_BITS)) ? (uint32_t)(__NVIC_PRIO_BITS) : (uint32_t)(7UL - PriorityGroupTmp);
 8000dda:	f1c4 0307 	rsb	r3, r4, #7
  SubPriorityBits     = ((PriorityGroupTmp + (uint32_t)(__NVIC_PRIO_BITS)) < (uint32_t)7UL) ? (uint32_t)0UL : (uint32_t)((PriorityGroupTmp - 7UL) + (uint32_t)(__NVIC_PRIO_BITS));
 8000dde:	1d25      	adds	r5, r4, #4
  PreemptPriorityBits = ((7UL - PriorityGroupTmp) > (uint32_t)(__NVIC_PRIO_BITS)) ? (uint32_t)(__NVIC_PRIO_BITS) : (uint32_t)(7UL - PriorityGroupTmp);
 8000de0:	2b04      	cmp	r3, #4
 8000de2:	bf28      	it	cs
 8000de4:	2304      	movcs	r3, #4
  SubPriorityBits     = ((PriorityGroupTmp + (uint32_t)(__NVIC_PRIO_BITS)) < (uint32_t)7UL) ? (uint32_t)0UL : (uint32_t)((PriorityGroupTmp - 7UL) + (uint32_t)(__NVIC_PRIO_BITS));
 8000de6:	2d06      	cmp	r5, #6
           ((PreemptPriority & (uint32_t)((1UL << (PreemptPriorityBits)) - 1UL)) << SubPriorityBits) |
 8000de8:	f04f 35ff 	mov.w	r5, #4294967295
  SubPriorityBits     = ((PriorityGroupTmp + (uint32_t)(__NVIC_PRIO_BITS)) < (uint32_t)7UL) ? (uint32_t)0UL : (uint32_t)((PriorityGroupTmp - 7UL) + (uint32_t)(__NVIC_PRIO_BITS));
 8000dec:	bf8c      	ite	hi
 8000dee:	3c03      	subhi	r4, #3
 8000df0:	2400      	movls	r4, #0
           ((PreemptPriority & (uint32_t)((1UL << (PreemptPriorityBits)) - 1UL)) << SubPriorityBits) |
 8000df2:	fa05 f303 	lsl.w	r3, r5, r3
  if ((int32_t)(IRQn) >= 0)
 8000df6:	2800      	cmp	r0, #0
           ((SubPriority     & (uint32_t)((1UL << (SubPriorityBits    )) - 1UL)))
 8000df8:	fa05 f504 	lsl.w	r5, r5, r4
           ((PreemptPriority & (uint32_t)((1UL << (PreemptPriorityBits)) - 1UL)) << SubPriorityBits) |
 8000dfc:	ea21 0303 	bic.w	r3, r1, r3
           ((SubPriority     & (uint32_t)((1UL << (SubPriorityBits    )) - 1UL)))
 8000e00:	ea22 0205 	bic.w	r2, r2, r5
           ((PreemptPriority & (uint32_t)((1UL << (PreemptPriorityBits)) - 1UL)) << SubPriorityBits) |
 8000e04:	fa03 f304 	lsl.w	r3, r3, r4
 8000e08:	ea43 0302 	orr.w	r3, r3, r2
    NVIC->IP[((uint32_t)IRQn)]                = (uint8_t)((priority << (8U - __NVIC_PRIO_BITS)) & (uint32_t)0xFFUL);
 8000e0c:	ea4f 1303 	mov.w	r3, r3, lsl #4
 8000e10:	b2db      	uxtb	r3, r3
  if ((int32_t)(IRQn) >= 0)
 8000e12:	db06      	blt.n	8000e22 <HAL_NVIC_SetPriority+0x52>
    NVIC->IP[((uint32_t)IRQn)]                = (uint8_t)((priority << (8U - __NVIC_PRIO_BITS)) & (uint32_t)0xFFUL);
 8000e14:	f100 4060 	add.w	r0, r0, #3758096384	@ 0xe0000000
 8000e18:	f500 4061 	add.w	r0, r0, #57600	@ 0xe100
 8000e1c:	f880 3300 	strb.w	r3, [r0, #768]	@ 0x300
  assert_param(IS_NVIC_PREEMPTION_PRIORITY(PreemptPriority));
  
  prioritygroup = NVIC_GetPriorityGrouping();
  
  NVIC_SetPriority(IRQn, NVIC_EncodePriority(prioritygroup, PreemptPriority, SubPriority));
}
 8000e20:	bd30      	pop	{r4, r5, pc}
    SCB->SHPR[(((uint32_t)IRQn) & 0xFUL)-4UL] = (uint8_t)((priority << (8U - __NVIC_PRIO_BITS)) & (uint32_t)0xFFUL);
 8000e22:	f000 000f 	and.w	r0, r0, #15
 8000e26:	4a02      	ldr	r2, [pc, #8]	@ (8000e30 <HAL_NVIC_SetPriority+0x60>)
 8000e28:	5413      	strb	r3, [r2, r0]
 8000e2a:	e7f9      	b.n	8000e20 <HAL_NVIC_SetPriority+0x50>
 8000e2c:	e000ed00 	.word	0xe000ed00
 8000e30:	e000ed14 	.word	0xe000ed14

08000e34 <HAL_SYSTICK_Config>:
           function <b>SysTick_Config</b> is not included. In this case, the file <b><i>device</i>.h</b>
           must contain a vendor-specific implementation of this function.
 */
__STATIC_INLINE uint32_t SysTick_Config(uint32_t ticks)
{
  if ((ticks - 1UL) > SysTick_LOAD_RELOAD_Msk)
 8000e34:	3801      	subs	r0, #1
 8000e36:	f1b0 7f80 	cmp.w	r0, #16777216	@ 0x1000000
 8000e3a:	d20b      	bcs.n	8000e54 <HAL_SYSTICK_Config+0x20>
  {
    return (1UL);                                                   /* Reload value impossible */
  }

  SysTick->LOAD  = (uint32_t)(ticks - 1UL);                         /* set reload register */
 8000e3c:	f04f 23e0 	mov.w	r3, #3758153728	@ 0xe000e000
    SCB->SHPR[(((uint32_t)IRQn) & 0xFUL)-4UL] = (uint8_t)((priority << (8U - __NVIC_PRIO_BITS)) & (uint32_t)0xFFUL);
 8000e40:	4a05      	ldr	r2, [pc, #20]	@ (8000e58 <HAL_SYSTICK_Config+0x24>)
 8000e42:	21f0      	movs	r1, #240	@ 0xf0
  SysTick->LOAD  = (uint32_t)(ticks - 1UL);                         /* set reload register */
 8000e44:	6158      	str	r0, [r3, #20]
  NVIC_SetPriority (SysTick_IRQn, (1UL << __NVIC_PRIO_BITS) - 1UL); /* set Priority for Systick Interrupt */
  SysTick->VAL   = 0UL;                                             /* Load the SysTick Counter Value */
 8000e46:	2000      	movs	r0, #0
    SCB->SHPR[(((uint32_t)IRQn) & 0xFUL)-4UL] = (uint8_t)((priority << (8U - __NVIC_PRIO_BITS)) & (uint32_t)0xFFUL);
 8000e48:	f882 1023 	strb.w	r1, [r2, #35]	@ 0x23
  SysTick->CTRL  = SysTick_CTRL_CLKSOURCE_Msk |
 8000e4c:	2207      	movs	r2, #7
  SysTick->VAL   = 0UL;                                             /* Load the SysTick Counter Value */
 8000e4e:	6198      	str	r0, [r3, #24]
  SysTick->CTRL  = SysTick_CTRL_CLKSOURCE_Msk |
 8000e50:	611a      	str	r2, [r3, #16]
                   SysTick_CTRL_TICKINT_Msk   |
                   SysTick_CTRL_ENABLE_Msk;                         /* Enable SysTick IRQ and SysTick Timer */
  return (0UL);                                                     /* Function successful */
 8000e52:	4770      	bx	lr
    return (1UL);                                                   /* Reload value impossible */
 8000e54:	2001      	movs	r0, #1
  *                  - 1  Function failed.
  */
uint32_t HAL_SYSTICK_Config(uint32_t TicksNumb)
{
   return SysTick_Config(TicksNumb);
}
 8000e56:	4770      	bx	lr
 8000e58:	e000ed00 	.word	0xe000ed00

08000e5c <HAL_MPU_Disable>:
  \details Ensures the apparent order of the explicit memory operations before
           and after the instruction, without ensuring their completion.
 */
__STATIC_FORCEINLINE void __DMB(void)
{
  __ASM volatile ("dmb 0xF":::"memory");
 8000e5c:	f3bf 8f5f 	dmb	sy
{
  /* Make sure outstanding transfers are done */
  __DMB();

  /* Disable fault exceptions */
  SCB->SHCSR &= ~SCB_SHCSR_MEMFAULTENA_Msk;
 8000e60:	4b04      	ldr	r3, [pc, #16]	@ (8000e74 <HAL_MPU_Disable+0x18>)
 8000e62:	6a5a      	ldr	r2, [r3, #36]	@ 0x24
 8000e64:	f422 3280 	bic.w	r2, r2, #65536	@ 0x10000
 8000e68:	625a      	str	r2, [r3, #36]	@ 0x24
  
  /* Disable the MPU and clear the control register*/
  MPU->CTRL = 0;
 8000e6a:	2200      	movs	r2, #0
 8000e6c:	f8c3 2094 	str.w	r2, [r3, #148]	@ 0x94
}
 8000e70:	4770      	bx	lr
 8000e72:	bf00      	nop
 8000e74:	e000ed00 	.word	0xe000ed00

08000e78 <HAL_MPU_Enable>:
  * @retval None
  */
void HAL_MPU_Enable(uint32_t MPU_Control)
{
  /* Enable the MPU */
  MPU->CTRL = MPU_Control | MPU_CTRL_ENABLE_Msk;
 8000e78:	4b06      	ldr	r3, [pc, #24]	@ (8000e94 <HAL_MPU_Enable+0x1c>)
 8000e7a:	f040 0001 	orr.w	r0, r0, #1
 8000e7e:	f8c3 0094 	str.w	r0, [r3, #148]	@ 0x94
  
  /* Enable fault exceptions */
  SCB->SHCSR |= SCB_SHCSR_MEMFAULTENA_Msk;
 8000e82:	6a5a      	ldr	r2, [r3, #36]	@ 0x24
 8000e84:	f442 3280 	orr.w	r2, r2, #65536	@ 0x10000
 8000e88:	625a      	str	r2, [r3, #36]	@ 0x24
  __ASM volatile ("dsb 0xF":::"memory");
 8000e8a:	f3bf 8f4f 	dsb	sy
  __ASM volatile ("isb 0xF":::"memory");
 8000e8e:	f3bf 8f6f 	isb	sy
  
  /* Ensure MPU setting take effects */
  __DSB();
  __ISB();
}
 8000e92:	4770      	bx	lr
 8000e94:	e000ed00 	.word	0xe000ed00

08000e98 <HAL_MPU_ConfigRegion>:
  assert_param(IS_MPU_ACCESS_BUFFERABLE(MPU_Init->IsBufferable));
  assert_param(IS_MPU_SUB_REGION_DISABLE(MPU_Init->SubRegionDisable));
  assert_param(IS_MPU_REGION_SIZE(MPU_Init->Size));

  /* Set the Region number */
  MPU->RNR = MPU_Init->Number;
 8000e98:	7843      	ldrb	r3, [r0, #1]
 8000e9a:	4a14      	ldr	r2, [pc, #80]	@ (8000eec <HAL_MPU_ConfigRegion+0x54>)
 8000e9c:	f8c2 3098 	str.w	r3, [r2, #152]	@ 0x98

  /* Disable the Region */
  CLEAR_BIT(MPU->RASR, MPU_RASR_ENABLE_Msk);
 8000ea0:	f8d2 30a0 	ldr.w	r3, [r2, #160]	@ 0xa0
 8000ea4:	f023 0301 	bic.w	r3, r3, #1
 8000ea8:	f8c2 30a0 	str.w	r3, [r2, #160]	@ 0xa0

  /* Apply configuration */
  MPU->RBAR = MPU_Init->BaseAddress;
 8000eac:	6843      	ldr	r3, [r0, #4]
 8000eae:	f8c2 309c 	str.w	r3, [r2, #156]	@ 0x9c
  MPU->RASR = ((uint32_t)MPU_Init->DisableExec             << MPU_RASR_XN_Pos)   |
              ((uint32_t)MPU_Init->AccessPermission        << MPU_RASR_AP_Pos)   |
 8000eb2:	7ac3      	ldrb	r3, [r0, #11]
  MPU->RASR = ((uint32_t)MPU_Init->DisableExec             << MPU_RASR_XN_Pos)   |
 8000eb4:	7b01      	ldrb	r1, [r0, #12]
              ((uint32_t)MPU_Init->AccessPermission        << MPU_RASR_AP_Pos)   |
 8000eb6:	061b      	lsls	r3, r3, #24
  MPU->RASR = ((uint32_t)MPU_Init->DisableExec             << MPU_RASR_XN_Pos)   |
 8000eb8:	ea43 7301 	orr.w	r3, r3, r1, lsl #28
              ((uint32_t)MPU_Init->IsShareable             << MPU_RASR_S_Pos)    |
              ((uint32_t)MPU_Init->IsCacheable             << MPU_RASR_C_Pos)    |
              ((uint32_t)MPU_Init->IsBufferable            << MPU_RASR_B_Pos)    |
              ((uint32_t)MPU_Init->SubRegionDisable        << MPU_RASR_SRD_Pos)  |
              ((uint32_t)MPU_Init->Size                    << MPU_RASR_SIZE_Pos) |
              ((uint32_t)MPU_Init->Enable                  << MPU_RASR_ENABLE_Pos);
 8000ebc:	7801      	ldrb	r1, [r0, #0]
              ((uint32_t)MPU_Init->Size                    << MPU_RASR_SIZE_Pos) |
 8000ebe:	430b      	orrs	r3, r1
              ((uint32_t)MPU_Init->TypeExtField            << MPU_RASR_TEX_Pos)  |
 8000ec0:	7a81      	ldrb	r1, [r0, #10]
              ((uint32_t)MPU_Init->Size                    << MPU_RASR_SIZE_Pos) |
 8000ec2:	ea43 43c1 	orr.w	r3, r3, r1, lsl #19
              ((uint32_t)MPU_Init->IsShareable             << MPU_RASR_S_Pos)    |
 8000ec6:	7b41      	ldrb	r1, [r0, #13]
              ((uint32_t)MPU_Init->Size                    << MPU_RASR_SIZE_Pos) |
 8000ec8:	ea43 4381 	orr.w	r3, r3, r1, lsl #18
              ((uint32_t)MPU_Init->IsCacheable             << MPU_RASR_C_Pos)    |
 8000ecc:	7b81      	ldrb	r1, [r0, #14]
              ((uint32_t)MPU_Init->Size                    << MPU_RASR_SIZE_Pos) |
 8000ece:	ea43 4341 	orr.w	r3, r3, r1, lsl #17
              ((uint32_t)MPU_Init->IsBufferable            << MPU_RASR_B_Pos)    |
 8000ed2:	7bc1      	ldrb	r1, [r0, #15]
              ((uint32_t)MPU_Init->Size                    << MPU_RASR_SIZE_Pos) |
 8000ed4:	ea43 4301 	orr.w	r3, r3, r1, lsl #16
              ((uint32_t)MPU_Init->SubRegionDisable        << MPU_RASR_SRD_Pos)  |
 8000ed8:	7a41      	ldrb	r1, [r0, #9]
              ((uint32_t)MPU_Init->Size                    << MPU_RASR_SIZE_Pos) |
 8000eda:	ea43 2301 	orr.w	r3, r3, r1, lsl #8
 8000ede:	7a01      	ldrb	r1, [r0, #8]
 8000ee0:	ea43 0341 	orr.w	r3, r3, r1, lsl #1
  MPU->RASR = ((uint32_t)MPU_Init->DisableExec             << MPU_RASR_XN_Pos)   |
 8000ee4:	f8c2 30a0 	str.w	r3, [r2, #160]	@ 0xa0
}
 8000ee8:	4770      	bx	lr
 8000eea:	bf00      	nop
 8000eec:	e000ed00 	.word	0xe000ed00

08000ef0 <HAL_CRC_Init>:
  *         parameters in the CRC_InitTypeDef and create the associated handle.
  * @param  hcrc CRC handle
  * @retval HAL status
  */
HAL_StatusTypeDef HAL_CRC_Init(CRC_HandleTypeDef *hcrc)
{
 8000ef0:	b510      	push	{r4, lr}
  /* Check the CRC handle allocation */
  if (hcrc == NULL)
 8000ef2:	4604      	mov	r4, r0
 8000ef4:	b908      	cbnz	r0, 8000efa <HAL_CRC_Init+0xa>
  {
    return HAL_ERROR;
 8000ef6:	2001      	movs	r0, #1
  /* Change CRC peripheral state */
  hcrc->State = HAL_CRC_STATE_READY;

  /* Return function status */
  return HAL_OK;
}
 8000ef8:	bd10      	pop	{r4, pc}
  if (hcrc->State == HAL_CRC_STATE_RESET)
 8000efa:	7f43      	ldrb	r3, [r0, #29]
 8000efc:	f003 02ff 	and.w	r2, r3, #255	@ 0xff
 8000f00:	b913      	cbnz	r3, 8000f08 <HAL_CRC_Init+0x18>
    hcrc->Lock = HAL_UNLOCKED;
 8000f02:	7702      	strb	r2, [r0, #28]
    HAL_CRC_MspInit(hcrc);
 8000f04:	f7ff fdf2 	bl	8000aec <HAL_CRC_MspInit>
  hcrc->State = HAL_CRC_STATE_BUSY;
 8000f08:	2302      	movs	r3, #2
 8000f0a:	7763      	strb	r3, [r4, #29]
  if (hcrc->Init.DefaultPolynomialUse == DEFAULT_POLYNOMIAL_ENABLE)
 8000f0c:	7923      	ldrb	r3, [r4, #4]
 8000f0e:	b9e3      	cbnz	r3, 8000f4a <HAL_CRC_Init+0x5a>
    WRITE_REG(hcrc->Instance->POL, DEFAULT_CRC32_POLY);
 8000f10:	6823      	ldr	r3, [r4, #0]
 8000f12:	4a13      	ldr	r2, [pc, #76]	@ (8000f60 <HAL_CRC_Init+0x70>)
 8000f14:	615a      	str	r2, [r3, #20]
    MODIFY_REG(hcrc->Instance->CR, CRC_CR_POLYSIZE, CRC_POLYLENGTH_32B);
 8000f16:	689a      	ldr	r2, [r3, #8]
 8000f18:	f022 0218 	bic.w	r2, r2, #24
 8000f1c:	609a      	str	r2, [r3, #8]
  if (hcrc->Init.DefaultInitValueUse == DEFAULT_INIT_VALUE_ENABLE)
 8000f1e:	7962      	ldrb	r2, [r4, #5]
    WRITE_REG(hcrc->Instance->INIT, DEFAULT_CRC_INITVALUE);
 8000f20:	6823      	ldr	r3, [r4, #0]
  if (hcrc->Init.DefaultInitValueUse == DEFAULT_INIT_VALUE_ENABLE)
 8000f22:	b9d2      	cbnz	r2, 8000f5a <HAL_CRC_Init+0x6a>
    WRITE_REG(hcrc->Instance->INIT, DEFAULT_CRC_INITVALUE);
 8000f24:	f04f 32ff 	mov.w	r2, #4294967295
    WRITE_REG(hcrc->Instance->INIT, hcrc->Init.InitValue);
 8000f28:	611a      	str	r2, [r3, #16]
  return HAL_OK;
 8000f2a:	2000      	movs	r0, #0
  MODIFY_REG(hcrc->Instance->CR, CRC_CR_REV_IN, hcrc->Init.InputDataInversionMode);
 8000f2c:	689a      	ldr	r2, [r3, #8]
 8000f2e:	6961      	ldr	r1, [r4, #20]
 8000f30:	f022 0260 	bic.w	r2, r2, #96	@ 0x60
 8000f34:	430a      	orrs	r2, r1
  MODIFY_REG(hcrc->Instance->CR, CRC_CR_REV_OUT, hcrc->Init.OutputDataInversionMode);
 8000f36:	69a1      	ldr	r1, [r4, #24]
  MODIFY_REG(hcrc->Instance->CR, CRC_CR_REV_IN, hcrc->Init.InputDataInversionMode);
 8000f38:	609a      	str	r2, [r3, #8]
  MODIFY_REG(hcrc->Instance->CR, CRC_CR_REV_OUT, hcrc->Init.OutputDataInversionMode);
 8000f3a:	689a      	ldr	r2, [r3, #8]
 8000f3c:	f022 0280 	bic.w	r2, r2, #128	@ 0x80
 8000f40:	430a      	orrs	r2, r1
 8000f42:	609a      	str	r2, [r3, #8]
  hcrc->State = HAL_CRC_STATE_READY;
 8000f44:	2301      	movs	r3, #1
 8000f46:	7763      	strb	r3, [r4, #29]
  return HAL_OK;
 8000f48:	e7d6      	b.n	8000ef8 <HAL_CRC_Init+0x8>
    if (HAL_CRCEx_Polynomial_Set(hcrc, hcrc->Init.GeneratingPolynomial, hcrc->Init.CRCLength) != HAL_OK)
 8000f4a:	e9d4 1202 	ldrd	r1, r2, [r4, #8]
 8000f4e:	4620      	mov	r0, r4
 8000f50:	f000 f808 	bl	8000f64 <HAL_CRCEx_Polynomial_Set>
 8000f54:	2800      	cmp	r0, #0
 8000f56:	d0e2      	beq.n	8000f1e <HAL_CRC_Init+0x2e>
 8000f58:	e7cd      	b.n	8000ef6 <HAL_CRC_Init+0x6>
    WRITE_REG(hcrc->Instance->INIT, hcrc->Init.InitValue);
 8000f5a:	6922      	ldr	r2, [r4, #16]
 8000f5c:	e7e4      	b.n	8000f28 <HAL_CRC_Init+0x38>
 8000f5e:	bf00      	nop
 8000f60:	04c11db7 	.word	0x04c11db7

08000f64 <HAL_CRCEx_Polynomial_Set>:

  /* Check the parameters */
  assert_param(IS_CRC_POL_LENGTH(PolyLength));

  /* Ensure that the generating polynomial is odd */
  if ((Pol & (uint32_t)(0x1U)) ==  0U)
 8000f64:	07cb      	lsls	r3, r1, #31
{
 8000f66:	b510      	push	{r4, lr}
  if ((Pol & (uint32_t)(0x1U)) ==  0U)
 8000f68:	d50d      	bpl.n	8000f86 <HAL_CRCEx_Polynomial_Set+0x22>
  uint32_t msb = 31U; /* polynomial degree is 32 at most, so msb is initialized to max value */
 8000f6a:	231f      	movs	r3, #31
     * definition. HAL_ERROR is reported if Pol degree is
     * larger than that indicated by PolyLength.
     * Look for MSB position: msb will contain the degree of
     *  the second to the largest polynomial member. E.g., for
     *  X^7 + X^6 + X^5 + X^2 + 1, msb = 6. */
    while ((msb-- > 0U) && ((Pol & ((uint32_t)(0x1U) << (msb & 0x1FU))) == 0U))
 8000f6c:	3b01      	subs	r3, #1
 8000f6e:	d31d      	bcc.n	8000fac <HAL_CRCEx_Polynomial_Set+0x48>
 8000f70:	fa21 f403 	lsr.w	r4, r1, r3
 8000f74:	07e4      	lsls	r4, r4, #31
 8000f76:	d5f9      	bpl.n	8000f6c <HAL_CRCEx_Polynomial_Set+0x8>
    {
    }

    switch (PolyLength)
 8000f78:	2a10      	cmp	r2, #16
 8000f7a:	d013      	beq.n	8000fa4 <HAL_CRCEx_Polynomial_Set+0x40>
 8000f7c:	2a10      	cmp	r2, #16
 8000f7e:	d804      	bhi.n	8000f8a <HAL_CRCEx_Polynomial_Set+0x26>
 8000f80:	b13a      	cbz	r2, 8000f92 <HAL_CRCEx_Polynomial_Set+0x2e>
 8000f82:	2a08      	cmp	r2, #8
 8000f84:	d010      	beq.n	8000fa8 <HAL_CRCEx_Polynomial_Set+0x44>
    {

      case CRC_POLYLENGTH_7B:
        if (msb >= HAL_CRC_LENGTH_7B)
        {
          status =   HAL_ERROR;
 8000f86:	2001      	movs	r0, #1

    /* set generating polynomial size */
    MODIFY_REG(hcrc->Instance->CR, CRC_CR_POLYSIZE, PolyLength);
  }
  /* Return function status */
  return status;
 8000f88:	e00b      	b.n	8000fa2 <HAL_CRCEx_Polynomial_Set+0x3e>
    switch (PolyLength)
 8000f8a:	2a18      	cmp	r2, #24
 8000f8c:	d1fb      	bne.n	8000f86 <HAL_CRCEx_Polynomial_Set+0x22>
        if (msb >= HAL_CRC_LENGTH_7B)
 8000f8e:	2b06      	cmp	r3, #6
        if (msb >= HAL_CRC_LENGTH_16B)
 8000f90:	d8f9      	bhi.n	8000f86 <HAL_CRCEx_Polynomial_Set+0x22>
    WRITE_REG(hcrc->Instance->POL, Pol);
 8000f92:	6800      	ldr	r0, [r0, #0]
 8000f94:	6141      	str	r1, [r0, #20]
    MODIFY_REG(hcrc->Instance->CR, CRC_CR_POLYSIZE, PolyLength);
 8000f96:	6883      	ldr	r3, [r0, #8]
 8000f98:	f023 0318 	bic.w	r3, r3, #24
 8000f9c:	4313      	orrs	r3, r2
 8000f9e:	6083      	str	r3, [r0, #8]
 8000fa0:	2000      	movs	r0, #0
}
 8000fa2:	bd10      	pop	{r4, pc}
        if (msb >= HAL_CRC_LENGTH_8B)
 8000fa4:	2b07      	cmp	r3, #7
 8000fa6:	e7f3      	b.n	8000f90 <HAL_CRCEx_Polynomial_Set+0x2c>
        if (msb >= HAL_CRC_LENGTH_16B)
 8000fa8:	2b0f      	cmp	r3, #15
 8000faa:	e7f1      	b.n	8000f90 <HAL_CRCEx_Polynomial_Set+0x2c>
    switch (PolyLength)
 8000fac:	2a10      	cmp	r2, #16
 8000fae:	d1e5      	bne.n	8000f7c <HAL_CRCEx_Polynomial_Set+0x18>
 8000fb0:	e7e9      	b.n	8000f86 <HAL_CRCEx_Polynomial_Set+0x22>
	...

08000fb4 <HAL_GPIO_Init>:
  * @param  GPIO_Init pointer to a GPIO_InitTypeDef structure that contains
  *         the configuration information for the specified GPIO peripheral.
  * @retval None
  */
void HAL_GPIO_Init(GPIO_TypeDef  *GPIOx, GPIO_InitTypeDef *GPIO_Init)
{
 8000fb4:	e92d 4ff7 	stmdb	sp!, {r0, r1, r2, r4, r5, r6, r7, r8, r9, sl, fp, lr}
  assert_param(IS_GPIO_ALL_INSTANCE(GPIOx));
  assert_param(IS_GPIO_PIN(GPIO_Init->Pin));
  assert_param(IS_GPIO_MODE(GPIO_Init->Mode));

  /* Configure the port pins */
  for (position = 0; position < GPIO_NUMBER; position++)
 8000fb8:	2300      	movs	r3, #0
      /*--------------------- EXTI Mode Configuration ------------------------*/
      /* Configure the External Interrupt or event for the current IO */
      if ((GPIO_Init->Mode & EXTI_MODE) != 0x00u)
      {
        /* Enable SYSCFG Clock */
        __HAL_RCC_SYSCFG_CLK_ENABLE();
 8000fba:	f8df 91bc 	ldr.w	r9, [pc, #444]	@ 8001178 <HAL_GPIO_Init+0x1c4>
        temp &= ~(((uint32_t)0x0F) << (4 * (position & 0x03)));
        temp |= ((uint32_t)(GPIO_GET_INDEX(GPIOx)) << (4 * (position & 0x03)));
        SYSCFG->EXTICR[position >> 2] = temp;

        /* Clear Rising Falling edge configuration */
        temp = EXTI->RTSR;
 8000fbe:	4a6c      	ldr	r2, [pc, #432]	@ (8001170 <HAL_GPIO_Init+0x1bc>)
    ioposition = ((uint32_t)0x01) << position;
 8000fc0:	2401      	movs	r4, #1
    iocurrent = (uint32_t)(GPIO_Init->Pin) & ioposition;
 8000fc2:	680d      	ldr	r5, [r1, #0]
    ioposition = ((uint32_t)0x01) << position;
 8000fc4:	409c      	lsls	r4, r3
    iocurrent = (uint32_t)(GPIO_Init->Pin) & ioposition;
 8000fc6:	ea04 0605 	and.w	r6, r4, r5
    if (iocurrent == ioposition)
 8000fca:	43ac      	bics	r4, r5
 8000fcc:	f040 80b7 	bne.w	800113e <HAL_GPIO_Init+0x18a>
      if (((GPIO_Init->Mode & GPIO_MODE) == MODE_OUTPUT) || ((GPIO_Init->Mode & GPIO_MODE) == MODE_AF))
 8000fd0:	684d      	ldr	r5, [r1, #4]
        temp &= ~(GPIO_OSPEEDER_OSPEEDR0 << (position * 2));
 8000fd2:	2703      	movs	r7, #3
 8000fd4:	ea4f 0e43 	mov.w	lr, r3, lsl #1
      if (((GPIO_Init->Mode & GPIO_MODE) == MODE_OUTPUT) || ((GPIO_Init->Mode & GPIO_MODE) == MODE_AF))
 8000fd8:	f005 0403 	and.w	r4, r5, #3
        temp &= ~(GPIO_OSPEEDER_OSPEEDR0 << (position * 2));
 8000fdc:	fa07 fc0e 	lsl.w	ip, r7, lr
      if (((GPIO_Init->Mode & GPIO_MODE) == MODE_OUTPUT) || ((GPIO_Init->Mode & GPIO_MODE) == MODE_AF))
 8000fe0:	1e67      	subs	r7, r4, #1
        temp &= ~(GPIO_OSPEEDER_OSPEEDR0 << (position * 2));
 8000fe2:	ea6f 0c0c 	mvn.w	ip, ip
      if (((GPIO_Init->Mode & GPIO_MODE) == MODE_OUTPUT) || ((GPIO_Init->Mode & GPIO_MODE) == MODE_AF))
 8000fe6:	2f01      	cmp	r7, #1
 8000fe8:	d834      	bhi.n	8001054 <HAL_GPIO_Init+0xa0>
        temp = GPIOx->OSPEEDR;
 8000fea:	6887      	ldr	r7, [r0, #8]
        temp &= ~(GPIO_OSPEEDER_OSPEEDR0 << (position * 2));
 8000fec:	ea07 080c 	and.w	r8, r7, ip
        temp |= (GPIO_Init->Speed << (position * 2));
 8000ff0:	68cf      	ldr	r7, [r1, #12]
 8000ff2:	fa07 f70e 	lsl.w	r7, r7, lr
 8000ff6:	ea47 0708 	orr.w	r7, r7, r8
        GPIOx->OSPEEDR = temp;
 8000ffa:	6087      	str	r7, [r0, #8]
        temp = GPIOx->OTYPER;
 8000ffc:	6847      	ldr	r7, [r0, #4]
        temp &= ~(GPIO_OTYPER_OT_0 << position) ;
 8000ffe:	ea27 0806 	bic.w	r8, r7, r6
        temp |= (((GPIO_Init->Mode & OUTPUT_TYPE) >> OUTPUT_TYPE_Pos) << position);
 8001002:	f3c5 1700 	ubfx	r7, r5, #4, #1
 8001006:	409f      	lsls	r7, r3
 8001008:	ea47 0708 	orr.w	r7, r7, r8
        GPIOx->OTYPER = temp;
 800100c:	6047      	str	r7, [r0, #4]
        temp = GPIOx->PUPDR;
 800100e:	68c7      	ldr	r7, [r0, #12]
      if ((GPIO_Init->Mode & GPIO_MODE) == MODE_AF)
 8001010:	2c02      	cmp	r4, #2
        temp &= ~(GPIO_PUPDR_PUPDR0 << (position * 2));
 8001012:	ea07 080c 	and.w	r8, r7, ip
        temp |= ((GPIO_Init->Pull) << (position * 2));
 8001016:	688f      	ldr	r7, [r1, #8]
 8001018:	fa07 f70e 	lsl.w	r7, r7, lr
 800101c:	ea47 0708 	orr.w	r7, r7, r8
        GPIOx->PUPDR = temp;
 8001020:	60c7      	str	r7, [r0, #12]
      if ((GPIO_Init->Mode & GPIO_MODE) == MODE_AF)
 8001022:	d119      	bne.n	8001058 <HAL_GPIO_Init+0xa4>
        temp = GPIOx->AFR[position >> 3];
 8001024:	ea4f 08d3 	mov.w	r8, r3, lsr #3
        temp &= ~((uint32_t)0xF << ((uint32_t)(position & (uint32_t)0x07) * 4)) ;
 8001028:	f003 0a07 	and.w	sl, r3, #7
 800102c:	f04f 0b0f 	mov.w	fp, #15
 8001030:	eb00 0888 	add.w	r8, r0, r8, lsl #2
 8001034:	ea4f 0a8a 	mov.w	sl, sl, lsl #2
        temp = GPIOx->AFR[position >> 3];
 8001038:	f8d8 7020 	ldr.w	r7, [r8, #32]
        temp &= ~((uint32_t)0xF << ((uint32_t)(position & (uint32_t)0x07) * 4)) ;
 800103c:	fa0b fb0a 	lsl.w	fp, fp, sl
 8001040:	ea27 0b0b 	bic.w	fp, r7, fp
        temp |= ((uint32_t)(GPIO_Init->Alternate) << (((uint32_t)position & (uint32_t)0x07) * 4));
 8001044:	690f      	ldr	r7, [r1, #16]
 8001046:	fa07 f70a 	lsl.w	r7, r7, sl
 800104a:	ea47 070b 	orr.w	r7, r7, fp
        GPIOx->AFR[position >> 3] = temp;
 800104e:	f8c8 7020 	str.w	r7, [r8, #32]
 8001052:	e001      	b.n	8001058 <HAL_GPIO_Init+0xa4>
      if ((GPIO_Init->Mode & GPIO_MODE) != MODE_ANALOG)
 8001054:	2c03      	cmp	r4, #3
 8001056:	d1da      	bne.n	800100e <HAL_GPIO_Init+0x5a>
      temp = GPIOx->MODER;
 8001058:	6807      	ldr	r7, [r0, #0]
      temp |= ((GPIO_Init->Mode & GPIO_MODE) << (position * 2));
 800105a:	fa04 f40e 	lsl.w	r4, r4, lr
      if ((GPIO_Init->Mode & EXTI_MODE) != 0x00u)
 800105e:	f415 3f40 	tst.w	r5, #196608	@ 0x30000
      temp &= ~(GPIO_MODER_MODER0 << (position * 2));
 8001062:	ea07 070c 	and.w	r7, r7, ip
      temp |= ((GPIO_Init->Mode & GPIO_MODE) << (position * 2));
 8001066:	ea44 0407 	orr.w	r4, r4, r7
      GPIOx->MODER = temp;
 800106a:	6004      	str	r4, [r0, #0]
      if ((GPIO_Init->Mode & EXTI_MODE) != 0x00u)
 800106c:	d067      	beq.n	800113e <HAL_GPIO_Init+0x18a>
        __HAL_RCC_SYSCFG_CLK_ENABLE();
 800106e:	f8d9 4044 	ldr.w	r4, [r9, #68]	@ 0x44
 8001072:	f023 0703 	bic.w	r7, r3, #3
        temp &= ~(((uint32_t)0x0F) << (4 * (position & 0x03)));
 8001076:	f003 0c03 	and.w	ip, r3, #3
 800107a:	f04f 0e0f 	mov.w	lr, #15
        __HAL_RCC_SYSCFG_CLK_ENABLE();
 800107e:	f444 4480 	orr.w	r4, r4, #16384	@ 0x4000
 8001082:	f107 4780 	add.w	r7, r7, #1073741824	@ 0x40000000
        temp &= ~(((uint32_t)0x0F) << (4 * (position & 0x03)));
 8001086:	ea4f 0c8c 	mov.w	ip, ip, lsl #2
        __HAL_RCC_SYSCFG_CLK_ENABLE();
 800108a:	f8c9 4044 	str.w	r4, [r9, #68]	@ 0x44
 800108e:	f507 379c 	add.w	r7, r7, #79872	@ 0x13800
 8001092:	f8d9 4044 	ldr.w	r4, [r9, #68]	@ 0x44
        temp &= ~(((uint32_t)0x0F) << (4 * (position & 0x03)));
 8001096:	fa0e fe0c 	lsl.w	lr, lr, ip
        __HAL_RCC_SYSCFG_CLK_ENABLE();
 800109a:	f404 4480 	and.w	r4, r4, #16384	@ 0x4000
 800109e:	9401      	str	r4, [sp, #4]
 80010a0:	9c01      	ldr	r4, [sp, #4]
        temp = SYSCFG->EXTICR[position >> 2];
 80010a2:	68bc      	ldr	r4, [r7, #8]
        temp &= ~(((uint32_t)0x0F) << (4 * (position & 0x03)));
 80010a4:	ea24 0e0e 	bic.w	lr, r4, lr
        temp |= ((uint32_t)(GPIO_GET_INDEX(GPIOx)) << (4 * (position & 0x03)));
 80010a8:	4c32      	ldr	r4, [pc, #200]	@ (8001174 <HAL_GPIO_Init+0x1c0>)
 80010aa:	42a0      	cmp	r0, r4
 80010ac:	d04e      	beq.n	800114c <HAL_GPIO_Init+0x198>
 80010ae:	f504 6480 	add.w	r4, r4, #1024	@ 0x400
 80010b2:	42a0      	cmp	r0, r4
 80010b4:	d04c      	beq.n	8001150 <HAL_GPIO_Init+0x19c>
 80010b6:	f504 6480 	add.w	r4, r4, #1024	@ 0x400
 80010ba:	42a0      	cmp	r0, r4
 80010bc:	d04a      	beq.n	8001154 <HAL_GPIO_Init+0x1a0>
 80010be:	f504 6480 	add.w	r4, r4, #1024	@ 0x400
 80010c2:	42a0      	cmp	r0, r4
 80010c4:	d048      	beq.n	8001158 <HAL_GPIO_Init+0x1a4>
 80010c6:	f504 6480 	add.w	r4, r4, #1024	@ 0x400
 80010ca:	42a0      	cmp	r0, r4
 80010cc:	d046      	beq.n	800115c <HAL_GPIO_Init+0x1a8>
 80010ce:	f504 6480 	add.w	r4, r4, #1024	@ 0x400
 80010d2:	42a0      	cmp	r0, r4
 80010d4:	d044      	beq.n	8001160 <HAL_GPIO_Init+0x1ac>
 80010d6:	f504 6480 	add.w	r4, r4, #1024	@ 0x400
 80010da:	42a0      	cmp	r0, r4
 80010dc:	d042      	beq.n	8001164 <HAL_GPIO_Init+0x1b0>
 80010de:	f504 6480 	add.w	r4, r4, #1024	@ 0x400
 80010e2:	42a0      	cmp	r0, r4
 80010e4:	d040      	beq.n	8001168 <HAL_GPIO_Init+0x1b4>
 80010e6:	f504 6480 	add.w	r4, r4, #1024	@ 0x400
 80010ea:	42a0      	cmp	r0, r4
 80010ec:	d03e      	beq.n	800116c <HAL_GPIO_Init+0x1b8>
 80010ee:	f504 6480 	add.w	r4, r4, #1024	@ 0x400
 80010f2:	42a0      	cmp	r0, r4
 80010f4:	bf14      	ite	ne
 80010f6:	240a      	movne	r4, #10
 80010f8:	2409      	moveq	r4, #9
 80010fa:	fa04 f40c 	lsl.w	r4, r4, ip
        temp &= ~((uint32_t)iocurrent);
        if ((GPIO_Init->Mode & TRIGGER_RISING) != 0x00u)
 80010fe:	f415 1f80 	tst.w	r5, #1048576	@ 0x100000
        temp |= ((uint32_t)(GPIO_GET_INDEX(GPIOx)) << (4 * (position & 0x03)));
 8001102:	ea44 040e 	orr.w	r4, r4, lr
        SYSCFG->EXTICR[position >> 2] = temp;
 8001106:	60bc      	str	r4, [r7, #8]
        temp &= ~((uint32_t)iocurrent);
 8001108:	ea6f 0706 	mvn.w	r7, r6
        temp = EXTI->RTSR;
 800110c:	6894      	ldr	r4, [r2, #8]
        temp &= ~((uint32_t)iocurrent);
 800110e:	bf0c      	ite	eq
 8001110:	403c      	andeq	r4, r7
        {
          temp |= iocurrent;
 8001112:	4334      	orrne	r4, r6
        }
        EXTI->RTSR = temp;

        temp = EXTI->FTSR;
        temp &= ~((uint32_t)iocurrent);
        if ((GPIO_Init->Mode & TRIGGER_FALLING) != 0x00u)
 8001114:	f415 1f00 	tst.w	r5, #2097152	@ 0x200000
        EXTI->RTSR = temp;
 8001118:	6094      	str	r4, [r2, #8]
        temp = EXTI->FTSR;
 800111a:	68d4      	ldr	r4, [r2, #12]
        temp &= ~((uint32_t)iocurrent);
 800111c:	bf0c      	ite	eq
 800111e:	403c      	andeq	r4, r7
        {
          temp |= iocurrent;
 8001120:	4334      	orrne	r4, r6
        }
        EXTI->FTSR = temp;

        temp = EXTI->EMR;
        temp &= ~((uint32_t)iocurrent);
        if ((GPIO_Init->Mode & EXTI_EVT) != 0x00u)
 8001122:	f415 3f00 	tst.w	r5, #131072	@ 0x20000
        EXTI->FTSR = temp;
 8001126:	60d4      	str	r4, [r2, #12]
        temp = EXTI->EMR;
 8001128:	6854      	ldr	r4, [r2, #4]
        temp &= ~((uint32_t)iocurrent);
 800112a:	bf0c      	ite	eq
 800112c:	403c      	andeq	r4, r7
        {
          temp |= iocurrent;
 800112e:	4334      	orrne	r4, r6
        EXTI->EMR = temp;

        /* Clear EXTI line configuration */
        temp = EXTI->IMR;
        temp &= ~((uint32_t)iocurrent);
        if ((GPIO_Init->Mode & EXTI_IT) != 0x00u)
 8001130:	03ed      	lsls	r5, r5, #15
        EXTI->EMR = temp;
 8001132:	6054      	str	r4, [r2, #4]
        temp = EXTI->IMR;
 8001134:	6814      	ldr	r4, [r2, #0]
        temp &= ~((uint32_t)iocurrent);
 8001136:	bf54      	ite	pl
 8001138:	403c      	andpl	r4, r7
        {
          temp |= iocurrent;
 800113a:	4334      	orrmi	r4, r6
        }
        EXTI->IMR = temp;
 800113c:	6014      	str	r4, [r2, #0]
  for (position = 0; position < GPIO_NUMBER; position++)
 800113e:	3301      	adds	r3, #1
 8001140:	2b10      	cmp	r3, #16
 8001142:	f47f af3d 	bne.w	8000fc0 <HAL_GPIO_Init+0xc>
      }
    }
  }
}
 8001146:	b003      	add	sp, #12
 8001148:	e8bd 8ff0 	ldmia.w	sp!, {r4, r5, r6, r7, r8, r9, sl, fp, pc}
        temp |= ((uint32_t)(GPIO_GET_INDEX(GPIOx)) << (4 * (position & 0x03)));
 800114c:	2400      	movs	r4, #0
 800114e:	e7d4      	b.n	80010fa <HAL_GPIO_Init+0x146>
 8001150:	2401      	movs	r4, #1
 8001152:	e7d2      	b.n	80010fa <HAL_GPIO_Init+0x146>
 8001154:	2402      	movs	r4, #2
 8001156:	e7d0      	b.n	80010fa <HAL_GPIO_Init+0x146>
 8001158:	2403      	movs	r4, #3
 800115a:	e7ce      	b.n	80010fa <HAL_GPIO_Init+0x146>
 800115c:	2404      	movs	r4, #4
 800115e:	e7cc      	b.n	80010fa <HAL_GPIO_Init+0x146>
 8001160:	2405      	movs	r4, #5
 8001162:	e7ca      	b.n	80010fa <HAL_GPIO_Init+0x146>
 8001164:	2406      	movs	r4, #6
 8001166:	e7c8      	b.n	80010fa <HAL_GPIO_Init+0x146>
 8001168:	2407      	movs	r4, #7
 800116a:	e7c6      	b.n	80010fa <HAL_GPIO_Init+0x146>
 800116c:	2408      	movs	r4, #8
 800116e:	e7c4      	b.n	80010fa <HAL_GPIO_Init+0x146>
 8001170:	40013c00 	.word	0x40013c00
 8001174:	40020000 	.word	0x40020000
 8001178:	40023800 	.word	0x40023800

0800117c <HAL_GPIO_WritePin>:
{
  /* Check the parameters */
  assert_param(IS_GPIO_PIN(GPIO_Pin));
  assert_param(IS_GPIO_PIN_ACTION(PinState));

  if (PinState != GPIO_PIN_RESET)
 800117c:	b10a      	cbz	r2, 8001182 <HAL_GPIO_WritePin+0x6>
  {
    GPIOx->BSRR = GPIO_Pin;
  }
  else
  {
    GPIOx->BSRR = (uint32_t)GPIO_Pin << 16;
 800117e:	6181      	str	r1, [r0, #24]
  }
}
 8001180:	4770      	bx	lr
    GPIOx->BSRR = (uint32_t)GPIO_Pin << 16;
 8001182:	0409      	lsls	r1, r1, #16
 8001184:	e7fb      	b.n	800117e <HAL_GPIO_WritePin+0x2>
	...

08001188 <HAL_PWR_EnableBkUpAccess>:
  * @retval None
  */
void HAL_PWR_EnableBkUpAccess(void)
{
  /* Enable access to RTC and backup registers */
  SET_BIT(PWR->CR1, PWR_CR1_DBP);
 8001188:	4a02      	ldr	r2, [pc, #8]	@ (8001194 <HAL_PWR_EnableBkUpAccess+0xc>)
 800118a:	6813      	ldr	r3, [r2, #0]
 800118c:	f443 7380 	orr.w	r3, r3, #256	@ 0x100
 8001190:	6013      	str	r3, [r2, #0]
}
 8001192:	4770      	bx	lr
 8001194:	40007000 	.word	0x40007000

08001198 <HAL_PWREx_EnableOverDrive>:
  */
HAL_StatusTypeDef HAL_PWREx_EnableOverDrive(void)
{
  uint32_t tickstart = 0;

  __HAL_RCC_PWR_CLK_ENABLE();
 8001198:	4b19      	ldr	r3, [pc, #100]	@ (8001200 <HAL_PWREx_EnableOverDrive+0x68>)
{
 800119a:	b537      	push	{r0, r1, r2, r4, r5, lr}
  __HAL_RCC_PWR_CLK_ENABLE();
 800119c:	6c1a      	ldr	r2, [r3, #64]	@ 0x40
  
  /* Enable the Over-drive to extend the clock frequency to 216 MHz */
  __HAL_PWR_OVERDRIVE_ENABLE();
 800119e:	4c19      	ldr	r4, [pc, #100]	@ (8001204 <HAL_PWREx_EnableOverDrive+0x6c>)
  __HAL_RCC_PWR_CLK_ENABLE();
 80011a0:	f042 5280 	orr.w	r2, r2, #268435456	@ 0x10000000
 80011a4:	641a      	str	r2, [r3, #64]	@ 0x40
 80011a6:	6c1b      	ldr	r3, [r3, #64]	@ 0x40
 80011a8:	f003 5380 	and.w	r3, r3, #268435456	@ 0x10000000
 80011ac:	9301      	str	r3, [sp, #4]
 80011ae:	9b01      	ldr	r3, [sp, #4]
  __HAL_PWR_OVERDRIVE_ENABLE();
 80011b0:	6823      	ldr	r3, [r4, #0]
 80011b2:	f443 3380 	orr.w	r3, r3, #65536	@ 0x10000
 80011b6:	6023      	str	r3, [r4, #0]

  /* Get tick */
  tickstart = HAL_GetTick();
 80011b8:	f7ff fde0 	bl	8000d7c <HAL_GetTick>
 80011bc:	4605      	mov	r5, r0

  while(!__HAL_PWR_GET_FLAG(PWR_FLAG_ODRDY))
 80011be:	6863      	ldr	r3, [r4, #4]
 80011c0:	03da      	lsls	r2, r3, #15
 80011c2:	d50c      	bpl.n	80011de <HAL_PWREx_EnableOverDrive+0x46>
      return HAL_TIMEOUT;
    }
  }
  
  /* Enable the Over-drive switch */
  __HAL_PWR_OVERDRIVESWITCHING_ENABLE();
 80011c4:	6823      	ldr	r3, [r4, #0]

  /* Get tick */
  tickstart = HAL_GetTick();

  while(!__HAL_PWR_GET_FLAG(PWR_FLAG_ODSWRDY))
 80011c6:	4d0f      	ldr	r5, [pc, #60]	@ (8001204 <HAL_PWREx_EnableOverDrive+0x6c>)
  __HAL_PWR_OVERDRIVESWITCHING_ENABLE();
 80011c8:	f443 3300 	orr.w	r3, r3, #131072	@ 0x20000
 80011cc:	6023      	str	r3, [r4, #0]
  tickstart = HAL_GetTick();
 80011ce:	f7ff fdd5 	bl	8000d7c <HAL_GetTick>
 80011d2:	4604      	mov	r4, r0
  while(!__HAL_PWR_GET_FLAG(PWR_FLAG_ODSWRDY))
 80011d4:	686b      	ldr	r3, [r5, #4]
 80011d6:	039b      	lsls	r3, r3, #14
 80011d8:	d50a      	bpl.n	80011f0 <HAL_PWREx_EnableOverDrive+0x58>
    if((HAL_GetTick() - tickstart ) > PWR_OVERDRIVE_TIMEOUT_VALUE)
    {
      return HAL_TIMEOUT;
    }
  } 
  return HAL_OK;
 80011da:	2000      	movs	r0, #0
 80011dc:	e006      	b.n	80011ec <HAL_PWREx_EnableOverDrive+0x54>
    if((HAL_GetTick() - tickstart ) > PWR_OVERDRIVE_TIMEOUT_VALUE)
 80011de:	f7ff fdcd 	bl	8000d7c <HAL_GetTick>
 80011e2:	1b40      	subs	r0, r0, r5
 80011e4:	f5b0 7f7a 	cmp.w	r0, #1000	@ 0x3e8
 80011e8:	d9e9      	bls.n	80011be <HAL_PWREx_EnableOverDrive+0x26>
      return HAL_TIMEOUT;
 80011ea:	2003      	movs	r0, #3
}
 80011ec:	b003      	add	sp, #12
 80011ee:	bd30      	pop	{r4, r5, pc}
    if((HAL_GetTick() - tickstart ) > PWR_OVERDRIVE_TIMEOUT_VALUE)
 80011f0:	f7ff fdc4 	bl	8000d7c <HAL_GetTick>
 80011f4:	1b00      	subs	r0, r0, r4
 80011f6:	f5b0 7f7a 	cmp.w	r0, #1000	@ 0x3e8
 80011fa:	d9eb      	bls.n	80011d4 <HAL_PWREx_EnableOverDrive+0x3c>
 80011fc:	e7f5      	b.n	80011ea <HAL_PWREx_EnableOverDrive+0x52>
 80011fe:	bf00      	nop
 8001200:	40023800 	.word	0x40023800
 8001204:	40007000 	.word	0x40007000

08001208 <HAL_RCC_OscConfig>:
  *         supported by this function. User should request a transition to HSE Off
  *         first and then HSE On or HSE Bypass.
  * @retval HAL status
  */
HAL_StatusTypeDef HAL_RCC_OscConfig(const RCC_OscInitTypeDef  *RCC_OscInitStruct)
{
 8001208:	e92d 41f3 	stmdb	sp!, {r0, r1, r4, r5, r6, r7, r8, lr}
  uint32_t tickstart;
  uint32_t pll_config;
  FlagStatus pwrclkchanged = RESET;

  /* Check Null pointer */
  if (RCC_OscInitStruct == NULL)
 800120c:	4604      	mov	r4, r0
 800120e:	b340      	cbz	r0, 8001262 <HAL_RCC_OscConfig+0x5a>

  /* Check the parameters */
  assert_param(IS_RCC_OSCILLATORTYPE(RCC_OscInitStruct->OscillatorType));

  /*------------------------------- HSE Configuration ------------------------*/
  if (((RCC_OscInitStruct->OscillatorType) & RCC_OSCILLATORTYPE_HSE) == RCC_OSCILLATORTYPE_HSE)
 8001210:	6803      	ldr	r3, [r0, #0]
 8001212:	07de      	lsls	r6, r3, #31
 8001214:	d410      	bmi.n	8001238 <HAL_RCC_OscConfig+0x30>
        }
      }
    }
  }
  /*----------------------------- HSI Configuration --------------------------*/
  if (((RCC_OscInitStruct->OscillatorType) & RCC_OSCILLATORTYPE_HSI) == RCC_OSCILLATORTYPE_HSI)
 8001216:	6823      	ldr	r3, [r4, #0]
 8001218:	079d      	lsls	r5, r3, #30
 800121a:	d461      	bmi.n	80012e0 <HAL_RCC_OscConfig+0xd8>
        }
      }
    }
  }
  /*------------------------------ LSI Configuration -------------------------*/
  if (((RCC_OscInitStruct->OscillatorType) & RCC_OSCILLATORTYPE_LSI) == RCC_OSCILLATORTYPE_LSI)
 800121c:	6823      	ldr	r3, [r4, #0]
 800121e:	0719      	lsls	r1, r3, #28
 8001220:	f100 80a6 	bmi.w	8001370 <HAL_RCC_OscConfig+0x168>
        }
      }
    }
  }
  /*------------------------------ LSE Configuration -------------------------*/
  if (((RCC_OscInitStruct->OscillatorType) & RCC_OSCILLATORTYPE_LSE) == RCC_OSCILLATORTYPE_LSE)
 8001224:	6823      	ldr	r3, [r4, #0]
 8001226:	075a      	lsls	r2, r3, #29
 8001228:	f100 80c7 	bmi.w	80013ba <HAL_RCC_OscConfig+0x1b2>
    }
  }
  /*-------------------------------- PLL Configuration -----------------------*/
  /* Check the parameters */
  assert_param(IS_RCC_PLL(RCC_OscInitStruct->PLL.PLLState));
  if ((RCC_OscInitStruct->PLL.PLLState) != RCC_PLL_NONE)
 800122c:	69a2      	ldr	r2, [r4, #24]
 800122e:	2a00      	cmp	r2, #0
 8001230:	f040 8130 	bne.w	8001494 <HAL_RCC_OscConfig+0x28c>
      {
        return HAL_ERROR;
      }
    }
  }
  return HAL_OK;
 8001234:	2000      	movs	r0, #0
 8001236:	e02c      	b.n	8001292 <HAL_RCC_OscConfig+0x8a>
    if ((__HAL_RCC_GET_SYSCLK_SOURCE() == RCC_SYSCLKSOURCE_STATUS_HSE)
 8001238:	4b94      	ldr	r3, [pc, #592]	@ (800148c <HAL_RCC_OscConfig+0x284>)
 800123a:	689a      	ldr	r2, [r3, #8]
 800123c:	f002 020c 	and.w	r2, r2, #12
 8001240:	2a04      	cmp	r2, #4
 8001242:	d007      	beq.n	8001254 <HAL_RCC_OscConfig+0x4c>
        || ((__HAL_RCC_GET_SYSCLK_SOURCE() == RCC_SYSCLKSOURCE_STATUS_PLLCLK) && ((RCC->PLLCFGR & RCC_PLLCFGR_PLLSRC) == RCC_PLLCFGR_PLLSRC_HSE)))
 8001244:	689a      	ldr	r2, [r3, #8]
 8001246:	f002 020c 	and.w	r2, r2, #12
 800124a:	2a08      	cmp	r2, #8
 800124c:	d10b      	bne.n	8001266 <HAL_RCC_OscConfig+0x5e>
 800124e:	685b      	ldr	r3, [r3, #4]
 8001250:	0259      	lsls	r1, r3, #9
 8001252:	d508      	bpl.n	8001266 <HAL_RCC_OscConfig+0x5e>
      if ((__HAL_RCC_GET_FLAG(RCC_FLAG_HSERDY) != RESET) && (RCC_OscInitStruct->HSEState == RCC_HSE_OFF))
 8001254:	4b8d      	ldr	r3, [pc, #564]	@ (800148c <HAL_RCC_OscConfig+0x284>)
 8001256:	681b      	ldr	r3, [r3, #0]
 8001258:	039a      	lsls	r2, r3, #14
 800125a:	d5dc      	bpl.n	8001216 <HAL_RCC_OscConfig+0xe>
 800125c:	6863      	ldr	r3, [r4, #4]
 800125e:	2b00      	cmp	r3, #0
 8001260:	d1d9      	bne.n	8001216 <HAL_RCC_OscConfig+0xe>
    return HAL_ERROR;
 8001262:	2001      	movs	r0, #1
 8001264:	e015      	b.n	8001292 <HAL_RCC_OscConfig+0x8a>
      __HAL_RCC_HSE_CONFIG(RCC_OscInitStruct->HSEState);
 8001266:	6863      	ldr	r3, [r4, #4]
 8001268:	4d88      	ldr	r5, [pc, #544]	@ (800148c <HAL_RCC_OscConfig+0x284>)
 800126a:	f5b3 3f80 	cmp.w	r3, #65536	@ 0x10000
 800126e:	d113      	bne.n	8001298 <HAL_RCC_OscConfig+0x90>
 8001270:	682b      	ldr	r3, [r5, #0]
 8001272:	f443 3380 	orr.w	r3, r3, #65536	@ 0x10000
 8001276:	602b      	str	r3, [r5, #0]
        tickstart = HAL_GetTick();
 8001278:	f7ff fd80 	bl	8000d7c <HAL_GetTick>
        while (__HAL_RCC_GET_FLAG(RCC_FLAG_HSERDY) == RESET)
 800127c:	4e83      	ldr	r6, [pc, #524]	@ (800148c <HAL_RCC_OscConfig+0x284>)
        tickstart = HAL_GetTick();
 800127e:	4605      	mov	r5, r0
        while (__HAL_RCC_GET_FLAG(RCC_FLAG_HSERDY) == RESET)
 8001280:	6833      	ldr	r3, [r6, #0]
 8001282:	039b      	lsls	r3, r3, #14
 8001284:	d4c7      	bmi.n	8001216 <HAL_RCC_OscConfig+0xe>
          if ((HAL_GetTick() - tickstart) > HSE_TIMEOUT_VALUE)
 8001286:	f7ff fd79 	bl	8000d7c <HAL_GetTick>
 800128a:	1b40      	subs	r0, r0, r5
 800128c:	2864      	cmp	r0, #100	@ 0x64
 800128e:	d9f7      	bls.n	8001280 <HAL_RCC_OscConfig+0x78>
            return HAL_TIMEOUT;
 8001290:	2003      	movs	r0, #3
}
 8001292:	b002      	add	sp, #8
 8001294:	e8bd 81f0 	ldmia.w	sp!, {r4, r5, r6, r7, r8, pc}
      __HAL_RCC_HSE_CONFIG(RCC_OscInitStruct->HSEState);
 8001298:	b99b      	cbnz	r3, 80012c2 <HAL_RCC_OscConfig+0xba>
 800129a:	682b      	ldr	r3, [r5, #0]
 800129c:	f423 3380 	bic.w	r3, r3, #65536	@ 0x10000
 80012a0:	602b      	str	r3, [r5, #0]
 80012a2:	682b      	ldr	r3, [r5, #0]
 80012a4:	f423 2380 	bic.w	r3, r3, #262144	@ 0x40000
 80012a8:	602b      	str	r3, [r5, #0]
        tickstart = HAL_GetTick();
 80012aa:	f7ff fd67 	bl	8000d7c <HAL_GetTick>
 80012ae:	4606      	mov	r6, r0
        while (__HAL_RCC_GET_FLAG(RCC_FLAG_HSERDY) != RESET)
 80012b0:	682b      	ldr	r3, [r5, #0]
 80012b2:	039f      	lsls	r7, r3, #14
 80012b4:	d5af      	bpl.n	8001216 <HAL_RCC_OscConfig+0xe>
          if ((HAL_GetTick() - tickstart) > HSE_TIMEOUT_VALUE)
 80012b6:	f7ff fd61 	bl	8000d7c <HAL_GetTick>
 80012ba:	1b80      	subs	r0, r0, r6
 80012bc:	2864      	cmp	r0, #100	@ 0x64
 80012be:	d9f7      	bls.n	80012b0 <HAL_RCC_OscConfig+0xa8>
 80012c0:	e7e6      	b.n	8001290 <HAL_RCC_OscConfig+0x88>
      __HAL_RCC_HSE_CONFIG(RCC_OscInitStruct->HSEState);
 80012c2:	f5b3 2fa0 	cmp.w	r3, #327680	@ 0x50000
 80012c6:	682b      	ldr	r3, [r5, #0]
 80012c8:	d103      	bne.n	80012d2 <HAL_RCC_OscConfig+0xca>
 80012ca:	f443 2380 	orr.w	r3, r3, #262144	@ 0x40000
 80012ce:	602b      	str	r3, [r5, #0]
 80012d0:	e7ce      	b.n	8001270 <HAL_RCC_OscConfig+0x68>
 80012d2:	f423 3380 	bic.w	r3, r3, #65536	@ 0x10000
 80012d6:	602b      	str	r3, [r5, #0]
 80012d8:	682b      	ldr	r3, [r5, #0]
 80012da:	f423 2380 	bic.w	r3, r3, #262144	@ 0x40000
 80012de:	e7ca      	b.n	8001276 <HAL_RCC_OscConfig+0x6e>
    if ((__HAL_RCC_GET_SYSCLK_SOURCE() == RCC_SYSCLKSOURCE_STATUS_HSI)
 80012e0:	4b6a      	ldr	r3, [pc, #424]	@ (800148c <HAL_RCC_OscConfig+0x284>)
 80012e2:	689a      	ldr	r2, [r3, #8]
 80012e4:	f012 0f0c 	tst.w	r2, #12
 80012e8:	d007      	beq.n	80012fa <HAL_RCC_OscConfig+0xf2>
        || ((__HAL_RCC_GET_SYSCLK_SOURCE() == RCC_SYSCLKSOURCE_STATUS_PLLCLK) && ((RCC->PLLCFGR & RCC_PLLCFGR_PLLSRC) == RCC_PLLCFGR_PLLSRC_HSI)))
 80012ea:	689a      	ldr	r2, [r3, #8]
 80012ec:	f002 020c 	and.w	r2, r2, #12
 80012f0:	2a08      	cmp	r2, #8
 80012f2:	d111      	bne.n	8001318 <HAL_RCC_OscConfig+0x110>
 80012f4:	685b      	ldr	r3, [r3, #4]
 80012f6:	025d      	lsls	r5, r3, #9
 80012f8:	d40e      	bmi.n	8001318 <HAL_RCC_OscConfig+0x110>
      if ((__HAL_RCC_GET_FLAG(RCC_FLAG_HSIRDY) != RESET) && (RCC_OscInitStruct->HSIState != RCC_HSI_ON))
 80012fa:	4a64      	ldr	r2, [pc, #400]	@ (800148c <HAL_RCC_OscConfig+0x284>)
 80012fc:	6813      	ldr	r3, [r2, #0]
 80012fe:	0799      	lsls	r1, r3, #30
 8001300:	d502      	bpl.n	8001308 <HAL_RCC_OscConfig+0x100>
 8001302:	68e3      	ldr	r3, [r4, #12]
 8001304:	2b01      	cmp	r3, #1
 8001306:	d1ac      	bne.n	8001262 <HAL_RCC_OscConfig+0x5a>
        __HAL_RCC_HSI_CALIBRATIONVALUE_ADJUST(RCC_OscInitStruct->HSICalibrationValue);
 8001308:	6813      	ldr	r3, [r2, #0]
 800130a:	6921      	ldr	r1, [r4, #16]
 800130c:	f023 03f8 	bic.w	r3, r3, #248	@ 0xf8
 8001310:	ea43 03c1 	orr.w	r3, r3, r1, lsl #3
 8001314:	6013      	str	r3, [r2, #0]
      if ((__HAL_RCC_GET_FLAG(RCC_FLAG_HSIRDY) != RESET) && (RCC_OscInitStruct->HSIState != RCC_HSI_ON))
 8001316:	e781      	b.n	800121c <HAL_RCC_OscConfig+0x14>
      if ((RCC_OscInitStruct->HSIState) != RCC_HSI_OFF)
 8001318:	68e3      	ldr	r3, [r4, #12]
 800131a:	4d5c      	ldr	r5, [pc, #368]	@ (800148c <HAL_RCC_OscConfig+0x284>)
 800131c:	b1bb      	cbz	r3, 800134e <HAL_RCC_OscConfig+0x146>
        __HAL_RCC_HSI_ENABLE();
 800131e:	682b      	ldr	r3, [r5, #0]
 8001320:	f043 0301 	orr.w	r3, r3, #1
 8001324:	602b      	str	r3, [r5, #0]
        tickstart = HAL_GetTick();
 8001326:	f7ff fd29 	bl	8000d7c <HAL_GetTick>
 800132a:	4606      	mov	r6, r0
        while (__HAL_RCC_GET_FLAG(RCC_FLAG_HSIRDY) == RESET)
 800132c:	682b      	ldr	r3, [r5, #0]
 800132e:	079b      	lsls	r3, r3, #30
 8001330:	d507      	bpl.n	8001342 <HAL_RCC_OscConfig+0x13a>
        __HAL_RCC_HSI_CALIBRATIONVALUE_ADJUST(RCC_OscInitStruct->HSICalibrationValue);
 8001332:	682b      	ldr	r3, [r5, #0]
 8001334:	6922      	ldr	r2, [r4, #16]
 8001336:	f023 03f8 	bic.w	r3, r3, #248	@ 0xf8
 800133a:	ea43 03c2 	orr.w	r3, r3, r2, lsl #3
 800133e:	602b      	str	r3, [r5, #0]
 8001340:	e76c      	b.n	800121c <HAL_RCC_OscConfig+0x14>
          if ((HAL_GetTick() - tickstart) > HSI_TIMEOUT_VALUE)
 8001342:	f7ff fd1b 	bl	8000d7c <HAL_GetTick>
 8001346:	1b80      	subs	r0, r0, r6
 8001348:	2802      	cmp	r0, #2
 800134a:	d9ef      	bls.n	800132c <HAL_RCC_OscConfig+0x124>
 800134c:	e7a0      	b.n	8001290 <HAL_RCC_OscConfig+0x88>
        __HAL_RCC_HSI_DISABLE();
 800134e:	682b      	ldr	r3, [r5, #0]
 8001350:	f023 0301 	bic.w	r3, r3, #1
 8001354:	602b      	str	r3, [r5, #0]
        tickstart = HAL_GetTick();
 8001356:	f7ff fd11 	bl	8000d7c <HAL_GetTick>
 800135a:	4606      	mov	r6, r0
        while (__HAL_RCC_GET_FLAG(RCC_FLAG_HSIRDY) != RESET)
 800135c:	682b      	ldr	r3, [r5, #0]
 800135e:	079f      	lsls	r7, r3, #30
 8001360:	f57f af5c 	bpl.w	800121c <HAL_RCC_OscConfig+0x14>
          if ((HAL_GetTick() - tickstart) > HSI_TIMEOUT_VALUE)
 8001364:	f7ff fd0a 	bl	8000d7c <HAL_GetTick>
 8001368:	1b80      	subs	r0, r0, r6
 800136a:	2802      	cmp	r0, #2
 800136c:	d9f6      	bls.n	800135c <HAL_RCC_OscConfig+0x154>
 800136e:	e78f      	b.n	8001290 <HAL_RCC_OscConfig+0x88>
    if ((RCC_OscInitStruct->LSIState) != RCC_LSI_OFF)
 8001370:	6963      	ldr	r3, [r4, #20]
 8001372:	4d46      	ldr	r5, [pc, #280]	@ (800148c <HAL_RCC_OscConfig+0x284>)
 8001374:	b183      	cbz	r3, 8001398 <HAL_RCC_OscConfig+0x190>
      __HAL_RCC_LSI_ENABLE();
 8001376:	6f6b      	ldr	r3, [r5, #116]	@ 0x74
 8001378:	f043 0301 	orr.w	r3, r3, #1
 800137c:	676b      	str	r3, [r5, #116]	@ 0x74
      tickstart = HAL_GetTick();
 800137e:	f7ff fcfd 	bl	8000d7c <HAL_GetTick>
 8001382:	4606      	mov	r6, r0
      while (__HAL_RCC_GET_FLAG(RCC_FLAG_LSIRDY) == RESET)
 8001384:	6f6b      	ldr	r3, [r5, #116]	@ 0x74
 8001386:	079b      	lsls	r3, r3, #30
 8001388:	f53f af4c 	bmi.w	8001224 <HAL_RCC_OscConfig+0x1c>
        if ((HAL_GetTick() - tickstart) > LSI_TIMEOUT_VALUE)
 800138c:	f7ff fcf6 	bl	8000d7c <HAL_GetTick>
 8001390:	1b80      	subs	r0, r0, r6
 8001392:	2802      	cmp	r0, #2
 8001394:	d9f6      	bls.n	8001384 <HAL_RCC_OscConfig+0x17c>
 8001396:	e77b      	b.n	8001290 <HAL_RCC_OscConfig+0x88>
      __HAL_RCC_LSI_DISABLE();
 8001398:	6f6b      	ldr	r3, [r5, #116]	@ 0x74
 800139a:	f023 0301 	bic.w	r3, r3, #1
 800139e:	676b      	str	r3, [r5, #116]	@ 0x74
      tickstart = HAL_GetTick();
 80013a0:	f7ff fcec 	bl	8000d7c <HAL_GetTick>
 80013a4:	4606      	mov	r6, r0
      while (__HAL_RCC_GET_FLAG(RCC_FLAG_LSIRDY) != RESET)
 80013a6:	6f6b      	ldr	r3, [r5, #116]	@ 0x74
 80013a8:	079f      	lsls	r7, r3, #30
 80013aa:	f57f af3b 	bpl.w	8001224 <HAL_RCC_OscConfig+0x1c>
        if ((HAL_GetTick() - tickstart) > LSI_TIMEOUT_VALUE)
 80013ae:	f7ff fce5 	bl	8000d7c <HAL_GetTick>
 80013b2:	1b80      	subs	r0, r0, r6
 80013b4:	2802      	cmp	r0, #2
 80013b6:	d9f6      	bls.n	80013a6 <HAL_RCC_OscConfig+0x19e>
 80013b8:	e76a      	b.n	8001290 <HAL_RCC_OscConfig+0x88>
    if (__HAL_RCC_PWR_IS_CLK_DISABLED())
 80013ba:	4b34      	ldr	r3, [pc, #208]	@ (800148c <HAL_RCC_OscConfig+0x284>)
 80013bc:	6c1a      	ldr	r2, [r3, #64]	@ 0x40
 80013be:	00d5      	lsls	r5, r2, #3
 80013c0:	d427      	bmi.n	8001412 <HAL_RCC_OscConfig+0x20a>
      __HAL_RCC_PWR_CLK_ENABLE();
 80013c2:	6c1a      	ldr	r2, [r3, #64]	@ 0x40
      pwrclkchanged = SET;
 80013c4:	2701      	movs	r7, #1
      __HAL_RCC_PWR_CLK_ENABLE();
 80013c6:	f042 5280 	orr.w	r2, r2, #268435456	@ 0x10000000
 80013ca:	641a      	str	r2, [r3, #64]	@ 0x40
 80013cc:	6c1b      	ldr	r3, [r3, #64]	@ 0x40
 80013ce:	f003 5380 	and.w	r3, r3, #268435456	@ 0x10000000
 80013d2:	9301      	str	r3, [sp, #4]
 80013d4:	9b01      	ldr	r3, [sp, #4]
    if (HAL_IS_BIT_CLR(PWR->CR1, PWR_CR1_DBP))
 80013d6:	4d2e      	ldr	r5, [pc, #184]	@ (8001490 <HAL_RCC_OscConfig+0x288>)
 80013d8:	682b      	ldr	r3, [r5, #0]
 80013da:	05d8      	lsls	r0, r3, #23
 80013dc:	d51b      	bpl.n	8001416 <HAL_RCC_OscConfig+0x20e>
    __HAL_RCC_LSE_CONFIG(RCC_OscInitStruct->LSEState);
 80013de:	68a3      	ldr	r3, [r4, #8]
 80013e0:	4d2a      	ldr	r5, [pc, #168]	@ (800148c <HAL_RCC_OscConfig+0x284>)
 80013e2:	2b01      	cmp	r3, #1
 80013e4:	d127      	bne.n	8001436 <HAL_RCC_OscConfig+0x22e>
 80013e6:	6f2b      	ldr	r3, [r5, #112]	@ 0x70
 80013e8:	f043 0301 	orr.w	r3, r3, #1
 80013ec:	672b      	str	r3, [r5, #112]	@ 0x70
        if ((HAL_GetTick() - tickstart) > RCC_LSE_TIMEOUT_VALUE)
 80013ee:	f241 3888 	movw	r8, #5000	@ 0x1388
      tickstart = HAL_GetTick();
 80013f2:	f7ff fcc3 	bl	8000d7c <HAL_GetTick>
      while (__HAL_RCC_GET_FLAG(RCC_FLAG_LSERDY) == RESET)
 80013f6:	4e25      	ldr	r6, [pc, #148]	@ (800148c <HAL_RCC_OscConfig+0x284>)
      tickstart = HAL_GetTick();
 80013f8:	4605      	mov	r5, r0
      while (__HAL_RCC_GET_FLAG(RCC_FLAG_LSERDY) == RESET)
 80013fa:	6f33      	ldr	r3, [r6, #112]	@ 0x70
 80013fc:	079a      	lsls	r2, r3, #30
 80013fe:	d53f      	bpl.n	8001480 <HAL_RCC_OscConfig+0x278>
    if (pwrclkchanged == SET)
 8001400:	2f00      	cmp	r7, #0
 8001402:	f43f af13 	beq.w	800122c <HAL_RCC_OscConfig+0x24>
      __HAL_RCC_PWR_CLK_DISABLE();
 8001406:	4a21      	ldr	r2, [pc, #132]	@ (800148c <HAL_RCC_OscConfig+0x284>)
 8001408:	6c13      	ldr	r3, [r2, #64]	@ 0x40
 800140a:	f023 5380 	bic.w	r3, r3, #268435456	@ 0x10000000
 800140e:	6413      	str	r3, [r2, #64]	@ 0x40
 8001410:	e70c      	b.n	800122c <HAL_RCC_OscConfig+0x24>
  FlagStatus pwrclkchanged = RESET;
 8001412:	2700      	movs	r7, #0
 8001414:	e7df      	b.n	80013d6 <HAL_RCC_OscConfig+0x1ce>
      PWR->CR1 |= PWR_CR1_DBP;
 8001416:	682b      	ldr	r3, [r5, #0]
 8001418:	f443 7380 	orr.w	r3, r3, #256	@ 0x100
 800141c:	602b      	str	r3, [r5, #0]
      tickstart = HAL_GetTick();
 800141e:	f7ff fcad 	bl	8000d7c <HAL_GetTick>
 8001422:	4606      	mov	r6, r0
      while (HAL_IS_BIT_CLR(PWR->CR1, PWR_CR1_DBP))
 8001424:	682b      	ldr	r3, [r5, #0]
 8001426:	05d9      	lsls	r1, r3, #23
 8001428:	d4d9      	bmi.n	80013de <HAL_RCC_OscConfig+0x1d6>
        if ((HAL_GetTick() - tickstart) > RCC_DBP_TIMEOUT_VALUE)
 800142a:	f7ff fca7 	bl	8000d7c <HAL_GetTick>
 800142e:	1b80      	subs	r0, r0, r6
 8001430:	2864      	cmp	r0, #100	@ 0x64
 8001432:	d9f7      	bls.n	8001424 <HAL_RCC_OscConfig+0x21c>
 8001434:	e72c      	b.n	8001290 <HAL_RCC_OscConfig+0x88>
    __HAL_RCC_LSE_CONFIG(RCC_OscInitStruct->LSEState);
 8001436:	b9ab      	cbnz	r3, 8001464 <HAL_RCC_OscConfig+0x25c>
 8001438:	6f2b      	ldr	r3, [r5, #112]	@ 0x70
        if ((HAL_GetTick() - tickstart) > RCC_LSE_TIMEOUT_VALUE)
 800143a:	f241 3888 	movw	r8, #5000	@ 0x1388
    __HAL_RCC_LSE_CONFIG(RCC_OscInitStruct->LSEState);
 800143e:	f023 0301 	bic.w	r3, r3, #1
 8001442:	672b      	str	r3, [r5, #112]	@ 0x70
 8001444:	6f2b      	ldr	r3, [r5, #112]	@ 0x70
 8001446:	f023 0304 	bic.w	r3, r3, #4
 800144a:	672b      	str	r3, [r5, #112]	@ 0x70
      tickstart = HAL_GetTick();
 800144c:	f7ff fc96 	bl	8000d7c <HAL_GetTick>
 8001450:	4606      	mov	r6, r0
      while (__HAL_RCC_GET_FLAG(RCC_FLAG_LSERDY) != RESET)
 8001452:	6f2b      	ldr	r3, [r5, #112]	@ 0x70
 8001454:	079b      	lsls	r3, r3, #30
 8001456:	d5d3      	bpl.n	8001400 <HAL_RCC_OscConfig+0x1f8>
        if ((HAL_GetTick() - tickstart) > RCC_LSE_TIMEOUT_VALUE)
 8001458:	f7ff fc90 	bl	8000d7c <HAL_GetTick>
 800145c:	1b80      	subs	r0, r0, r6
 800145e:	4540      	cmp	r0, r8
 8001460:	d9f7      	bls.n	8001452 <HAL_RCC_OscConfig+0x24a>
 8001462:	e715      	b.n	8001290 <HAL_RCC_OscConfig+0x88>
    __HAL_RCC_LSE_CONFIG(RCC_OscInitStruct->LSEState);
 8001464:	2b05      	cmp	r3, #5
 8001466:	6f2b      	ldr	r3, [r5, #112]	@ 0x70
 8001468:	d103      	bne.n	8001472 <HAL_RCC_OscConfig+0x26a>
 800146a:	f043 0304 	orr.w	r3, r3, #4
 800146e:	672b      	str	r3, [r5, #112]	@ 0x70
 8001470:	e7b9      	b.n	80013e6 <HAL_RCC_OscConfig+0x1de>
 8001472:	f023 0301 	bic.w	r3, r3, #1
 8001476:	672b      	str	r3, [r5, #112]	@ 0x70
 8001478:	6f2b      	ldr	r3, [r5, #112]	@ 0x70
 800147a:	f023 0304 	bic.w	r3, r3, #4
 800147e:	e7b5      	b.n	80013ec <HAL_RCC_OscConfig+0x1e4>
        if ((HAL_GetTick() - tickstart) > RCC_LSE_TIMEOUT_VALUE)
 8001480:	f7ff fc7c 	bl	8000d7c <HAL_GetTick>
 8001484:	1b40      	subs	r0, r0, r5
 8001486:	4540      	cmp	r0, r8
 8001488:	d9b7      	bls.n	80013fa <HAL_RCC_OscConfig+0x1f2>
 800148a:	e701      	b.n	8001290 <HAL_RCC_OscConfig+0x88>
 800148c:	40023800 	.word	0x40023800
 8001490:	40007000 	.word	0x40007000
    if (__HAL_RCC_GET_SYSCLK_SOURCE() != RCC_SYSCLKSOURCE_STATUS_PLLCLK)
 8001494:	4d38      	ldr	r5, [pc, #224]	@ (8001578 <HAL_RCC_OscConfig+0x370>)
 8001496:	68ab      	ldr	r3, [r5, #8]
 8001498:	f003 030c 	and.w	r3, r3, #12
 800149c:	2b08      	cmp	r3, #8
 800149e:	d041      	beq.n	8001524 <HAL_RCC_OscConfig+0x31c>
        __HAL_RCC_PLL_DISABLE();
 80014a0:	682b      	ldr	r3, [r5, #0]
      if ((RCC_OscInitStruct->PLL.PLLState) == RCC_PLL_ON)
 80014a2:	2a02      	cmp	r2, #2
        __HAL_RCC_PLL_DISABLE();
 80014a4:	f023 7380 	bic.w	r3, r3, #16777216	@ 0x1000000
 80014a8:	602b      	str	r3, [r5, #0]
      if ((RCC_OscInitStruct->PLL.PLLState) == RCC_PLL_ON)
 80014aa:	d12e      	bne.n	800150a <HAL_RCC_OscConfig+0x302>
        tickstart = HAL_GetTick();
 80014ac:	f7ff fc66 	bl	8000d7c <HAL_GetTick>
 80014b0:	4606      	mov	r6, r0
        while (__HAL_RCC_GET_FLAG(RCC_FLAG_PLLRDY) != RESET)
 80014b2:	682b      	ldr	r3, [r5, #0]
 80014b4:	0199      	lsls	r1, r3, #6
 80014b6:	d422      	bmi.n	80014fe <HAL_RCC_OscConfig+0x2f6>
        __HAL_RCC_PLL_CONFIG(RCC_OscInitStruct->PLL.PLLSource,
 80014b8:	6aa3      	ldr	r3, [r4, #40]	@ 0x28
 80014ba:	085b      	lsrs	r3, r3, #1
 80014bc:	1e5a      	subs	r2, r3, #1
 80014be:	e9d4 3107 	ldrd	r3, r1, [r4, #28]
 80014c2:	430b      	orrs	r3, r1
 80014c4:	ea43 4302 	orr.w	r3, r3, r2, lsl #16
 80014c8:	6a62      	ldr	r2, [r4, #36]	@ 0x24
 80014ca:	ea43 1382 	orr.w	r3, r3, r2, lsl #6
 80014ce:	6ae2      	ldr	r2, [r4, #44]	@ 0x2c
 80014d0:	ea43 6302 	orr.w	r3, r3, r2, lsl #24
 80014d4:	f043 5300 	orr.w	r3, r3, #536870912	@ 0x20000000
 80014d8:	606b      	str	r3, [r5, #4]
        __HAL_RCC_PLL_ENABLE();
 80014da:	682b      	ldr	r3, [r5, #0]
 80014dc:	f043 7380 	orr.w	r3, r3, #16777216	@ 0x1000000
 80014e0:	602b      	str	r3, [r5, #0]
        tickstart = HAL_GetTick();
 80014e2:	f7ff fc4b 	bl	8000d7c <HAL_GetTick>
        while (__HAL_RCC_GET_FLAG(RCC_FLAG_PLLRDY) == RESET)
 80014e6:	4d24      	ldr	r5, [pc, #144]	@ (8001578 <HAL_RCC_OscConfig+0x370>)
        tickstart = HAL_GetTick();
 80014e8:	4604      	mov	r4, r0
        while (__HAL_RCC_GET_FLAG(RCC_FLAG_PLLRDY) == RESET)
 80014ea:	682b      	ldr	r3, [r5, #0]
 80014ec:	019a      	lsls	r2, r3, #6
 80014ee:	f53f aea1 	bmi.w	8001234 <HAL_RCC_OscConfig+0x2c>
          if ((HAL_GetTick() - tickstart) > PLL_TIMEOUT_VALUE)
 80014f2:	f7ff fc43 	bl	8000d7c <HAL_GetTick>
 80014f6:	1b00      	subs	r0, r0, r4
 80014f8:	2802      	cmp	r0, #2
 80014fa:	d9f6      	bls.n	80014ea <HAL_RCC_OscConfig+0x2e2>
 80014fc:	e6c8      	b.n	8001290 <HAL_RCC_OscConfig+0x88>
          if ((HAL_GetTick() - tickstart) > PLL_TIMEOUT_VALUE)
 80014fe:	f7ff fc3d 	bl	8000d7c <HAL_GetTick>
 8001502:	1b80      	subs	r0, r0, r6
 8001504:	2802      	cmp	r0, #2
 8001506:	d9d4      	bls.n	80014b2 <HAL_RCC_OscConfig+0x2aa>
 8001508:	e6c2      	b.n	8001290 <HAL_RCC_OscConfig+0x88>
        tickstart = HAL_GetTick();
 800150a:	f7ff fc37 	bl	8000d7c <HAL_GetTick>
 800150e:	4604      	mov	r4, r0
        while (__HAL_RCC_GET_FLAG(RCC_FLAG_PLLRDY) != RESET)
 8001510:	682b      	ldr	r3, [r5, #0]
 8001512:	019b      	lsls	r3, r3, #6
 8001514:	f57f ae8e 	bpl.w	8001234 <HAL_RCC_OscConfig+0x2c>
          if ((HAL_GetTick() - tickstart) > PLL_TIMEOUT_VALUE)
 8001518:	f7ff fc30 	bl	8000d7c <HAL_GetTick>
 800151c:	1b00      	subs	r0, r0, r4
 800151e:	2802      	cmp	r0, #2
 8001520:	d9f6      	bls.n	8001510 <HAL_RCC_OscConfig+0x308>
 8001522:	e6b5      	b.n	8001290 <HAL_RCC_OscConfig+0x88>
      if (((RCC_OscInitStruct->PLL.PLLState) == RCC_PLL_OFF) ||
 8001524:	2a01      	cmp	r2, #1
      pll_config = RCC->PLLCFGR;
 8001526:	686b      	ldr	r3, [r5, #4]
      if (((RCC_OscInitStruct->PLL.PLLState) == RCC_PLL_OFF) ||
 8001528:	f43f ae9b 	beq.w	8001262 <HAL_RCC_OscConfig+0x5a>
          (READ_BIT(pll_config, RCC_PLLCFGR_PLLSRC) != RCC_OscInitStruct->PLL.PLLSource) ||
 800152c:	f403 0280 	and.w	r2, r3, #4194304	@ 0x400000
      if (((RCC_OscInitStruct->PLL.PLLState) == RCC_PLL_OFF) ||
 8001530:	69e1      	ldr	r1, [r4, #28]
 8001532:	428a      	cmp	r2, r1
 8001534:	f47f ae95 	bne.w	8001262 <HAL_RCC_OscConfig+0x5a>
          (READ_BIT(pll_config, RCC_PLLCFGR_PLLM) != RCC_OscInitStruct->PLL.PLLM) ||
 8001538:	f003 023f 	and.w	r2, r3, #63	@ 0x3f
          (READ_BIT(pll_config, RCC_PLLCFGR_PLLSRC) != RCC_OscInitStruct->PLL.PLLSource) ||
 800153c:	6a21      	ldr	r1, [r4, #32]
 800153e:	428a      	cmp	r2, r1
 8001540:	f47f ae8f 	bne.w	8001262 <HAL_RCC_OscConfig+0x5a>
          (READ_BIT(pll_config, RCC_PLLCFGR_PLLM) != RCC_OscInitStruct->PLL.PLLM) ||
 8001544:	f647 72c0 	movw	r2, #32704	@ 0x7fc0
          (READ_BIT(pll_config, RCC_PLLCFGR_PLLN) != (RCC_OscInitStruct->PLL.PLLN << RCC_PLLCFGR_PLLN_Pos)) ||
 8001548:	6a61      	ldr	r1, [r4, #36]	@ 0x24
          (READ_BIT(pll_config, RCC_PLLCFGR_PLLM) != RCC_OscInitStruct->PLL.PLLM) ||
 800154a:	401a      	ands	r2, r3
 800154c:	ebb2 1f81 	cmp.w	r2, r1, lsl #6
 8001550:	f47f ae87 	bne.w	8001262 <HAL_RCC_OscConfig+0x5a>
          (READ_BIT(pll_config, RCC_PLLCFGR_PLLP) != ((((RCC_OscInitStruct->PLL.PLLP) >> 1U) - 1U) << RCC_PLLCFGR_PLLP_Pos)) ||
 8001554:	6aa2      	ldr	r2, [r4, #40]	@ 0x28
 8001556:	f403 3140 	and.w	r1, r3, #196608	@ 0x30000
 800155a:	0852      	lsrs	r2, r2, #1
 800155c:	3a01      	subs	r2, #1
          (READ_BIT(pll_config, RCC_PLLCFGR_PLLN) != (RCC_OscInitStruct->PLL.PLLN << RCC_PLLCFGR_PLLN_Pos)) ||
 800155e:	ebb1 4f02 	cmp.w	r1, r2, lsl #16
 8001562:	f47f ae7e 	bne.w	8001262 <HAL_RCC_OscConfig+0x5a>
          (READ_BIT(pll_config, RCC_PLLCFGR_PLLQ) != (RCC_OscInitStruct->PLL.PLLQ << RCC_PLLCFGR_PLLQ_Pos)))
 8001566:	6ae2      	ldr	r2, [r4, #44]	@ 0x2c
 8001568:	f003 6370 	and.w	r3, r3, #251658240	@ 0xf000000
          (READ_BIT(pll_config, RCC_PLLCFGR_PLLP) != ((((RCC_OscInitStruct->PLL.PLLP) >> 1U) - 1U) << RCC_PLLCFGR_PLLP_Pos)) ||
 800156c:	ebb3 6f02 	cmp.w	r3, r2, lsl #24
 8001570:	bf14      	ite	ne
 8001572:	2001      	movne	r0, #1
 8001574:	2000      	moveq	r0, #0
 8001576:	e68c      	b.n	8001292 <HAL_RCC_OscConfig+0x8a>
 8001578:	40023800 	.word	0x40023800

0800157c <HAL_RCC_GetSysClockFreq>:
{
  uint32_t pllm = 0, pllvco = 0, pllp = 0;
  uint32_t sysclockfreq = 0;

  /* Get SYSCLK source -------------------------------------------------------*/
  switch (RCC->CFGR & RCC_CFGR_SWS)
 800157c:	4913      	ldr	r1, [pc, #76]	@ (80015cc <HAL_RCC_GetSysClockFreq+0x50>)
{
 800157e:	b508      	push	{r3, lr}
  switch (RCC->CFGR & RCC_CFGR_SWS)
 8001580:	688b      	ldr	r3, [r1, #8]
 8001582:	f003 030c 	and.w	r3, r3, #12
 8001586:	2b04      	cmp	r3, #4
 8001588:	d01b      	beq.n	80015c2 <HAL_RCC_GetSysClockFreq+0x46>
 800158a:	2b08      	cmp	r3, #8
 800158c:	d11b      	bne.n	80015c6 <HAL_RCC_GetSysClockFreq+0x4a>
    }
    case RCC_SYSCLKSOURCE_STATUS_PLLCLK:  /* PLL used as system clock  source */
    {
      /* PLL_VCO = (HSE_VALUE or HSI_VALUE / PLLM) * PLLN
      SYSCLK = PLL_VCO / PLLP */
      pllm = RCC->PLLCFGR & RCC_PLLCFGR_PLLM;
 800158e:	684a      	ldr	r2, [r1, #4]
      if (__HAL_RCC_GET_PLL_OSCSOURCE() != RCC_PLLCFGR_PLLSRC_HSI)
 8001590:	684b      	ldr	r3, [r1, #4]
      {
        /* HSE used as PLL clock source */
        pllvco = (uint32_t)((((uint64_t) HSE_VALUE * ((uint64_t)((RCC->PLLCFGR & RCC_PLLCFGR_PLLN) >> RCC_PLLCFGR_PLLN_Pos)))) / (uint64_t)pllm);
 8001592:	6849      	ldr	r1, [r1, #4]
      pllm = RCC->PLLCFGR & RCC_PLLCFGR_PLLM;
 8001594:	f002 023f 	and.w	r2, r2, #63	@ 0x3f
      if (__HAL_RCC_GET_PLL_OSCSOURCE() != RCC_PLLCFGR_PLLSRC_HSI)
 8001598:	f413 0380 	ands.w	r3, r3, #4194304	@ 0x400000
        pllvco = (uint32_t)((((uint64_t) HSE_VALUE * ((uint64_t)((RCC->PLLCFGR & RCC_PLLCFGR_PLLN) >> RCC_PLLCFGR_PLLN_Pos)))) / (uint64_t)pllm);
 800159c:	f3c1 1188 	ubfx	r1, r1, #6, #9
 80015a0:	bf1a      	itte	ne
 80015a2:	480b      	ldrne	r0, [pc, #44]	@ (80015d0 <HAL_RCC_GetSysClockFreq+0x54>)
 80015a4:	2300      	movne	r3, #0
      }
      else
      {
        /* HSI used as PLL clock source */
        pllvco = (uint32_t)((((uint64_t) HSI_VALUE * ((uint64_t)((RCC->PLLCFGR & RCC_PLLCFGR_PLLN) >> RCC_PLLCFGR_PLLN_Pos)))) / (uint64_t)pllm);
 80015a6:	480b      	ldreq	r0, [pc, #44]	@ (80015d4 <HAL_RCC_GetSysClockFreq+0x58>)
 80015a8:	fba1 0100 	umull	r0, r1, r1, r0
 80015ac:	f7fe fe80 	bl	80002b0 <__aeabi_uldivmod>
      }
      pllp = ((((RCC->PLLCFGR & RCC_PLLCFGR_PLLP) >> RCC_PLLCFGR_PLLP_Pos) + 1) * 2);
 80015b0:	4b06      	ldr	r3, [pc, #24]	@ (80015cc <HAL_RCC_GetSysClockFreq+0x50>)
 80015b2:	685b      	ldr	r3, [r3, #4]
 80015b4:	f3c3 4301 	ubfx	r3, r3, #16, #2
 80015b8:	3301      	adds	r3, #1
 80015ba:	005b      	lsls	r3, r3, #1

      sysclockfreq = pllvco / pllp;
 80015bc:	fbb0 f0f3 	udiv	r0, r0, r3
      sysclockfreq = HSI_VALUE;
      break;
    }
  }
  return sysclockfreq;
}
 80015c0:	bd08      	pop	{r3, pc}
  switch (RCC->CFGR & RCC_CFGR_SWS)
 80015c2:	4803      	ldr	r0, [pc, #12]	@ (80015d0 <HAL_RCC_GetSysClockFreq+0x54>)
 80015c4:	e7fc      	b.n	80015c0 <HAL_RCC_GetSysClockFreq+0x44>
      sysclockfreq = HSI_VALUE;
 80015c6:	4803      	ldr	r0, [pc, #12]	@ (80015d4 <HAL_RCC_GetSysClockFreq+0x58>)
  return sysclockfreq;
 80015c8:	e7fa      	b.n	80015c0 <HAL_RCC_GetSysClockFreq+0x44>
 80015ca:	bf00      	nop
 80015cc:	40023800 	.word	0x40023800
 80015d0:	017d7840 	.word	0x017d7840
 80015d4:	00f42400 	.word	0x00f42400

080015d8 <HAL_RCC_ClockConfig>:
{
 80015d8:	e92d 41f0 	stmdb	sp!, {r4, r5, r6, r7, r8, lr}
 80015dc:	460d      	mov	r5, r1
  if (RCC_ClkInitStruct == NULL)
 80015de:	4604      	mov	r4, r0
 80015e0:	b910      	cbnz	r0, 80015e8 <HAL_RCC_ClockConfig+0x10>
    return HAL_ERROR;
 80015e2:	2001      	movs	r0, #1
}
 80015e4:	e8bd 81f0 	ldmia.w	sp!, {r4, r5, r6, r7, r8, pc}
  if (FLatency > __HAL_FLASH_GET_LATENCY())
 80015e8:	4a45      	ldr	r2, [pc, #276]	@ (8001700 <HAL_RCC_ClockConfig+0x128>)
 80015ea:	6813      	ldr	r3, [r2, #0]
 80015ec:	f003 030f 	and.w	r3, r3, #15
 80015f0:	428b      	cmp	r3, r1
 80015f2:	d328      	bcc.n	8001646 <HAL_RCC_ClockConfig+0x6e>
  if (((RCC_ClkInitStruct->ClockType) & RCC_CLOCKTYPE_HCLK) == RCC_CLOCKTYPE_HCLK)
 80015f4:	6821      	ldr	r1, [r4, #0]
 80015f6:	078f      	lsls	r7, r1, #30
 80015f8:	d430      	bmi.n	800165c <HAL_RCC_ClockConfig+0x84>
  if (((RCC_ClkInitStruct->ClockType) & RCC_CLOCKTYPE_SYSCLK) == RCC_CLOCKTYPE_SYSCLK)
 80015fa:	07c8      	lsls	r0, r1, #31
 80015fc:	d443      	bmi.n	8001686 <HAL_RCC_ClockConfig+0xae>
  if (FLatency < __HAL_FLASH_GET_LATENCY())
 80015fe:	4a40      	ldr	r2, [pc, #256]	@ (8001700 <HAL_RCC_ClockConfig+0x128>)
 8001600:	6813      	ldr	r3, [r2, #0]
 8001602:	f003 030f 	and.w	r3, r3, #15
 8001606:	42ab      	cmp	r3, r5
 8001608:	d866      	bhi.n	80016d8 <HAL_RCC_ClockConfig+0x100>
  if (((RCC_ClkInitStruct->ClockType) & RCC_CLOCKTYPE_PCLK1) == RCC_CLOCKTYPE_PCLK1)
 800160a:	6822      	ldr	r2, [r4, #0]
 800160c:	0751      	lsls	r1, r2, #29
 800160e:	d46f      	bmi.n	80016f0 <HAL_RCC_ClockConfig+0x118>
  if (((RCC_ClkInitStruct->ClockType) & RCC_CLOCKTYPE_PCLK2) == RCC_CLOCKTYPE_PCLK2)
 8001610:	0713      	lsls	r3, r2, #28
 8001612:	d507      	bpl.n	8001624 <HAL_RCC_ClockConfig+0x4c>
    MODIFY_REG(RCC->CFGR, RCC_CFGR_PPRE2, ((RCC_ClkInitStruct->APB2CLKDivider) << 3));
 8001614:	4a3b      	ldr	r2, [pc, #236]	@ (8001704 <HAL_RCC_ClockConfig+0x12c>)
 8001616:	6921      	ldr	r1, [r4, #16]
 8001618:	6893      	ldr	r3, [r2, #8]
 800161a:	f423 4360 	bic.w	r3, r3, #57344	@ 0xe000
 800161e:	ea43 03c1 	orr.w	r3, r3, r1, lsl #3
 8001622:	6093      	str	r3, [r2, #8]
  SystemCoreClock = HAL_RCC_GetSysClockFreq() >> AHBPrescTable[(RCC->CFGR & RCC_CFGR_HPRE) >> RCC_CFGR_HPRE_Pos];
 8001624:	f7ff ffaa 	bl	800157c <HAL_RCC_GetSysClockFreq>
 8001628:	4b36      	ldr	r3, [pc, #216]	@ (8001704 <HAL_RCC_ClockConfig+0x12c>)
 800162a:	4a37      	ldr	r2, [pc, #220]	@ (8001708 <HAL_RCC_ClockConfig+0x130>)
 800162c:	689b      	ldr	r3, [r3, #8]
 800162e:	f3c3 1303 	ubfx	r3, r3, #4, #4
 8001632:	5cd3      	ldrb	r3, [r2, r3]
 8001634:	40d8      	lsrs	r0, r3
 8001636:	4b35      	ldr	r3, [pc, #212]	@ (800170c <HAL_RCC_ClockConfig+0x134>)
 8001638:	6018      	str	r0, [r3, #0]
  HAL_InitTick(uwTickPrio);
 800163a:	4b35      	ldr	r3, [pc, #212]	@ (8001710 <HAL_RCC_ClockConfig+0x138>)
 800163c:	6818      	ldr	r0, [r3, #0]
 800163e:	f7ff fb61 	bl	8000d04 <HAL_InitTick>
  return HAL_OK;
 8001642:	2000      	movs	r0, #0
 8001644:	e7ce      	b.n	80015e4 <HAL_RCC_ClockConfig+0xc>
    __HAL_FLASH_SET_LATENCY(FLatency);
 8001646:	6813      	ldr	r3, [r2, #0]
 8001648:	f023 030f 	bic.w	r3, r3, #15
 800164c:	430b      	orrs	r3, r1
 800164e:	6013      	str	r3, [r2, #0]
    if (__HAL_FLASH_GET_LATENCY() != FLatency)
 8001650:	6813      	ldr	r3, [r2, #0]
 8001652:	f003 030f 	and.w	r3, r3, #15
 8001656:	428b      	cmp	r3, r1
 8001658:	d1c3      	bne.n	80015e2 <HAL_RCC_ClockConfig+0xa>
 800165a:	e7cb      	b.n	80015f4 <HAL_RCC_ClockConfig+0x1c>
    if (((RCC_ClkInitStruct->ClockType) & RCC_CLOCKTYPE_PCLK1) == RCC_CLOCKTYPE_PCLK1)
 800165c:	f011 0f04 	tst.w	r1, #4
 8001660:	4b28      	ldr	r3, [pc, #160]	@ (8001704 <HAL_RCC_ClockConfig+0x12c>)
 8001662:	d003      	beq.n	800166c <HAL_RCC_ClockConfig+0x94>
      MODIFY_REG(RCC->CFGR, RCC_CFGR_PPRE1, RCC_HCLK_DIV16);
 8001664:	689a      	ldr	r2, [r3, #8]
 8001666:	f442 52e0 	orr.w	r2, r2, #7168	@ 0x1c00
 800166a:	609a      	str	r2, [r3, #8]
    if (((RCC_ClkInitStruct->ClockType) & RCC_CLOCKTYPE_PCLK2) == RCC_CLOCKTYPE_PCLK2)
 800166c:	070e      	lsls	r6, r1, #28
 800166e:	d503      	bpl.n	8001678 <HAL_RCC_ClockConfig+0xa0>
      MODIFY_REG(RCC->CFGR, RCC_CFGR_PPRE2, (RCC_HCLK_DIV16 << 3));
 8001670:	689a      	ldr	r2, [r3, #8]
 8001672:	f442 4260 	orr.w	r2, r2, #57344	@ 0xe000
 8001676:	609a      	str	r2, [r3, #8]
    MODIFY_REG(RCC->CFGR, RCC_CFGR_HPRE, RCC_ClkInitStruct->AHBCLKDivider);
 8001678:	689a      	ldr	r2, [r3, #8]
 800167a:	68a0      	ldr	r0, [r4, #8]
 800167c:	f022 02f0 	bic.w	r2, r2, #240	@ 0xf0
 8001680:	4302      	orrs	r2, r0
 8001682:	609a      	str	r2, [r3, #8]
 8001684:	e7b9      	b.n	80015fa <HAL_RCC_ClockConfig+0x22>
    if (RCC_ClkInitStruct->SYSCLKSource == RCC_SYSCLKSOURCE_HSE)
 8001686:	6861      	ldr	r1, [r4, #4]
 8001688:	4b1e      	ldr	r3, [pc, #120]	@ (8001704 <HAL_RCC_ClockConfig+0x12c>)
 800168a:	2901      	cmp	r1, #1
      if (__HAL_RCC_GET_FLAG(RCC_FLAG_HSERDY) == RESET)
 800168c:	681a      	ldr	r2, [r3, #0]
    if (RCC_ClkInitStruct->SYSCLKSource == RCC_SYSCLKSOURCE_HSE)
 800168e:	d11b      	bne.n	80016c8 <HAL_RCC_ClockConfig+0xf0>
      if (__HAL_RCC_GET_FLAG(RCC_FLAG_HSERDY) == RESET)
 8001690:	f412 3f00 	tst.w	r2, #131072	@ 0x20000
      if (__HAL_RCC_GET_FLAG(RCC_FLAG_HSIRDY) == RESET)
 8001694:	d0a5      	beq.n	80015e2 <HAL_RCC_ClockConfig+0xa>
    __HAL_RCC_SYSCLK_CONFIG(RCC_ClkInitStruct->SYSCLKSource);
 8001696:	689a      	ldr	r2, [r3, #8]
      if ((HAL_GetTick() - tickstart) > CLOCKSWITCH_TIMEOUT_VALUE)
 8001698:	f241 3888 	movw	r8, #5000	@ 0x1388
    while (__HAL_RCC_GET_SYSCLK_SOURCE() != (RCC_ClkInitStruct->SYSCLKSource << RCC_CFGR_SWS_Pos))
 800169c:	4f19      	ldr	r7, [pc, #100]	@ (8001704 <HAL_RCC_ClockConfig+0x12c>)
    __HAL_RCC_SYSCLK_CONFIG(RCC_ClkInitStruct->SYSCLKSource);
 800169e:	f022 0203 	bic.w	r2, r2, #3
 80016a2:	430a      	orrs	r2, r1
 80016a4:	609a      	str	r2, [r3, #8]
    tickstart = HAL_GetTick();
 80016a6:	f7ff fb69 	bl	8000d7c <HAL_GetTick>
 80016aa:	4606      	mov	r6, r0
    while (__HAL_RCC_GET_SYSCLK_SOURCE() != (RCC_ClkInitStruct->SYSCLKSource << RCC_CFGR_SWS_Pos))
 80016ac:	68bb      	ldr	r3, [r7, #8]
 80016ae:	6862      	ldr	r2, [r4, #4]
 80016b0:	f003 030c 	and.w	r3, r3, #12
 80016b4:	ebb3 0f82 	cmp.w	r3, r2, lsl #2
 80016b8:	d0a1      	beq.n	80015fe <HAL_RCC_ClockConfig+0x26>
      if ((HAL_GetTick() - tickstart) > CLOCKSWITCH_TIMEOUT_VALUE)
 80016ba:	f7ff fb5f 	bl	8000d7c <HAL_GetTick>
 80016be:	1b80      	subs	r0, r0, r6
 80016c0:	4540      	cmp	r0, r8
 80016c2:	d9f3      	bls.n	80016ac <HAL_RCC_ClockConfig+0xd4>
        return HAL_TIMEOUT;
 80016c4:	2003      	movs	r0, #3
 80016c6:	e78d      	b.n	80015e4 <HAL_RCC_ClockConfig+0xc>
    else if (RCC_ClkInitStruct->SYSCLKSource == RCC_SYSCLKSOURCE_PLLCLK)
 80016c8:	2902      	cmp	r1, #2
 80016ca:	d102      	bne.n	80016d2 <HAL_RCC_ClockConfig+0xfa>
      if (__HAL_RCC_GET_FLAG(RCC_FLAG_PLLRDY) == RESET)
 80016cc:	f012 7f00 	tst.w	r2, #33554432	@ 0x2000000
 80016d0:	e7e0      	b.n	8001694 <HAL_RCC_ClockConfig+0xbc>
      if (__HAL_RCC_GET_FLAG(RCC_FLAG_HSIRDY) == RESET)
 80016d2:	f012 0f02 	tst.w	r2, #2
 80016d6:	e7dd      	b.n	8001694 <HAL_RCC_ClockConfig+0xbc>
    __HAL_FLASH_SET_LATENCY(FLatency);
 80016d8:	6813      	ldr	r3, [r2, #0]
 80016da:	f023 030f 	bic.w	r3, r3, #15
 80016de:	432b      	orrs	r3, r5
 80016e0:	6013      	str	r3, [r2, #0]
    if (__HAL_FLASH_GET_LATENCY() != FLatency)
 80016e2:	6813      	ldr	r3, [r2, #0]
 80016e4:	f003 030f 	and.w	r3, r3, #15
 80016e8:	42ab      	cmp	r3, r5
 80016ea:	f47f af7a 	bne.w	80015e2 <HAL_RCC_ClockConfig+0xa>
 80016ee:	e78c      	b.n	800160a <HAL_RCC_ClockConfig+0x32>
    MODIFY_REG(RCC->CFGR, RCC_CFGR_PPRE1, RCC_ClkInitStruct->APB1CLKDivider);
 80016f0:	4904      	ldr	r1, [pc, #16]	@ (8001704 <HAL_RCC_ClockConfig+0x12c>)
 80016f2:	68e0      	ldr	r0, [r4, #12]
 80016f4:	688b      	ldr	r3, [r1, #8]
 80016f6:	f423 53e0 	bic.w	r3, r3, #7168	@ 0x1c00
 80016fa:	4303      	orrs	r3, r0
 80016fc:	608b      	str	r3, [r1, #8]
 80016fe:	e787      	b.n	8001610 <HAL_RCC_ClockConfig+0x38>
 8001700:	40023c00 	.word	0x40023c00
 8001704:	40023800 	.word	0x40023800
 8001708:	080034b1 	.word	0x080034b1
 800170c:	20000000 	.word	0x20000000
 8001710:	20000008 	.word	0x20000008

08001714 <HAL_RCC_GetPCLK1Freq>:
  * @retval PCLK1 frequency
  */
uint32_t HAL_RCC_GetPCLK1Freq(void)
{
  /* Get HCLK source and Compute PCLK1 frequency ---------------------------*/
  return (HAL_RCC_GetHCLKFreq() >> APBPrescTable[(RCC->CFGR & RCC_CFGR_PPRE1) >> RCC_CFGR_PPRE1_Pos]);
 8001714:	4b04      	ldr	r3, [pc, #16]	@ (8001728 <HAL_RCC_GetPCLK1Freq+0x14>)
 8001716:	4a05      	ldr	r2, [pc, #20]	@ (800172c <HAL_RCC_GetPCLK1Freq+0x18>)
 8001718:	689b      	ldr	r3, [r3, #8]
 800171a:	f3c3 2382 	ubfx	r3, r3, #10, #3
 800171e:	5cd3      	ldrb	r3, [r2, r3]
 8001720:	4a03      	ldr	r2, [pc, #12]	@ (8001730 <HAL_RCC_GetPCLK1Freq+0x1c>)
 8001722:	6810      	ldr	r0, [r2, #0]
}
 8001724:	40d8      	lsrs	r0, r3
 8001726:	4770      	bx	lr
 8001728:	40023800 	.word	0x40023800
 800172c:	080034a9 	.word	0x080034a9
 8001730:	20000000 	.word	0x20000000

08001734 <HAL_RCC_GetPCLK2Freq>:
  * @retval PCLK2 frequency
  */
uint32_t HAL_RCC_GetPCLK2Freq(void)
{
  /* Get HCLK source and Compute PCLK2 frequency ---------------------------*/
  return (HAL_RCC_GetHCLKFreq() >> APBPrescTable[(RCC->CFGR & RCC_CFGR_PPRE2) >> RCC_CFGR_PPRE2_Pos]);
 8001734:	4b04      	ldr	r3, [pc, #16]	@ (8001748 <HAL_RCC_GetPCLK2Freq+0x14>)
 8001736:	4a05      	ldr	r2, [pc, #20]	@ (800174c <HAL_RCC_GetPCLK2Freq+0x18>)
 8001738:	689b      	ldr	r3, [r3, #8]
 800173a:	f3c3 3342 	ubfx	r3, r3, #13, #3
 800173e:	5cd3      	ldrb	r3, [r2, r3]
 8001740:	4a03      	ldr	r2, [pc, #12]	@ (8001750 <HAL_RCC_GetPCLK2Freq+0x1c>)
 8001742:	6810      	ldr	r0, [r2, #0]
}
 8001744:	40d8      	lsrs	r0, r3
 8001746:	4770      	bx	lr
 8001748:	40023800 	.word	0x40023800
 800174c:	080034a9 	.word	0x080034a9
 8001750:	20000000 	.word	0x20000000

08001754 <HAL_RCCEx_PeriphCLKConfig>:

  /* Check the parameters */
  assert_param(IS_RCC_PERIPHCLOCK(PeriphClkInit->PeriphClockSelection));

  /*----------------------------------- I2S configuration ----------------------------------*/
  if(((PeriphClkInit->PeriphClockSelection) & RCC_PERIPHCLK_I2S) == (RCC_PERIPHCLK_I2S))
 8001754:	6803      	ldr	r3, [r0, #0]
{
 8001756:	e92d 43f7 	stmdb	sp!, {r0, r1, r2, r4, r5, r6, r7, r8, r9, lr}
  if(((PeriphClkInit->PeriphClockSelection) & RCC_PERIPHCLK_I2S) == (RCC_PERIPHCLK_I2S))
 800175a:	f013 0601 	ands.w	r6, r3, #1
{
 800175e:	4604      	mov	r4, r0
  if(((PeriphClkInit->PeriphClockSelection) & RCC_PERIPHCLK_I2S) == (RCC_PERIPHCLK_I2S))
 8001760:	d00b      	beq.n	800177a <HAL_RCCEx_PeriphCLKConfig+0x26>
  {
    /* Check the parameters */
    assert_param(IS_RCC_I2SCLKSOURCE(PeriphClkInit->I2sClockSelection));

    /* Configure I2S Clock source */
    __HAL_RCC_I2S_CONFIG(PeriphClkInit->I2sClockSelection);
 8001762:	4aad      	ldr	r2, [pc, #692]	@ (8001a18 <HAL_RCCEx_PeriphCLKConfig+0x2c4>)
 8001764:	6891      	ldr	r1, [r2, #8]
 8001766:	f421 0100 	bic.w	r1, r1, #8388608	@ 0x800000
 800176a:	6091      	str	r1, [r2, #8]
 800176c:	6b46      	ldr	r6, [r0, #52]	@ 0x34
 800176e:	6891      	ldr	r1, [r2, #8]
 8001770:	4331      	orrs	r1, r6

    /* Enable the PLLI2S when it's used as clock source for I2S */
    if(PeriphClkInit->I2sClockSelection == RCC_I2SCLKSOURCE_PLLI2S)
 8001772:	fab6 f686 	clz	r6, r6
 8001776:	0976      	lsrs	r6, r6, #5
    __HAL_RCC_I2S_CONFIG(PeriphClkInit->I2sClockSelection);
 8001778:	6091      	str	r1, [r2, #8]
      plli2sused = 1;
    }
  }

  /*------------------------------------ SAI1 configuration --------------------------------------*/
  if(((PeriphClkInit->PeriphClockSelection) & RCC_PERIPHCLK_SAI1) == (RCC_PERIPHCLK_SAI1))
 800177a:	f413 2500 	ands.w	r5, r3, #524288	@ 0x80000
 800177e:	d012      	beq.n	80017a6 <HAL_RCCEx_PeriphCLKConfig+0x52>
  {
    /* Check the parameters */
    assert_param(IS_RCC_SAI1CLKSOURCE(PeriphClkInit->Sai1ClockSelection));

    /* Configure SAI1 Clock source */
    __HAL_RCC_SAI1_CONFIG(PeriphClkInit->Sai1ClockSelection);
 8001780:	49a5      	ldr	r1, [pc, #660]	@ (8001a18 <HAL_RCCEx_PeriphCLKConfig+0x2c4>)
 8001782:	6be5      	ldr	r5, [r4, #60]	@ 0x3c
 8001784:	f8d1 208c 	ldr.w	r2, [r1, #140]	@ 0x8c
    /* Enable the PLLI2S when it's used as clock source for SAI */
    if(PeriphClkInit->Sai1ClockSelection == RCC_SAI1CLKSOURCE_PLLI2S)
 8001788:	f5b5 1f80 	cmp.w	r5, #1048576	@ 0x100000
    __HAL_RCC_SAI1_CONFIG(PeriphClkInit->Sai1ClockSelection);
 800178c:	f422 1240 	bic.w	r2, r2, #3145728	@ 0x300000
    {
      plli2sused = 1;
 8001790:	bf08      	it	eq
 8001792:	2601      	moveq	r6, #1
    __HAL_RCC_SAI1_CONFIG(PeriphClkInit->Sai1ClockSelection);
 8001794:	ea42 0205 	orr.w	r2, r2, r5
    }
    /* Enable the PLLSAI when it's used as clock source for SAI */
    if(PeriphClkInit->Sai1ClockSelection == RCC_SAI1CLKSOURCE_PLLSAI)
 8001798:	bf16      	itet	ne
 800179a:	fab5 f585 	clzne	r5, r5
  uint32_t pllsaiused = 0;
 800179e:	2500      	moveq	r5, #0
    if(PeriphClkInit->Sai1ClockSelection == RCC_SAI1CLKSOURCE_PLLSAI)
 80017a0:	096d      	lsrne	r5, r5, #5
    __HAL_RCC_SAI1_CONFIG(PeriphClkInit->Sai1ClockSelection);
 80017a2:	f8c1 208c 	str.w	r2, [r1, #140]	@ 0x8c
      pllsaiused = 1;
    }
  }

  /*------------------------------------ SAI2 configuration --------------------------------------*/
  if(((PeriphClkInit->PeriphClockSelection) & RCC_PERIPHCLK_SAI2) == (RCC_PERIPHCLK_SAI2))
 80017a6:	02d8      	lsls	r0, r3, #11
 80017a8:	d510      	bpl.n	80017cc <HAL_RCCEx_PeriphCLKConfig+0x78>
  {
    /* Check the parameters */
    assert_param(IS_RCC_SAI2CLKSOURCE(PeriphClkInit->Sai2ClockSelection));

    /* Configure SAI2 Clock source */
    __HAL_RCC_SAI2_CONFIG(PeriphClkInit->Sai2ClockSelection);
 80017aa:	489b      	ldr	r0, [pc, #620]	@ (8001a18 <HAL_RCCEx_PeriphCLKConfig+0x2c4>)
 80017ac:	6c21      	ldr	r1, [r4, #64]	@ 0x40
 80017ae:	f8d0 208c 	ldr.w	r2, [r0, #140]	@ 0x8c

    /* Enable the PLLI2S when it's used as clock source for SAI */
    if(PeriphClkInit->Sai2ClockSelection == RCC_SAI2CLKSOURCE_PLLI2S)
 80017b2:	f5b1 0f80 	cmp.w	r1, #4194304	@ 0x400000
    __HAL_RCC_SAI2_CONFIG(PeriphClkInit->Sai2ClockSelection);
 80017b6:	f422 0240 	bic.w	r2, r2, #12582912	@ 0xc00000
 80017ba:	ea42 0201 	orr.w	r2, r2, r1
 80017be:	f8c0 208c 	str.w	r2, [r0, #140]	@ 0x8c
    if(PeriphClkInit->Sai2ClockSelection == RCC_SAI2CLKSOURCE_PLLI2S)
 80017c2:	f000 8186 	beq.w	8001ad2 <HAL_RCCEx_PeriphCLKConfig+0x37e>
      plli2sused = 1;
    }
    /* Enable the PLLSAI when it's used as clock source for SAI */
    if(PeriphClkInit->Sai2ClockSelection == RCC_SAI2CLKSOURCE_PLLSAI)
    {
      pllsaiused = 1;
 80017c6:	2900      	cmp	r1, #0
 80017c8:	bf08      	it	eq
 80017ca:	2501      	moveq	r5, #1
  }

  /*-------------------------------------- SPDIF-RX Configuration -----------------------------------*/
  if(((PeriphClkInit->PeriphClockSelection) & RCC_PERIPHCLK_SPDIFRX) == RCC_PERIPHCLK_SPDIFRX)
  {
      plli2sused = 1;
 80017cc:	f013 7f80 	tst.w	r3, #16777216	@ 0x1000000
 80017d0:	bf18      	it	ne
 80017d2:	2601      	movne	r6, #1
  }

  /*------------------------------------ RTC configuration --------------------------------------*/
  if(((PeriphClkInit->PeriphClockSelection) & RCC_PERIPHCLK_RTC) == (RCC_PERIPHCLK_RTC))
 80017d4:	0699      	lsls	r1, r3, #26
 80017d6:	d532      	bpl.n	800183e <HAL_RCCEx_PeriphCLKConfig+0xea>
  {
    /* Check for RTC Parameters used to output RTCCLK */
    assert_param(IS_RCC_RTCCLKSOURCE(PeriphClkInit->RTCClockSelection));

    /* Enable Power Clock*/
    __HAL_RCC_PWR_CLK_ENABLE();
 80017d8:	4b8f      	ldr	r3, [pc, #572]	@ (8001a18 <HAL_RCCEx_PeriphCLKConfig+0x2c4>)

    /* Enable write access to Backup domain */
    PWR->CR1 |= PWR_CR1_DBP;
 80017da:	4f90      	ldr	r7, [pc, #576]	@ (8001a1c <HAL_RCCEx_PeriphCLKConfig+0x2c8>)
    __HAL_RCC_PWR_CLK_ENABLE();
 80017dc:	6c1a      	ldr	r2, [r3, #64]	@ 0x40
 80017de:	f042 5280 	orr.w	r2, r2, #268435456	@ 0x10000000
 80017e2:	641a      	str	r2, [r3, #64]	@ 0x40
 80017e4:	6c1b      	ldr	r3, [r3, #64]	@ 0x40
 80017e6:	f003 5380 	and.w	r3, r3, #268435456	@ 0x10000000
 80017ea:	9301      	str	r3, [sp, #4]
 80017ec:	9b01      	ldr	r3, [sp, #4]
    PWR->CR1 |= PWR_CR1_DBP;
 80017ee:	683b      	ldr	r3, [r7, #0]
 80017f0:	f443 7380 	orr.w	r3, r3, #256	@ 0x100
 80017f4:	603b      	str	r3, [r7, #0]

    /* Get Start Tick*/
    tickstart = HAL_GetTick();
 80017f6:	f7ff fac1 	bl	8000d7c <HAL_GetTick>
 80017fa:	4680      	mov	r8, r0

    /* Wait for Backup domain Write protection disable */
    while((PWR->CR1 & PWR_CR1_DBP) == RESET)
 80017fc:	683b      	ldr	r3, [r7, #0]
 80017fe:	05da      	lsls	r2, r3, #23
 8001800:	f140 8169 	bpl.w	8001ad6 <HAL_RCCEx_PeriphCLKConfig+0x382>
        return HAL_TIMEOUT;
      }
    }

    /* Reset the Backup domain only if the RTC Clock source selection is modified */
    tmpreg0 = (RCC->BDCR & RCC_BDCR_RTCSEL);
 8001804:	4f84      	ldr	r7, [pc, #528]	@ (8001a18 <HAL_RCCEx_PeriphCLKConfig+0x2c4>)

    if((tmpreg0 != 0x00000000U) && (tmpreg0 != (PeriphClkInit->RTCClockSelection & RCC_BDCR_RTCSEL)))
 8001806:	6b22      	ldr	r2, [r4, #48]	@ 0x30
    tmpreg0 = (RCC->BDCR & RCC_BDCR_RTCSEL);
 8001808:	6f3b      	ldr	r3, [r7, #112]	@ 0x70
    if((tmpreg0 != 0x00000000U) && (tmpreg0 != (PeriphClkInit->RTCClockSelection & RCC_BDCR_RTCSEL)))
 800180a:	f413 7340 	ands.w	r3, r3, #768	@ 0x300
 800180e:	f040 816d 	bne.w	8001aec <HAL_RCCEx_PeriphCLKConfig+0x398>
            return HAL_TIMEOUT;
          }
        }
      }
    }
    __HAL_RCC_RTC_CONFIG(PeriphClkInit->RTCClockSelection);
 8001812:	6b23      	ldr	r3, [r4, #48]	@ 0x30
 8001814:	f403 7240 	and.w	r2, r3, #768	@ 0x300
 8001818:	f5b2 7f40 	cmp.w	r2, #768	@ 0x300
 800181c:	4a7e      	ldr	r2, [pc, #504]	@ (8001a18 <HAL_RCCEx_PeriphCLKConfig+0x2c4>)
 800181e:	f040 818a 	bne.w	8001b36 <HAL_RCCEx_PeriphCLKConfig+0x3e2>
 8001822:	6891      	ldr	r1, [r2, #8]
 8001824:	f023 4070 	bic.w	r0, r3, #4026531840	@ 0xf0000000
 8001828:	f421 11f8 	bic.w	r1, r1, #2031616	@ 0x1f0000
 800182c:	f420 7040 	bic.w	r0, r0, #768	@ 0x300
 8001830:	4301      	orrs	r1, r0
 8001832:	6091      	str	r1, [r2, #8]
 8001834:	f3c3 030b 	ubfx	r3, r3, #0, #12
 8001838:	6f11      	ldr	r1, [r2, #112]	@ 0x70
 800183a:	430b      	orrs	r3, r1
 800183c:	6713      	str	r3, [r2, #112]	@ 0x70
  }

  /*------------------------------------ TIM configuration --------------------------------------*/
  if(((PeriphClkInit->PeriphClockSelection) & RCC_PERIPHCLK_TIM) == (RCC_PERIPHCLK_TIM))
 800183e:	6823      	ldr	r3, [r4, #0]
 8001840:	06d9      	lsls	r1, r3, #27
 8001842:	d50c      	bpl.n	800185e <HAL_RCCEx_PeriphCLKConfig+0x10a>
  {
    /* Check the parameters */
    assert_param(IS_RCC_TIMPRES(PeriphClkInit->TIMPresSelection));

    /* Configure Timer Prescaler */
    __HAL_RCC_TIMCLKPRESCALER(PeriphClkInit->TIMPresSelection);
 8001844:	4a74      	ldr	r2, [pc, #464]	@ (8001a18 <HAL_RCCEx_PeriphCLKConfig+0x2c4>)
 8001846:	f8d2 108c 	ldr.w	r1, [r2, #140]	@ 0x8c
 800184a:	f021 7180 	bic.w	r1, r1, #16777216	@ 0x1000000
 800184e:	f8c2 108c 	str.w	r1, [r2, #140]	@ 0x8c
 8001852:	f8d2 108c 	ldr.w	r1, [r2, #140]	@ 0x8c
 8001856:	6ba0      	ldr	r0, [r4, #56]	@ 0x38
 8001858:	4301      	orrs	r1, r0
 800185a:	f8c2 108c 	str.w	r1, [r2, #140]	@ 0x8c
  }

  /*-------------------------------------- I2C1 Configuration -----------------------------------*/
  if(((PeriphClkInit->PeriphClockSelection) & RCC_PERIPHCLK_I2C1) == RCC_PERIPHCLK_I2C1)
 800185e:	045a      	lsls	r2, r3, #17
 8001860:	d508      	bpl.n	8001874 <HAL_RCCEx_PeriphCLKConfig+0x120>
  {
    /* Check the parameters */
    assert_param(IS_RCC_I2C1CLKSOURCE(PeriphClkInit->I2c1ClockSelection));

    /* Configure the I2C1 clock source */
    __HAL_RCC_I2C1_CONFIG(PeriphClkInit->I2c1ClockSelection);
 8001862:	496d      	ldr	r1, [pc, #436]	@ (8001a18 <HAL_RCCEx_PeriphCLKConfig+0x2c4>)
 8001864:	6e60      	ldr	r0, [r4, #100]	@ 0x64
 8001866:	f8d1 2090 	ldr.w	r2, [r1, #144]	@ 0x90
 800186a:	f422 3240 	bic.w	r2, r2, #196608	@ 0x30000
 800186e:	4302      	orrs	r2, r0
 8001870:	f8c1 2090 	str.w	r2, [r1, #144]	@ 0x90
  }

  /*-------------------------------------- I2C2 Configuration -----------------------------------*/
  if(((PeriphClkInit->PeriphClockSelection) & RCC_PERIPHCLK_I2C2) == RCC_PERIPHCLK_I2C2)
 8001874:	041f      	lsls	r7, r3, #16
 8001876:	d508      	bpl.n	800188a <HAL_RCCEx_PeriphCLKConfig+0x136>
  {
    /* Check the parameters */
    assert_param(IS_RCC_I2C2CLKSOURCE(PeriphClkInit->I2c2ClockSelection));

    /* Configure the I2C2 clock source */
    __HAL_RCC_I2C2_CONFIG(PeriphClkInit->I2c2ClockSelection);
 8001878:	4967      	ldr	r1, [pc, #412]	@ (8001a18 <HAL_RCCEx_PeriphCLKConfig+0x2c4>)
 800187a:	6ea0      	ldr	r0, [r4, #104]	@ 0x68
 800187c:	f8d1 2090 	ldr.w	r2, [r1, #144]	@ 0x90
 8001880:	f422 2240 	bic.w	r2, r2, #786432	@ 0xc0000
 8001884:	4302      	orrs	r2, r0
 8001886:	f8c1 2090 	str.w	r2, [r1, #144]	@ 0x90
  }

  /*-------------------------------------- I2C3 Configuration -----------------------------------*/
  if(((PeriphClkInit->PeriphClockSelection) & RCC_PERIPHCLK_I2C3) == RCC_PERIPHCLK_I2C3)
 800188a:	03d8      	lsls	r0, r3, #15
 800188c:	d508      	bpl.n	80018a0 <HAL_RCCEx_PeriphCLKConfig+0x14c>
  {
    /* Check the parameters */
    assert_param(IS_RCC_I2C3CLKSOURCE(PeriphClkInit->I2c3ClockSelection));

    /* Configure the I2C3 clock source */
    __HAL_RCC_I2C3_CONFIG(PeriphClkInit->I2c3ClockSelection);
 800188e:	4962      	ldr	r1, [pc, #392]	@ (8001a18 <HAL_RCCEx_PeriphCLKConfig+0x2c4>)
 8001890:	6ee0      	ldr	r0, [r4, #108]	@ 0x6c
 8001892:	f8d1 2090 	ldr.w	r2, [r1, #144]	@ 0x90
 8001896:	f422 1240 	bic.w	r2, r2, #3145728	@ 0x300000
 800189a:	4302      	orrs	r2, r0
 800189c:	f8c1 2090 	str.w	r2, [r1, #144]	@ 0x90
  }

  /*-------------------------------------- I2C4 Configuration -----------------------------------*/
  if(((PeriphClkInit->PeriphClockSelection) & RCC_PERIPHCLK_I2C4) == RCC_PERIPHCLK_I2C4)
 80018a0:	0399      	lsls	r1, r3, #14
 80018a2:	d508      	bpl.n	80018b6 <HAL_RCCEx_PeriphCLKConfig+0x162>
  {
    /* Check the parameters */
    assert_param(IS_RCC_I2C4CLKSOURCE(PeriphClkInit->I2c4ClockSelection));

    /* Configure the I2C4 clock source */
    __HAL_RCC_I2C4_CONFIG(PeriphClkInit->I2c4ClockSelection);
 80018a4:	495c      	ldr	r1, [pc, #368]	@ (8001a18 <HAL_RCCEx_PeriphCLKConfig+0x2c4>)
 80018a6:	6f20      	ldr	r0, [r4, #112]	@ 0x70
 80018a8:	f8d1 2090 	ldr.w	r2, [r1, #144]	@ 0x90
 80018ac:	f422 0240 	bic.w	r2, r2, #12582912	@ 0xc00000
 80018b0:	4302      	orrs	r2, r0
 80018b2:	f8c1 2090 	str.w	r2, [r1, #144]	@ 0x90
  }

  /*-------------------------------------- USART1 Configuration -----------------------------------*/
  if(((PeriphClkInit->PeriphClockSelection) & RCC_PERIPHCLK_USART1) == RCC_PERIPHCLK_USART1)
 80018b6:	065a      	lsls	r2, r3, #25
 80018b8:	d508      	bpl.n	80018cc <HAL_RCCEx_PeriphCLKConfig+0x178>
  {
    /* Check the parameters */
    assert_param(IS_RCC_USART1CLKSOURCE(PeriphClkInit->Usart1ClockSelection));

    /* Configure the USART1 clock source */
    __HAL_RCC_USART1_CONFIG(PeriphClkInit->Usart1ClockSelection);
 80018ba:	4957      	ldr	r1, [pc, #348]	@ (8001a18 <HAL_RCCEx_PeriphCLKConfig+0x2c4>)
 80018bc:	6c60      	ldr	r0, [r4, #68]	@ 0x44
 80018be:	f8d1 2090 	ldr.w	r2, [r1, #144]	@ 0x90
 80018c2:	f022 0203 	bic.w	r2, r2, #3
 80018c6:	4302      	orrs	r2, r0
 80018c8:	f8c1 2090 	str.w	r2, [r1, #144]	@ 0x90
  }

  /*-------------------------------------- USART2 Configuration -----------------------------------*/
  if(((PeriphClkInit->PeriphClockSelection) & RCC_PERIPHCLK_USART2) == RCC_PERIPHCLK_USART2)
 80018cc:	061f      	lsls	r7, r3, #24
 80018ce:	d508      	bpl.n	80018e2 <HAL_RCCEx_PeriphCLKConfig+0x18e>
  {
    /* Check the parameters */
    assert_param(IS_RCC_USART2CLKSOURCE(PeriphClkInit->Usart2ClockSelection));

    /* Configure the USART2 clock source */
    __HAL_RCC_USART2_CONFIG(PeriphClkInit->Usart2ClockSelection);
 80018d0:	4951      	ldr	r1, [pc, #324]	@ (8001a18 <HAL_RCCEx_PeriphCLKConfig+0x2c4>)
 80018d2:	6ca0      	ldr	r0, [r4, #72]	@ 0x48
 80018d4:	f8d1 2090 	ldr.w	r2, [r1, #144]	@ 0x90
 80018d8:	f022 020c 	bic.w	r2, r2, #12
 80018dc:	4302      	orrs	r2, r0
 80018de:	f8c1 2090 	str.w	r2, [r1, #144]	@ 0x90
  }

  /*-------------------------------------- USART3 Configuration -----------------------------------*/
  if(((PeriphClkInit->PeriphClockSelection) & RCC_PERIPHCLK_USART3) == RCC_PERIPHCLK_USART3)
 80018e2:	05d8      	lsls	r0, r3, #23
 80018e4:	d508      	bpl.n	80018f8 <HAL_RCCEx_PeriphCLKConfig+0x1a4>
  {
    /* Check the parameters */
    assert_param(IS_RCC_USART3CLKSOURCE(PeriphClkInit->Usart3ClockSelection));

    /* Configure the USART3 clock source */
    __HAL_RCC_USART3_CONFIG(PeriphClkInit->Usart3ClockSelection);
 80018e6:	494c      	ldr	r1, [pc, #304]	@ (8001a18 <HAL_RCCEx_PeriphCLKConfig+0x2c4>)
 80018e8:	6ce0      	ldr	r0, [r4, #76]	@ 0x4c
 80018ea:	f8d1 2090 	ldr.w	r2, [r1, #144]	@ 0x90
 80018ee:	f022 0230 	bic.w	r2, r2, #48	@ 0x30
 80018f2:	4302      	orrs	r2, r0
 80018f4:	f8c1 2090 	str.w	r2, [r1, #144]	@ 0x90
  }

  /*-------------------------------------- UART4 Configuration -----------------------------------*/
  if(((PeriphClkInit->PeriphClockSelection) & RCC_PERIPHCLK_UART4) == RCC_PERIPHCLK_UART4)
 80018f8:	0599      	lsls	r1, r3, #22
 80018fa:	d508      	bpl.n	800190e <HAL_RCCEx_PeriphCLKConfig+0x1ba>
  {
    /* Check the parameters */
    assert_param(IS_RCC_UART4CLKSOURCE(PeriphClkInit->Uart4ClockSelection));

    /* Configure the UART4 clock source */
    __HAL_RCC_UART4_CONFIG(PeriphClkInit->Uart4ClockSelection);
 80018fc:	4946      	ldr	r1, [pc, #280]	@ (8001a18 <HAL_RCCEx_PeriphCLKConfig+0x2c4>)
 80018fe:	6d20      	ldr	r0, [r4, #80]	@ 0x50
 8001900:	f8d1 2090 	ldr.w	r2, [r1, #144]	@ 0x90
 8001904:	f022 02c0 	bic.w	r2, r2, #192	@ 0xc0
 8001908:	4302      	orrs	r2, r0
 800190a:	f8c1 2090 	str.w	r2, [r1, #144]	@ 0x90
  }

  /*-------------------------------------- UART5 Configuration -----------------------------------*/
  if(((PeriphClkInit->PeriphClockSelection) & RCC_PERIPHCLK_UART5) == RCC_PERIPHCLK_UART5)
 800190e:	055a      	lsls	r2, r3, #21
 8001910:	d508      	bpl.n	8001924 <HAL_RCCEx_PeriphCLKConfig+0x1d0>
  {
    /* Check the parameters */
    assert_param(IS_RCC_UART5CLKSOURCE(PeriphClkInit->Uart5ClockSelection));

    /* Configure the UART5 clock source */
    __HAL_RCC_UART5_CONFIG(PeriphClkInit->Uart5ClockSelection);
 8001912:	4941      	ldr	r1, [pc, #260]	@ (8001a18 <HAL_RCCEx_PeriphCLKConfig+0x2c4>)
 8001914:	6d60      	ldr	r0, [r4, #84]	@ 0x54
 8001916:	f8d1 2090 	ldr.w	r2, [r1, #144]	@ 0x90
 800191a:	f422 7240 	bic.w	r2, r2, #768	@ 0x300
 800191e:	4302      	orrs	r2, r0
 8001920:	f8c1 2090 	str.w	r2, [r1, #144]	@ 0x90
  }

  /*-------------------------------------- USART6 Configuration -----------------------------------*/
  if(((PeriphClkInit->PeriphClockSelection) & RCC_PERIPHCLK_USART6) == RCC_PERIPHCLK_USART6)
 8001924:	051f      	lsls	r7, r3, #20
 8001926:	d508      	bpl.n	800193a <HAL_RCCEx_PeriphCLKConfig+0x1e6>
  {
    /* Check the parameters */
    assert_param(IS_RCC_USART6CLKSOURCE(PeriphClkInit->Usart6ClockSelection));

    /* Configure the USART6 clock source */
    __HAL_RCC_USART6_CONFIG(PeriphClkInit->Usart6ClockSelection);
 8001928:	493b      	ldr	r1, [pc, #236]	@ (8001a18 <HAL_RCCEx_PeriphCLKConfig+0x2c4>)
 800192a:	6da0      	ldr	r0, [r4, #88]	@ 0x58
 800192c:	f8d1 2090 	ldr.w	r2, [r1, #144]	@ 0x90
 8001930:	f422 6240 	bic.w	r2, r2, #3072	@ 0xc00
 8001934:	4302      	orrs	r2, r0
 8001936:	f8c1 2090 	str.w	r2, [r1, #144]	@ 0x90
  }

  /*-------------------------------------- UART7 Configuration -----------------------------------*/
  if(((PeriphClkInit->PeriphClockSelection) & RCC_PERIPHCLK_UART7) == RCC_PERIPHCLK_UART7)
 800193a:	04d8      	lsls	r0, r3, #19
 800193c:	d508      	bpl.n	8001950 <HAL_RCCEx_PeriphCLKConfig+0x1fc>
  {
    /* Check the parameters */
    assert_param(IS_RCC_UART7CLKSOURCE(PeriphClkInit->Uart7ClockSelection));

    /* Configure the UART7 clock source */
    __HAL_RCC_UART7_CONFIG(PeriphClkInit->Uart7ClockSelection);
 800193e:	4936      	ldr	r1, [pc, #216]	@ (8001a18 <HAL_RCCEx_PeriphCLKConfig+0x2c4>)
 8001940:	6de0      	ldr	r0, [r4, #92]	@ 0x5c
 8001942:	f8d1 2090 	ldr.w	r2, [r1, #144]	@ 0x90
 8001946:	f422 5240 	bic.w	r2, r2, #12288	@ 0x3000
 800194a:	4302      	orrs	r2, r0
 800194c:	f8c1 2090 	str.w	r2, [r1, #144]	@ 0x90
  }

  /*-------------------------------------- UART8 Configuration -----------------------------------*/
  if(((PeriphClkInit->PeriphClockSelection) & RCC_PERIPHCLK_UART8) == RCC_PERIPHCLK_UART8)
 8001950:	0499      	lsls	r1, r3, #18
 8001952:	d508      	bpl.n	8001966 <HAL_RCCEx_PeriphCLKConfig+0x212>
  {
    /* Check the parameters */
    assert_param(IS_RCC_UART8CLKSOURCE(PeriphClkInit->Uart8ClockSelection));

    /* Configure the UART8 clock source */
    __HAL_RCC_UART8_CONFIG(PeriphClkInit->Uart8ClockSelection);
 8001954:	4930      	ldr	r1, [pc, #192]	@ (8001a18 <HAL_RCCEx_PeriphCLKConfig+0x2c4>)
 8001956:	6e20      	ldr	r0, [r4, #96]	@ 0x60
 8001958:	f8d1 2090 	ldr.w	r2, [r1, #144]	@ 0x90
 800195c:	f422 4240 	bic.w	r2, r2, #49152	@ 0xc000
 8001960:	4302      	orrs	r2, r0
 8001962:	f8c1 2090 	str.w	r2, [r1, #144]	@ 0x90
  }

  /*--------------------------------------- CEC Configuration -----------------------------------*/
  if(((PeriphClkInit->PeriphClockSelection) & RCC_PERIPHCLK_CEC) == RCC_PERIPHCLK_CEC)
 8001966:	025a      	lsls	r2, r3, #9
 8001968:	d508      	bpl.n	800197c <HAL_RCCEx_PeriphCLKConfig+0x228>
  {
    /* Check the parameters */
    assert_param(IS_RCC_CECCLKSOURCE(PeriphClkInit->CecClockSelection));

    /* Configure the CEC clock source */
    __HAL_RCC_CEC_CONFIG(PeriphClkInit->CecClockSelection);
 800196a:	492b      	ldr	r1, [pc, #172]	@ (8001a18 <HAL_RCCEx_PeriphCLKConfig+0x2c4>)
 800196c:	6fa0      	ldr	r0, [r4, #120]	@ 0x78
 800196e:	f8d1 2090 	ldr.w	r2, [r1, #144]	@ 0x90
 8001972:	f022 6280 	bic.w	r2, r2, #67108864	@ 0x4000000
 8001976:	4302      	orrs	r2, r0
 8001978:	f8c1 2090 	str.w	r2, [r1, #144]	@ 0x90
  }

  /*-------------------------------------- CK48 Configuration -----------------------------------*/
  if(((PeriphClkInit->PeriphClockSelection) & RCC_PERIPHCLK_CLK48) == RCC_PERIPHCLK_CLK48)
 800197c:	029f      	lsls	r7, r3, #10
 800197e:	d50c      	bpl.n	800199a <HAL_RCCEx_PeriphCLKConfig+0x246>
  {
    /* Check the parameters */
    assert_param(IS_RCC_CLK48SOURCE(PeriphClkInit->Clk48ClockSelection));

    /* Configure the CLK48 source */
    __HAL_RCC_CLK48_CONFIG(PeriphClkInit->Clk48ClockSelection);
 8001980:	4825      	ldr	r0, [pc, #148]	@ (8001a18 <HAL_RCCEx_PeriphCLKConfig+0x2c4>)
 8001982:	6fe1      	ldr	r1, [r4, #124]	@ 0x7c
 8001984:	f8d0 2090 	ldr.w	r2, [r0, #144]	@ 0x90

    /* Enable the PLLSAI when it's used as clock source for CK48 */
    if(PeriphClkInit->Clk48ClockSelection == RCC_CLK48SOURCE_PLLSAIP)
    {
      pllsaiused = 1;
 8001988:	f1b1 6f00 	cmp.w	r1, #134217728	@ 0x8000000
    __HAL_RCC_CLK48_CONFIG(PeriphClkInit->Clk48ClockSelection);
 800198c:	f022 6200 	bic.w	r2, r2, #134217728	@ 0x8000000
      pllsaiused = 1;
 8001990:	bf08      	it	eq
 8001992:	2501      	moveq	r5, #1
    __HAL_RCC_CLK48_CONFIG(PeriphClkInit->Clk48ClockSelection);
 8001994:	430a      	orrs	r2, r1
 8001996:	f8c0 2090 	str.w	r2, [r0, #144]	@ 0x90

  /*-------------------------------------- LTDC Configuration -----------------------------------*/
#if defined(STM32F746xx) || defined(STM32F756xx) || defined (STM32F767xx) || defined (STM32F769xx) || defined (STM32F777xx) || defined (STM32F779xx) || defined (STM32F750xx)
  if(((PeriphClkInit->PeriphClockSelection) & RCC_PERIPHCLK_LTDC) == RCC_PERIPHCLK_LTDC)
  {
    pllsaiused = 1;
 800199a:	f013 0f08 	tst.w	r3, #8
 800199e:	bf18      	it	ne
 80019a0:	2501      	movne	r5, #1
  }
#endif /* STM32F746xx || STM32F756xx || STM32F767xx || STM32F769xx || STM32F777xx || STM32F779xx || STM32F750xx */

  /*-------------------------------------- LPTIM1 Configuration -----------------------------------*/
  if(((PeriphClkInit->PeriphClockSelection) & RCC_PERIPHCLK_LPTIM1) == RCC_PERIPHCLK_LPTIM1)
 80019a2:	0358      	lsls	r0, r3, #13
 80019a4:	d508      	bpl.n	80019b8 <HAL_RCCEx_PeriphCLKConfig+0x264>
  {
    /* Check the parameters */
    assert_param(IS_RCC_LPTIM1CLK(PeriphClkInit->Lptim1ClockSelection));

    /* Configure the LTPIM1 clock source */
    __HAL_RCC_LPTIM1_CONFIG(PeriphClkInit->Lptim1ClockSelection);
 80019a6:	491c      	ldr	r1, [pc, #112]	@ (8001a18 <HAL_RCCEx_PeriphCLKConfig+0x2c4>)
 80019a8:	6f60      	ldr	r0, [r4, #116]	@ 0x74
 80019aa:	f8d1 2090 	ldr.w	r2, [r1, #144]	@ 0x90
 80019ae:	f022 7240 	bic.w	r2, r2, #50331648	@ 0x3000000
 80019b2:	4302      	orrs	r2, r0
 80019b4:	f8c1 2090 	str.w	r2, [r1, #144]	@ 0x90
   }

  /*------------------------------------- SDMMC1 Configuration ------------------------------------*/
  if(((PeriphClkInit->PeriphClockSelection) & RCC_PERIPHCLK_SDMMC1) == RCC_PERIPHCLK_SDMMC1)
 80019b8:	0219      	lsls	r1, r3, #8
 80019ba:	d509      	bpl.n	80019d0 <HAL_RCCEx_PeriphCLKConfig+0x27c>
  {
    /* Check the parameters */
    assert_param(IS_RCC_SDMMC1CLKSOURCE(PeriphClkInit->Sdmmc1ClockSelection));

    /* Configure the SDMMC1 clock source */
    __HAL_RCC_SDMMC1_CONFIG(PeriphClkInit->Sdmmc1ClockSelection);
 80019bc:	4916      	ldr	r1, [pc, #88]	@ (8001a18 <HAL_RCCEx_PeriphCLKConfig+0x2c4>)
 80019be:	f8d4 0080 	ldr.w	r0, [r4, #128]	@ 0x80
 80019c2:	f8d1 2090 	ldr.w	r2, [r1, #144]	@ 0x90
 80019c6:	f022 5280 	bic.w	r2, r2, #268435456	@ 0x10000000
 80019ca:	4302      	orrs	r2, r0
 80019cc:	f8c1 2090 	str.w	r2, [r1, #144]	@ 0x90
  }
#endif /* STM32F767xx || STM32F769xx || STM32F777xx || STM32F779xx */

  /*-------------------------------------- PLLI2S Configuration ---------------------------------*/
  /* PLLI2S is configured when a peripheral will use it as source clock : SAI1, SAI2, I2S or SPDIF-RX */
  if((plli2sused == 1) || ((PeriphClkInit->PeriphClockSelection & RCC_PERIPHCLK_PLLI2S) == RCC_PERIPHCLK_PLLI2S))
 80019d0:	2e01      	cmp	r6, #1
 80019d2:	f000 80b4 	beq.w	8001b3e <HAL_RCCEx_PeriphCLKConfig+0x3ea>
 80019d6:	019a      	lsls	r2, r3, #6
 80019d8:	f100 80b1 	bmi.w	8001b3e <HAL_RCCEx_PeriphCLKConfig+0x3ea>
    }
  }

  /*-------------------------------------- PLLSAI Configuration ---------------------------------*/
  /* PLLSAI is configured when a peripheral will use it as source clock : SAI1, SAI2, LTDC or CK48 */
  if(pllsaiused == 1)
 80019dc:	2d01      	cmp	r5, #1
 80019de:	d176      	bne.n	8001ace <HAL_RCCEx_PeriphCLKConfig+0x37a>
  {
    /* Disable PLLSAI Clock */
    __HAL_RCC_PLLSAI_DISABLE();
 80019e0:	4d0d      	ldr	r5, [pc, #52]	@ (8001a18 <HAL_RCCEx_PeriphCLKConfig+0x2c4>)
 80019e2:	682b      	ldr	r3, [r5, #0]
 80019e4:	f023 5380 	bic.w	r3, r3, #268435456	@ 0x10000000
 80019e8:	602b      	str	r3, [r5, #0]

    /* Get Start Tick*/
    tickstart = HAL_GetTick();
 80019ea:	f7ff f9c7 	bl	8000d7c <HAL_GetTick>
 80019ee:	4606      	mov	r6, r0

    /* Wait till PLLSAI is disabled */
    while(__HAL_RCC_PLLSAI_GET_FLAG() != RESET)
 80019f0:	682b      	ldr	r3, [r5, #0]
 80019f2:	009f      	lsls	r7, r3, #2
 80019f4:	f100 8127 	bmi.w	8001c46 <HAL_RCCEx_PeriphCLKConfig+0x4f2>

    /* Check the PLLSAI division factors */
    assert_param(IS_RCC_PLLSAIN_VALUE(PeriphClkInit->PLLSAI.PLLSAIN));

    /*----------------- In Case of PLLSAI is selected as source clock for SAI -------------------*/
    if(((((PeriphClkInit->PeriphClockSelection) & RCC_PERIPHCLK_SAI1) == RCC_PERIPHCLK_SAI1) && (PeriphClkInit->Sai1ClockSelection == RCC_SAI1CLKSOURCE_PLLSAI)) ||\
 80019f8:	6821      	ldr	r1, [r4, #0]
 80019fa:	030e      	lsls	r6, r1, #12
 80019fc:	d501      	bpl.n	8001a02 <HAL_RCCEx_PeriphCLKConfig+0x2ae>
 80019fe:	6be3      	ldr	r3, [r4, #60]	@ 0x3c
 8001a00:	b11b      	cbz	r3, 8001a0a <HAL_RCCEx_PeriphCLKConfig+0x2b6>
 8001a02:	02cd      	lsls	r5, r1, #11
 8001a04:	d523      	bpl.n	8001a4e <HAL_RCCEx_PeriphCLKConfig+0x2fa>
       ((((PeriphClkInit->PeriphClockSelection) & RCC_PERIPHCLK_SAI2) == RCC_PERIPHCLK_SAI2) && (PeriphClkInit->Sai2ClockSelection == RCC_SAI2CLKSOURCE_PLLSAI)))
 8001a06:	6c23      	ldr	r3, [r4, #64]	@ 0x40
 8001a08:	bb0b      	cbnz	r3, 8001a4e <HAL_RCCEx_PeriphCLKConfig+0x2fa>
      assert_param(IS_RCC_PLLSAIQ_VALUE(PeriphClkInit->PLLSAI.PLLSAIQ));
      /* check for PLLSAI/DIVQ Parameter */
      assert_param(IS_RCC_PLLSAI_DIVQ_VALUE(PeriphClkInit->PLLSAIDivQ));

      /* Read PLLSAIP value from PLLSAICFGR register (this value is not needed for SAI configuration) */
      tmpreg0 = ((RCC->PLLSAICFGR & RCC_PLLSAICFGR_PLLSAIP) >> RCC_PLLSAICFGR_PLLSAIP_Pos);
 8001a0a:	4a03      	ldr	r2, [pc, #12]	@ (8001a18 <HAL_RCCEx_PeriphCLKConfig+0x2c4>)
 8001a0c:	f8d2 3088 	ldr.w	r3, [r2, #136]	@ 0x88
      tmpreg1 = ((RCC->PLLSAICFGR & RCC_PLLI2SCFGR_PLLI2SR) >> RCC_PLLSAICFGR_PLLSAIR_Pos);
 8001a10:	f8d2 0088 	ldr.w	r0, [r2, #136]	@ 0x88
 8001a14:	e004      	b.n	8001a20 <HAL_RCCEx_PeriphCLKConfig+0x2cc>
 8001a16:	bf00      	nop
 8001a18:	40023800 	.word	0x40023800
 8001a1c:	40007000 	.word	0x40007000
      /* PLLSAI_VCO Input  = PLL_SOURCE/PLLM */
      /* PLLSAI_VCO Output = PLLSAI_VCO Input * PLLSAIN */
      /* SAI_CLK(first level) = PLLSAI_VCO Output/PLLSAIQ */
      __HAL_RCC_PLLSAI_CONFIG(PeriphClkInit->PLLSAI.PLLSAIN , tmpreg0, PeriphClkInit->PLLSAI.PLLSAIQ, tmpreg1);
 8001a20:	f403 3340 	and.w	r3, r3, #196608	@ 0x30000
 8001a24:	f000 40e0 	and.w	r0, r0, #1879048192	@ 0x70000000
 8001a28:	4303      	orrs	r3, r0
 8001a2a:	6960      	ldr	r0, [r4, #20]
 8001a2c:	ea43 1380 	orr.w	r3, r3, r0, lsl #6
 8001a30:	69a0      	ldr	r0, [r4, #24]
 8001a32:	ea43 6300 	orr.w	r3, r3, r0, lsl #24
 8001a36:	f8c2 3088 	str.w	r3, [r2, #136]	@ 0x88

      /* SAI_CLK_x = SAI_CLK(first level)/PLLSAIDIVQ */
      __HAL_RCC_PLLSAI_PLLSAICLKDIVQ_CONFIG(PeriphClkInit->PLLSAIDivQ);
 8001a3a:	f8d2 308c 	ldr.w	r3, [r2, #140]	@ 0x8c
 8001a3e:	6aa0      	ldr	r0, [r4, #40]	@ 0x28
 8001a40:	f423 53f8 	bic.w	r3, r3, #7936	@ 0x1f00
 8001a44:	3801      	subs	r0, #1
 8001a46:	ea43 2300 	orr.w	r3, r3, r0, lsl #8
 8001a4a:	f8c2 308c 	str.w	r3, [r2, #140]	@ 0x8c
    }

    /*----------------- In Case of PLLSAI is selected as source clock for CLK48 -------------------*/
    /* In Case of PLLI2S is selected as source clock for CK48 */
    if((((PeriphClkInit->PeriphClockSelection) & RCC_PERIPHCLK_CLK48) == RCC_PERIPHCLK_CLK48) && (PeriphClkInit->Clk48ClockSelection == RCC_CLK48SOURCE_PLLSAIP))
 8001a4e:	0288      	lsls	r0, r1, #10
 8001a50:	d515      	bpl.n	8001a7e <HAL_RCCEx_PeriphCLKConfig+0x32a>
 8001a52:	6fe3      	ldr	r3, [r4, #124]	@ 0x7c
 8001a54:	f1b3 6f00 	cmp.w	r3, #134217728	@ 0x8000000
 8001a58:	d111      	bne.n	8001a7e <HAL_RCCEx_PeriphCLKConfig+0x32a>
    {
      /* check for Parameters */
      assert_param(IS_RCC_PLLSAIP_VALUE(PeriphClkInit->PLLSAI.PLLSAIP));
      /* Read PLLSAIQ and PLLSAIR value from PLLSAICFGR register (this value is not needed for CK48 configuration) */
      tmpreg0 = ((RCC->PLLSAICFGR & RCC_PLLSAICFGR_PLLSAIQ) >> RCC_PLLSAICFGR_PLLSAIQ_Pos);
 8001a5a:	4a82      	ldr	r2, [pc, #520]	@ (8001c64 <HAL_RCCEx_PeriphCLKConfig+0x510>)
 8001a5c:	f8d2 3088 	ldr.w	r3, [r2, #136]	@ 0x88
      tmpreg1 = ((RCC->PLLSAICFGR & RCC_PLLSAICFGR_PLLSAIR) >> RCC_PLLSAICFGR_PLLSAIR_Pos);
 8001a60:	f8d2 0088 	ldr.w	r0, [r2, #136]	@ 0x88

      /* Configure the PLLSAI division factors */
      /* PLLSAI_VCO = f(VCO clock) = f(PLLSAI clock input) x (PLLI2SN/PLLM) */
      /* 48CLK = f(PLLSAI clock output) = f(VCO clock) / PLLSAIP */
      __HAL_RCC_PLLSAI_CONFIG(PeriphClkInit->PLLSAI.PLLSAIN , PeriphClkInit->PLLSAI.PLLSAIP, tmpreg0, tmpreg1);
 8001a64:	f003 6370 	and.w	r3, r3, #251658240	@ 0xf000000
 8001a68:	f000 40e0 	and.w	r0, r0, #1879048192	@ 0x70000000
 8001a6c:	4303      	orrs	r3, r0
 8001a6e:	6960      	ldr	r0, [r4, #20]
 8001a70:	ea43 1380 	orr.w	r3, r3, r0, lsl #6
 8001a74:	6a20      	ldr	r0, [r4, #32]
 8001a76:	ea43 4300 	orr.w	r3, r3, r0, lsl #16
 8001a7a:	f8c2 3088 	str.w	r3, [r2, #136]	@ 0x88
    }

#if defined(STM32F746xx) || defined(STM32F756xx) || defined (STM32F767xx) || defined (STM32F769xx) || defined (STM32F777xx) || defined (STM32F779xx) || defined (STM32F750xx)
    /*---------------------------- LTDC configuration -------------------------------*/
    if(((PeriphClkInit->PeriphClockSelection) & RCC_PERIPHCLK_LTDC) == (RCC_PERIPHCLK_LTDC))
 8001a7e:	070a      	lsls	r2, r1, #28
 8001a80:	d519      	bpl.n	8001ab6 <HAL_RCCEx_PeriphCLKConfig+0x362>
    {
      assert_param(IS_RCC_PLLSAIR_VALUE(PeriphClkInit->PLLSAI.PLLSAIR));
      assert_param(IS_RCC_PLLSAI_DIVR_VALUE(PeriphClkInit->PLLSAIDivR));

      /* Read PLLSAIP and PLLSAIQ value from PLLSAICFGR register (these value are not needed for LTDC configuration) */
      tmpreg0 = ((RCC->PLLSAICFGR & RCC_PLLSAICFGR_PLLSAIQ) >> RCC_PLLSAICFGR_PLLSAIQ_Pos);
 8001a82:	4a78      	ldr	r2, [pc, #480]	@ (8001c64 <HAL_RCCEx_PeriphCLKConfig+0x510>)
 8001a84:	f8d2 1088 	ldr.w	r1, [r2, #136]	@ 0x88
      tmpreg1 = ((RCC->PLLSAICFGR & RCC_PLLSAICFGR_PLLSAIP) >> RCC_PLLSAICFGR_PLLSAIP_Pos);
 8001a88:	f8d2 3088 	ldr.w	r3, [r2, #136]	@ 0x88

      /* PLLSAI_VCO Input  = PLL_SOURCE/PLLM */
      /* PLLSAI_VCO Output = PLLSAI_VCO Input * PLLSAIN */
      /* LTDC_CLK(first level) = PLLSAI_VCO Output/PLLSAIR */
      __HAL_RCC_PLLSAI_CONFIG(PeriphClkInit->PLLSAI.PLLSAIN , tmpreg1, tmpreg0, PeriphClkInit->PLLSAI.PLLSAIR);
 8001a8c:	f001 6170 	and.w	r1, r1, #251658240	@ 0xf000000
 8001a90:	f403 3340 	and.w	r3, r3, #196608	@ 0x30000
 8001a94:	430b      	orrs	r3, r1
 8001a96:	6961      	ldr	r1, [r4, #20]
 8001a98:	ea43 1381 	orr.w	r3, r3, r1, lsl #6
 8001a9c:	69e1      	ldr	r1, [r4, #28]
 8001a9e:	ea43 7301 	orr.w	r3, r3, r1, lsl #28
 8001aa2:	f8c2 3088 	str.w	r3, [r2, #136]	@ 0x88

      /* LTDC_CLK = LTDC_CLK(first level)/PLLSAIDIVR */
      __HAL_RCC_PLLSAI_PLLSAICLKDIVR_CONFIG(PeriphClkInit->PLLSAIDivR);
 8001aa6:	f8d2 308c 	ldr.w	r3, [r2, #140]	@ 0x8c
 8001aaa:	6ae1      	ldr	r1, [r4, #44]	@ 0x2c
 8001aac:	f423 3340 	bic.w	r3, r3, #196608	@ 0x30000
 8001ab0:	430b      	orrs	r3, r1
 8001ab2:	f8c2 308c 	str.w	r3, [r2, #140]	@ 0x8c
    }
#endif /* STM32F746xx || STM32F756xx || STM32F767xx || STM32F769xx || STM32F777xx || STM32F779xx || STM32F750xx  */

    /* Enable PLLSAI Clock */
    __HAL_RCC_PLLSAI_ENABLE();
 8001ab6:	4c6b      	ldr	r4, [pc, #428]	@ (8001c64 <HAL_RCCEx_PeriphCLKConfig+0x510>)
 8001ab8:	6823      	ldr	r3, [r4, #0]
 8001aba:	f043 5380 	orr.w	r3, r3, #268435456	@ 0x10000000
 8001abe:	6023      	str	r3, [r4, #0]

    /* Get Start Tick*/
    tickstart = HAL_GetTick();
 8001ac0:	f7ff f95c 	bl	8000d7c <HAL_GetTick>
 8001ac4:	4605      	mov	r5, r0

    /* Wait till PLLSAI is ready */
    while(__HAL_RCC_PLLSAI_GET_FLAG() == RESET)
 8001ac6:	6823      	ldr	r3, [r4, #0]
 8001ac8:	009b      	lsls	r3, r3, #2
 8001aca:	f140 80c3 	bpl.w	8001c54 <HAL_RCCEx_PeriphCLKConfig+0x500>
        /* return in case of Timeout detected */
        return HAL_TIMEOUT;
      }
    }
  }
  return HAL_OK;
 8001ace:	2000      	movs	r0, #0
 8001ad0:	e009      	b.n	8001ae6 <HAL_RCCEx_PeriphCLKConfig+0x392>
      plli2sused = 1;
 8001ad2:	2601      	movs	r6, #1
 8001ad4:	e67a      	b.n	80017cc <HAL_RCCEx_PeriphCLKConfig+0x78>
      if((HAL_GetTick() - tickstart) > RCC_DBP_TIMEOUT_VALUE)
 8001ad6:	f7ff f951 	bl	8000d7c <HAL_GetTick>
 8001ada:	eba0 0008 	sub.w	r0, r0, r8
 8001ade:	2864      	cmp	r0, #100	@ 0x64
 8001ae0:	f67f ae8c 	bls.w	80017fc <HAL_RCCEx_PeriphCLKConfig+0xa8>
        return HAL_TIMEOUT;
 8001ae4:	2003      	movs	r0, #3
}
 8001ae6:	b003      	add	sp, #12
 8001ae8:	e8bd 83f0 	ldmia.w	sp!, {r4, r5, r6, r7, r8, r9, pc}
    if((tmpreg0 != 0x00000000U) && (tmpreg0 != (PeriphClkInit->RTCClockSelection & RCC_BDCR_RTCSEL)))
 8001aec:	f402 7240 	and.w	r2, r2, #768	@ 0x300
 8001af0:	4293      	cmp	r3, r2
 8001af2:	f43f ae8e 	beq.w	8001812 <HAL_RCCEx_PeriphCLKConfig+0xbe>
      tmpreg0 = (RCC->BDCR & ~(RCC_BDCR_RTCSEL));
 8001af6:	6f3b      	ldr	r3, [r7, #112]	@ 0x70
      __HAL_RCC_BACKUPRESET_FORCE();
 8001af8:	6f3a      	ldr	r2, [r7, #112]	@ 0x70
      tmpreg0 = (RCC->BDCR & ~(RCC_BDCR_RTCSEL));
 8001afa:	f423 7340 	bic.w	r3, r3, #768	@ 0x300
      __HAL_RCC_BACKUPRESET_FORCE();
 8001afe:	f442 3280 	orr.w	r2, r2, #65536	@ 0x10000
 8001b02:	673a      	str	r2, [r7, #112]	@ 0x70
      __HAL_RCC_BACKUPRESET_RELEASE();
 8001b04:	6f3a      	ldr	r2, [r7, #112]	@ 0x70
 8001b06:	f422 3280 	bic.w	r2, r2, #65536	@ 0x10000
 8001b0a:	673a      	str	r2, [r7, #112]	@ 0x70
      RCC->BDCR = tmpreg0;
 8001b0c:	673b      	str	r3, [r7, #112]	@ 0x70
      if (HAL_IS_BIT_SET(RCC->BDCR, RCC_BDCR_LSEON))
 8001b0e:	6f3b      	ldr	r3, [r7, #112]	@ 0x70
 8001b10:	07db      	lsls	r3, r3, #31
 8001b12:	f57f ae7e 	bpl.w	8001812 <HAL_RCCEx_PeriphCLKConfig+0xbe>
        tickstart = HAL_GetTick();
 8001b16:	f7ff f931 	bl	8000d7c <HAL_GetTick>
          if((HAL_GetTick() - tickstart ) > RCC_LSE_TIMEOUT_VALUE)
 8001b1a:	f241 3988 	movw	r9, #5000	@ 0x1388
        tickstart = HAL_GetTick();
 8001b1e:	4680      	mov	r8, r0
        while(__HAL_RCC_GET_FLAG(RCC_FLAG_LSERDY) == RESET)
 8001b20:	6f3b      	ldr	r3, [r7, #112]	@ 0x70
 8001b22:	0798      	lsls	r0, r3, #30
 8001b24:	f53f ae75 	bmi.w	8001812 <HAL_RCCEx_PeriphCLKConfig+0xbe>
          if((HAL_GetTick() - tickstart ) > RCC_LSE_TIMEOUT_VALUE)
 8001b28:	f7ff f928 	bl	8000d7c <HAL_GetTick>
 8001b2c:	eba0 0008 	sub.w	r0, r0, r8
 8001b30:	4548      	cmp	r0, r9
 8001b32:	d9f5      	bls.n	8001b20 <HAL_RCCEx_PeriphCLKConfig+0x3cc>
 8001b34:	e7d6      	b.n	8001ae4 <HAL_RCCEx_PeriphCLKConfig+0x390>
    __HAL_RCC_RTC_CONFIG(PeriphClkInit->RTCClockSelection);
 8001b36:	6891      	ldr	r1, [r2, #8]
 8001b38:	f421 11f8 	bic.w	r1, r1, #2031616	@ 0x1f0000
 8001b3c:	e679      	b.n	8001832 <HAL_RCCEx_PeriphCLKConfig+0xde>
    __HAL_RCC_PLLI2S_DISABLE();
 8001b3e:	4e49      	ldr	r6, [pc, #292]	@ (8001c64 <HAL_RCCEx_PeriphCLKConfig+0x510>)
 8001b40:	6833      	ldr	r3, [r6, #0]
 8001b42:	f023 6380 	bic.w	r3, r3, #67108864	@ 0x4000000
 8001b46:	6033      	str	r3, [r6, #0]
    tickstart = HAL_GetTick();
 8001b48:	f7ff f918 	bl	8000d7c <HAL_GetTick>
 8001b4c:	4607      	mov	r7, r0
    while(__HAL_RCC_GET_FLAG(RCC_FLAG_PLLI2SRDY)  != RESET)
 8001b4e:	6833      	ldr	r3, [r6, #0]
 8001b50:	011b      	lsls	r3, r3, #4
 8001b52:	d472      	bmi.n	8001c3a <HAL_RCCEx_PeriphCLKConfig+0x4e6>
    if(((((PeriphClkInit->PeriphClockSelection) & RCC_PERIPHCLK_I2S) == RCC_PERIPHCLK_I2S) && (PeriphClkInit->I2sClockSelection == RCC_I2SCLKSOURCE_PLLI2S)))
 8001b54:	6822      	ldr	r2, [r4, #0]
 8001b56:	07d7      	lsls	r7, r2, #31
 8001b58:	d512      	bpl.n	8001b80 <HAL_RCCEx_PeriphCLKConfig+0x42c>
 8001b5a:	6b63      	ldr	r3, [r4, #52]	@ 0x34
 8001b5c:	b983      	cbnz	r3, 8001b80 <HAL_RCCEx_PeriphCLKConfig+0x42c>
      tmpreg0 = ((RCC->PLLI2SCFGR & RCC_PLLI2SCFGR_PLLI2SP) >> RCC_PLLI2SCFGR_PLLI2SP_Pos);
 8001b5e:	f8d6 3084 	ldr.w	r3, [r6, #132]	@ 0x84
      tmpreg1 = ((RCC->PLLI2SCFGR & RCC_PLLI2SCFGR_PLLI2SQ) >> RCC_PLLI2SCFGR_PLLI2SQ_Pos);
 8001b62:	f8d6 1084 	ldr.w	r1, [r6, #132]	@ 0x84
      __HAL_RCC_PLLI2S_CONFIG(PeriphClkInit->PLLI2S.PLLI2SN , tmpreg0, tmpreg1, PeriphClkInit->PLLI2S.PLLI2SR);
 8001b66:	f403 3340 	and.w	r3, r3, #196608	@ 0x30000
 8001b6a:	f001 6170 	and.w	r1, r1, #251658240	@ 0xf000000
 8001b6e:	430b      	orrs	r3, r1
 8001b70:	6861      	ldr	r1, [r4, #4]
 8001b72:	ea43 1381 	orr.w	r3, r3, r1, lsl #6
 8001b76:	68a1      	ldr	r1, [r4, #8]
 8001b78:	ea43 7301 	orr.w	r3, r3, r1, lsl #28
 8001b7c:	f8c6 3084 	str.w	r3, [r6, #132]	@ 0x84
    if(((((PeriphClkInit->PeriphClockSelection) & RCC_PERIPHCLK_SAI1) == RCC_PERIPHCLK_SAI1) && (PeriphClkInit->Sai1ClockSelection == RCC_SAI1CLKSOURCE_PLLI2S)) ||
 8001b80:	0316      	lsls	r6, r2, #12
 8001b82:	d503      	bpl.n	8001b8c <HAL_RCCEx_PeriphCLKConfig+0x438>
 8001b84:	6be3      	ldr	r3, [r4, #60]	@ 0x3c
 8001b86:	f5b3 1f80 	cmp.w	r3, #1048576	@ 0x100000
 8001b8a:	d005      	beq.n	8001b98 <HAL_RCCEx_PeriphCLKConfig+0x444>
 8001b8c:	02d0      	lsls	r0, r2, #11
 8001b8e:	d51e      	bpl.n	8001bce <HAL_RCCEx_PeriphCLKConfig+0x47a>
       ((((PeriphClkInit->PeriphClockSelection) & RCC_PERIPHCLK_SAI2) == RCC_PERIPHCLK_SAI2) && (PeriphClkInit->Sai2ClockSelection == RCC_SAI2CLKSOURCE_PLLI2S)))
 8001b90:	6c23      	ldr	r3, [r4, #64]	@ 0x40
 8001b92:	f5b3 0f80 	cmp.w	r3, #4194304	@ 0x400000
 8001b96:	d11a      	bne.n	8001bce <HAL_RCCEx_PeriphCLKConfig+0x47a>
      tmpreg0 = ((RCC->PLLI2SCFGR & RCC_PLLI2SCFGR_PLLI2SP) >> RCC_PLLI2SCFGR_PLLI2SP_Pos);
 8001b98:	4932      	ldr	r1, [pc, #200]	@ (8001c64 <HAL_RCCEx_PeriphCLKConfig+0x510>)
 8001b9a:	f8d1 3084 	ldr.w	r3, [r1, #132]	@ 0x84
      tmpreg1 = ((RCC->PLLI2SCFGR & RCC_PLLI2SCFGR_PLLI2SR) >> RCC_PLLI2SCFGR_PLLI2SR_Pos);
 8001b9e:	f8d1 0084 	ldr.w	r0, [r1, #132]	@ 0x84
      __HAL_RCC_PLLI2S_CONFIG(PeriphClkInit->PLLI2S.PLLI2SN, tmpreg0, PeriphClkInit->PLLI2S.PLLI2SQ, tmpreg1);
 8001ba2:	f403 3340 	and.w	r3, r3, #196608	@ 0x30000
 8001ba6:	f000 40e0 	and.w	r0, r0, #1879048192	@ 0x70000000
 8001baa:	4303      	orrs	r3, r0
 8001bac:	6860      	ldr	r0, [r4, #4]
 8001bae:	ea43 1380 	orr.w	r3, r3, r0, lsl #6
 8001bb2:	68e0      	ldr	r0, [r4, #12]
 8001bb4:	ea43 6300 	orr.w	r3, r3, r0, lsl #24
 8001bb8:	f8c1 3084 	str.w	r3, [r1, #132]	@ 0x84
      __HAL_RCC_PLLI2S_PLLSAICLKDIVQ_CONFIG(PeriphClkInit->PLLI2SDivQ);
 8001bbc:	f8d1 008c 	ldr.w	r0, [r1, #140]	@ 0x8c
 8001bc0:	6a63      	ldr	r3, [r4, #36]	@ 0x24
 8001bc2:	f020 001f 	bic.w	r0, r0, #31
 8001bc6:	3b01      	subs	r3, #1
 8001bc8:	4303      	orrs	r3, r0
 8001bca:	f8c1 308c 	str.w	r3, [r1, #140]	@ 0x8c
    if(((PeriphClkInit->PeriphClockSelection) & RCC_PERIPHCLK_SPDIFRX) == RCC_PERIPHCLK_SPDIFRX)
 8001bce:	01d1      	lsls	r1, r2, #7
 8001bd0:	d511      	bpl.n	8001bf6 <HAL_RCCEx_PeriphCLKConfig+0x4a2>
      tmpreg0 = ((RCC->PLLI2SCFGR & RCC_PLLI2SCFGR_PLLI2SQ) >> RCC_PLLI2SCFGR_PLLI2SQ_Pos);
 8001bd2:	4924      	ldr	r1, [pc, #144]	@ (8001c64 <HAL_RCCEx_PeriphCLKConfig+0x510>)
 8001bd4:	f8d1 3084 	ldr.w	r3, [r1, #132]	@ 0x84
      tmpreg1 = ((RCC->PLLI2SCFGR & RCC_PLLI2SCFGR_PLLI2SR) >> RCC_PLLI2SCFGR_PLLI2SR_Pos);
 8001bd8:	f8d1 0084 	ldr.w	r0, [r1, #132]	@ 0x84
      __HAL_RCC_PLLI2S_CONFIG(PeriphClkInit->PLLI2S.PLLI2SN , PeriphClkInit->PLLI2S.PLLI2SP, tmpreg0, tmpreg1);
 8001bdc:	f003 6370 	and.w	r3, r3, #251658240	@ 0xf000000
 8001be0:	f000 40e0 	and.w	r0, r0, #1879048192	@ 0x70000000
 8001be4:	4303      	orrs	r3, r0
 8001be6:	6860      	ldr	r0, [r4, #4]
 8001be8:	ea43 1380 	orr.w	r3, r3, r0, lsl #6
 8001bec:	6920      	ldr	r0, [r4, #16]
 8001bee:	ea43 4300 	orr.w	r3, r3, r0, lsl #16
 8001bf2:	f8c1 3084 	str.w	r3, [r1, #132]	@ 0x84
    if((PeriphClkInit->PeriphClockSelection & RCC_PERIPHCLK_PLLI2S) == RCC_PERIPHCLK_PLLI2S)
 8001bf6:	0192      	lsls	r2, r2, #6
 8001bf8:	d50d      	bpl.n	8001c16 <HAL_RCCEx_PeriphCLKConfig+0x4c2>
      __HAL_RCC_PLLI2S_CONFIG(PeriphClkInit->PLLI2S.PLLI2SN , PeriphClkInit->PLLI2S.PLLI2SP, PeriphClkInit->PLLI2S.PLLI2SQ, PeriphClkInit->PLLI2S.PLLI2SR);
 8001bfa:	6923      	ldr	r3, [r4, #16]
 8001bfc:	6862      	ldr	r2, [r4, #4]
 8001bfe:	041b      	lsls	r3, r3, #16
 8001c00:	ea43 1382 	orr.w	r3, r3, r2, lsl #6
 8001c04:	68e2      	ldr	r2, [r4, #12]
 8001c06:	ea43 6302 	orr.w	r3, r3, r2, lsl #24
 8001c0a:	68a2      	ldr	r2, [r4, #8]
 8001c0c:	ea43 7302 	orr.w	r3, r3, r2, lsl #28
 8001c10:	4a14      	ldr	r2, [pc, #80]	@ (8001c64 <HAL_RCCEx_PeriphCLKConfig+0x510>)
 8001c12:	f8c2 3084 	str.w	r3, [r2, #132]	@ 0x84
    __HAL_RCC_PLLI2S_ENABLE();
 8001c16:	4e13      	ldr	r6, [pc, #76]	@ (8001c64 <HAL_RCCEx_PeriphCLKConfig+0x510>)
 8001c18:	6833      	ldr	r3, [r6, #0]
 8001c1a:	f043 6380 	orr.w	r3, r3, #67108864	@ 0x4000000
 8001c1e:	6033      	str	r3, [r6, #0]
    tickstart = HAL_GetTick();
 8001c20:	f7ff f8ac 	bl	8000d7c <HAL_GetTick>
 8001c24:	4607      	mov	r7, r0
    while(__HAL_RCC_GET_FLAG(RCC_FLAG_PLLI2SRDY)  == RESET)
 8001c26:	6833      	ldr	r3, [r6, #0]
 8001c28:	011b      	lsls	r3, r3, #4
 8001c2a:	f53f aed7 	bmi.w	80019dc <HAL_RCCEx_PeriphCLKConfig+0x288>
      if((HAL_GetTick() - tickstart) > PLLI2S_TIMEOUT_VALUE)
 8001c2e:	f7ff f8a5 	bl	8000d7c <HAL_GetTick>
 8001c32:	1bc0      	subs	r0, r0, r7
 8001c34:	2864      	cmp	r0, #100	@ 0x64
 8001c36:	d9f6      	bls.n	8001c26 <HAL_RCCEx_PeriphCLKConfig+0x4d2>
 8001c38:	e754      	b.n	8001ae4 <HAL_RCCEx_PeriphCLKConfig+0x390>
      if((HAL_GetTick() - tickstart) > PLLI2S_TIMEOUT_VALUE)
 8001c3a:	f7ff f89f 	bl	8000d7c <HAL_GetTick>
 8001c3e:	1bc0      	subs	r0, r0, r7
 8001c40:	2864      	cmp	r0, #100	@ 0x64
 8001c42:	d984      	bls.n	8001b4e <HAL_RCCEx_PeriphCLKConfig+0x3fa>
 8001c44:	e74e      	b.n	8001ae4 <HAL_RCCEx_PeriphCLKConfig+0x390>
      if((HAL_GetTick() - tickstart) > PLLSAI_TIMEOUT_VALUE)
 8001c46:	f7ff f899 	bl	8000d7c <HAL_GetTick>
 8001c4a:	1b80      	subs	r0, r0, r6
 8001c4c:	2864      	cmp	r0, #100	@ 0x64
 8001c4e:	f67f aecf 	bls.w	80019f0 <HAL_RCCEx_PeriphCLKConfig+0x29c>
 8001c52:	e747      	b.n	8001ae4 <HAL_RCCEx_PeriphCLKConfig+0x390>
      if((HAL_GetTick() - tickstart) > PLLSAI_TIMEOUT_VALUE)
 8001c54:	f7ff f892 	bl	8000d7c <HAL_GetTick>
 8001c58:	1b40      	subs	r0, r0, r5
 8001c5a:	2864      	cmp	r0, #100	@ 0x64
 8001c5c:	f67f af33 	bls.w	8001ac6 <HAL_RCCEx_PeriphCLKConfig+0x372>
 8001c60:	e740      	b.n	8001ae4 <HAL_RCCEx_PeriphCLKConfig+0x390>
 8001c62:	bf00      	nop
 8001c64:	40023800 	.word	0x40023800

08001c68 <HAL_RTC_WaitForSynchro>:
  * @param  hrtc pointer to a RTC_HandleTypeDef structure that contains
  *                the configuration information for RTC.
  * @retval HAL status
  */
HAL_StatusTypeDef HAL_RTC_WaitForSynchro(RTC_HandleTypeDef *hrtc)
{
 8001c68:	b538      	push	{r3, r4, r5, lr}
  uint32_t tickstart = 0U;

  /* Clear RSF flag, keep reserved bits at reset values (setting other flags has no effect) */
  hrtc->Instance->ISR = ((uint32_t)(RTC_RSF_MASK & RTC_ISR_RESERVED_MASK));
 8001c6a:	4a0a      	ldr	r2, [pc, #40]	@ (8001c94 <HAL_RTC_WaitForSynchro+0x2c>)
{
 8001c6c:	4604      	mov	r4, r0
  hrtc->Instance->ISR = ((uint32_t)(RTC_RSF_MASK & RTC_ISR_RESERVED_MASK));
 8001c6e:	6803      	ldr	r3, [r0, #0]
 8001c70:	60da      	str	r2, [r3, #12]

  /* Get tick */
  tickstart = HAL_GetTick();
 8001c72:	f7ff f883 	bl	8000d7c <HAL_GetTick>
 8001c76:	4605      	mov	r5, r0

  /* Wait the registers to be synchronised */
  while ((hrtc->Instance->ISR & RTC_ISR_RSF) == 0U)
 8001c78:	6823      	ldr	r3, [r4, #0]
 8001c7a:	68db      	ldr	r3, [r3, #12]
 8001c7c:	069b      	lsls	r3, r3, #26
 8001c7e:	d501      	bpl.n	8001c84 <HAL_RTC_WaitForSynchro+0x1c>
    {
      return HAL_TIMEOUT;
    }
  }

  return HAL_OK;
 8001c80:	2000      	movs	r0, #0
}
 8001c82:	bd38      	pop	{r3, r4, r5, pc}
    if ((HAL_GetTick() - tickstart) > RTC_TIMEOUT_VALUE)
 8001c84:	f7ff f87a 	bl	8000d7c <HAL_GetTick>
 8001c88:	1b40      	subs	r0, r0, r5
 8001c8a:	f5b0 7f7a 	cmp.w	r0, #1000	@ 0x3e8
 8001c8e:	d9f3      	bls.n	8001c78 <HAL_RTC_WaitForSynchro+0x10>
      return HAL_TIMEOUT;
 8001c90:	2003      	movs	r0, #3
 8001c92:	e7f6      	b.n	8001c82 <HAL_RTC_WaitForSynchro+0x1a>
 8001c94:	0001ff5f 	.word	0x0001ff5f

08001c98 <RTC_EnterInitMode>:
{
  uint32_t tickstart = 0U;
  HAL_StatusTypeDef status = HAL_OK;

  /* Check that Initialization mode is not already set */
  if (READ_BIT(hrtc->Instance->ISR, RTC_ISR_INITF) == 0U)
 8001c98:	6803      	ldr	r3, [r0, #0]
{
 8001c9a:	b570      	push	{r4, r5, r6, lr}
  if (READ_BIT(hrtc->Instance->ISR, RTC_ISR_INITF) == 0U)
 8001c9c:	68dc      	ldr	r4, [r3, #12]
{
 8001c9e:	4605      	mov	r5, r0
  if (READ_BIT(hrtc->Instance->ISR, RTC_ISR_INITF) == 0U)
 8001ca0:	f014 0440 	ands.w	r4, r4, #64	@ 0x40
 8001ca4:	d117      	bne.n	8001cd6 <RTC_EnterInitMode+0x3e>
  {
    /* Set INIT bit to enter Initialization mode */
    SET_BIT(hrtc->Instance->ISR, RTC_ISR_INIT);
 8001ca6:	68da      	ldr	r2, [r3, #12]
 8001ca8:	f042 0280 	orr.w	r2, r2, #128	@ 0x80
 8001cac:	60da      	str	r2, [r3, #12]

    /* Get tick */
    tickstart = HAL_GetTick();
 8001cae:	f7ff f865 	bl	8000d7c <HAL_GetTick>
 8001cb2:	4606      	mov	r6, r0

    /* Wait till RTC is in INIT state and if timeout is reached exit */
    while ((READ_BIT(hrtc->Instance->ISR, RTC_ISR_INITF) == 0U) && (status != HAL_ERROR))
 8001cb4:	682b      	ldr	r3, [r5, #0]
 8001cb6:	68db      	ldr	r3, [r3, #12]
 8001cb8:	065b      	lsls	r3, r3, #25
 8001cba:	d400      	bmi.n	8001cbe <RTC_EnterInitMode+0x26>
 8001cbc:	b10c      	cbz	r4, 8001cc2 <RTC_EnterInitMode+0x2a>
      }
    }
  }

  return status;
}
 8001cbe:	4620      	mov	r0, r4
 8001cc0:	bd70      	pop	{r4, r5, r6, pc}
      if ((HAL_GetTick() - tickstart) > RTC_TIMEOUT_VALUE)
 8001cc2:	f7ff f85b 	bl	8000d7c <HAL_GetTick>
 8001cc6:	1b80      	subs	r0, r0, r6
 8001cc8:	f5b0 7f7a 	cmp.w	r0, #1000	@ 0x3e8
 8001ccc:	d9f2      	bls.n	8001cb4 <RTC_EnterInitMode+0x1c>
        hrtc->State = HAL_RTC_STATE_ERROR;
 8001cce:	2304      	movs	r3, #4
        status = HAL_ERROR;
 8001cd0:	2401      	movs	r4, #1
        hrtc->State = HAL_RTC_STATE_ERROR;
 8001cd2:	776b      	strb	r3, [r5, #29]
        status = HAL_ERROR;
 8001cd4:	e7ee      	b.n	8001cb4 <RTC_EnterInitMode+0x1c>
  HAL_StatusTypeDef status = HAL_OK;
 8001cd6:	2400      	movs	r4, #0
 8001cd8:	e7f1      	b.n	8001cbe <RTC_EnterInitMode+0x26>

08001cda <RTC_ExitInitMode>:
HAL_StatusTypeDef RTC_ExitInitMode(RTC_HandleTypeDef *hrtc)
{
  HAL_StatusTypeDef status = HAL_OK;

  /* Clear INIT bit to exit Initialization mode */
  CLEAR_BIT(hrtc->Instance->ISR, RTC_ISR_INIT);
 8001cda:	6803      	ldr	r3, [r0, #0]
 8001cdc:	68da      	ldr	r2, [r3, #12]
 8001cde:	f022 0280 	bic.w	r2, r2, #128	@ 0x80
{
 8001ce2:	b510      	push	{r4, lr}
  CLEAR_BIT(hrtc->Instance->ISR, RTC_ISR_INIT);
 8001ce4:	60da      	str	r2, [r3, #12]
{
 8001ce6:	4604      	mov	r4, r0

  /* If CR_BYPSHAD bit = 0, wait for synchro */
  if (READ_BIT(hrtc->Instance->CR, RTC_CR_BYPSHAD) == 0U)
 8001ce8:	689b      	ldr	r3, [r3, #8]
 8001cea:	069b      	lsls	r3, r3, #26
 8001cec:	d501      	bpl.n	8001cf2 <RTC_ExitInitMode+0x18>
  HAL_StatusTypeDef status = HAL_OK;
 8001cee:	2000      	movs	r0, #0
      status = HAL_ERROR;
    }
  }

  return status;
}
 8001cf0:	bd10      	pop	{r4, pc}
    if (HAL_RTC_WaitForSynchro(hrtc) != HAL_OK)
 8001cf2:	f7ff ffb9 	bl	8001c68 <HAL_RTC_WaitForSynchro>
 8001cf6:	2800      	cmp	r0, #0
 8001cf8:	d0f9      	beq.n	8001cee <RTC_ExitInitMode+0x14>
      hrtc->State = HAL_RTC_STATE_ERROR;
 8001cfa:	2304      	movs	r3, #4
      status = HAL_ERROR;
 8001cfc:	2001      	movs	r0, #1
      hrtc->State = HAL_RTC_STATE_ERROR;
 8001cfe:	7763      	strb	r3, [r4, #29]
      status = HAL_ERROR;
 8001d00:	e7f6      	b.n	8001cf0 <RTC_ExitInitMode+0x16>

08001d02 <HAL_RTC_Init>:
{
 8001d02:	b510      	push	{r4, lr}
  if (hrtc == NULL)
 8001d04:	4604      	mov	r4, r0
 8001d06:	2800      	cmp	r0, #0
 8001d08:	d041      	beq.n	8001d8e <HAL_RTC_Init+0x8c>
  if (hrtc->State == HAL_RTC_STATE_RESET)
 8001d0a:	7f43      	ldrb	r3, [r0, #29]
 8001d0c:	f003 02ff 	and.w	r2, r3, #255	@ 0xff
 8001d10:	b913      	cbnz	r3, 8001d18 <HAL_RTC_Init+0x16>
    hrtc->Lock = HAL_UNLOCKED;
 8001d12:	7702      	strb	r2, [r0, #28]
    HAL_RTC_MspInit(hrtc);
 8001d14:	f7fe ff00 	bl	8000b18 <HAL_RTC_MspInit>
  hrtc->State = HAL_RTC_STATE_BUSY;
 8001d18:	2302      	movs	r3, #2
 8001d1a:	7763      	strb	r3, [r4, #29]
  if (__HAL_RTC_IS_CALENDAR_INITIALIZED(hrtc) == 0U)
 8001d1c:	6823      	ldr	r3, [r4, #0]
 8001d1e:	68da      	ldr	r2, [r3, #12]
 8001d20:	06d2      	lsls	r2, r2, #27
 8001d22:	d503      	bpl.n	8001d2c <HAL_RTC_Init+0x2a>
    hrtc->State = HAL_RTC_STATE_READY;
 8001d24:	2301      	movs	r3, #1
 8001d26:	2000      	movs	r0, #0
 8001d28:	7763      	strb	r3, [r4, #29]
}
 8001d2a:	bd10      	pop	{r4, pc}
    __HAL_RTC_WRITEPROTECTION_DISABLE(hrtc);
 8001d2c:	22ca      	movs	r2, #202	@ 0xca
    status = RTC_EnterInitMode(hrtc);
 8001d2e:	4620      	mov	r0, r4
    __HAL_RTC_WRITEPROTECTION_DISABLE(hrtc);
 8001d30:	625a      	str	r2, [r3, #36]	@ 0x24
 8001d32:	2253      	movs	r2, #83	@ 0x53
 8001d34:	625a      	str	r2, [r3, #36]	@ 0x24
    status = RTC_EnterInitMode(hrtc);
 8001d36:	f7ff ffaf 	bl	8001c98 <RTC_EnterInitMode>
    if (status == HAL_OK)
 8001d3a:	bb10      	cbnz	r0, 8001d82 <HAL_RTC_Init+0x80>
      hrtc->Instance->CR &= ((uint32_t)~(RTC_CR_FMT | RTC_CR_OSEL | RTC_CR_POL));
 8001d3c:	6823      	ldr	r3, [r4, #0]
      hrtc->Instance->CR |= (uint32_t)(hrtc->Init.HourFormat | hrtc->Init.OutPut | hrtc->Init.OutPutPolarity);
 8001d3e:	6920      	ldr	r0, [r4, #16]
      hrtc->Instance->CR &= ((uint32_t)~(RTC_CR_FMT | RTC_CR_OSEL | RTC_CR_POL));
 8001d40:	689a      	ldr	r2, [r3, #8]
 8001d42:	f422 02e0 	bic.w	r2, r2, #7340032	@ 0x700000
 8001d46:	f022 0240 	bic.w	r2, r2, #64	@ 0x40
 8001d4a:	609a      	str	r2, [r3, #8]
      hrtc->Instance->CR |= (uint32_t)(hrtc->Init.HourFormat | hrtc->Init.OutPut | hrtc->Init.OutPutPolarity);
 8001d4c:	6862      	ldr	r2, [r4, #4]
 8001d4e:	6899      	ldr	r1, [r3, #8]
 8001d50:	4302      	orrs	r2, r0
 8001d52:	6960      	ldr	r0, [r4, #20]
 8001d54:	4302      	orrs	r2, r0
      status = RTC_ExitInitMode(hrtc);
 8001d56:	4620      	mov	r0, r4
      hrtc->Instance->CR |= (uint32_t)(hrtc->Init.HourFormat | hrtc->Init.OutPut | hrtc->Init.OutPutPolarity);
 8001d58:	430a      	orrs	r2, r1
      hrtc->Instance->PRER |= (uint32_t)(hrtc->Init.AsynchPrediv << RTC_PRER_PREDIV_A_Pos);
 8001d5a:	68a1      	ldr	r1, [r4, #8]
      hrtc->Instance->CR |= (uint32_t)(hrtc->Init.HourFormat | hrtc->Init.OutPut | hrtc->Init.OutPutPolarity);
 8001d5c:	609a      	str	r2, [r3, #8]
      hrtc->Instance->PRER = (uint32_t)(hrtc->Init.SynchPrediv);
 8001d5e:	68e2      	ldr	r2, [r4, #12]
 8001d60:	611a      	str	r2, [r3, #16]
      hrtc->Instance->PRER |= (uint32_t)(hrtc->Init.AsynchPrediv << RTC_PRER_PREDIV_A_Pos);
 8001d62:	691a      	ldr	r2, [r3, #16]
 8001d64:	ea42 4201 	orr.w	r2, r2, r1, lsl #16
 8001d68:	611a      	str	r2, [r3, #16]
      status = RTC_ExitInitMode(hrtc);
 8001d6a:	f7ff ffb6 	bl	8001cda <RTC_ExitInitMode>
    if (status == HAL_OK)
 8001d6e:	b940      	cbnz	r0, 8001d82 <HAL_RTC_Init+0x80>
      hrtc->Instance->OR &= (uint32_t)~RTC_OUTPUT_TYPE_PUSHPULL;
 8001d70:	6823      	ldr	r3, [r4, #0]
      hrtc->Instance->OR |= (uint32_t)(hrtc->Init.OutPutType);
 8001d72:	69a1      	ldr	r1, [r4, #24]
      hrtc->Instance->OR &= (uint32_t)~RTC_OUTPUT_TYPE_PUSHPULL;
 8001d74:	6cda      	ldr	r2, [r3, #76]	@ 0x4c
 8001d76:	f022 0208 	bic.w	r2, r2, #8
 8001d7a:	64da      	str	r2, [r3, #76]	@ 0x4c
      hrtc->Instance->OR |= (uint32_t)(hrtc->Init.OutPutType);
 8001d7c:	6cda      	ldr	r2, [r3, #76]	@ 0x4c
 8001d7e:	430a      	orrs	r2, r1
 8001d80:	64da      	str	r2, [r3, #76]	@ 0x4c
    __HAL_RTC_WRITEPROTECTION_ENABLE(hrtc);
 8001d82:	6823      	ldr	r3, [r4, #0]
 8001d84:	22ff      	movs	r2, #255	@ 0xff
 8001d86:	625a      	str	r2, [r3, #36]	@ 0x24
  if (status == HAL_OK)
 8001d88:	2800      	cmp	r0, #0
 8001d8a:	d0cb      	beq.n	8001d24 <HAL_RTC_Init+0x22>
 8001d8c:	e7cd      	b.n	8001d2a <HAL_RTC_Init+0x28>
    return HAL_ERROR;
 8001d8e:	2001      	movs	r0, #1
 8001d90:	e7cb      	b.n	8001d2a <HAL_RTC_Init+0x28>

08001d92 <RTC_ByteToBcd2>:
  * @param  number decimal-formatted number (from 0 to 99) to be converted
  * @retval Converted byte
  */
uint8_t RTC_ByteToBcd2(uint8_t number)
{
  uint32_t bcdhigh = 0U;
 8001d92:	2300      	movs	r3, #0

  while (number >= 10U)
 8001d94:	2809      	cmp	r0, #9
 8001d96:	d803      	bhi.n	8001da0 <RTC_ByteToBcd2+0xe>
  {
    bcdhigh++;
    number -= 10U;
  }

  return ((uint8_t)(bcdhigh << 4U) | number);
 8001d98:	ea40 1003 	orr.w	r0, r0, r3, lsl #4
}
 8001d9c:	b2c0      	uxtb	r0, r0
 8001d9e:	4770      	bx	lr
    number -= 10U;
 8001da0:	380a      	subs	r0, #10
    bcdhigh++;
 8001da2:	3301      	adds	r3, #1
    number -= 10U;
 8001da4:	b2c0      	uxtb	r0, r0
 8001da6:	e7f5      	b.n	8001d94 <RTC_ByteToBcd2+0x2>

08001da8 <HAL_RTC_SetTime>:
{
 8001da8:	e92d 41f0 	stmdb	sp!, {r4, r5, r6, r7, r8, lr}
  __HAL_LOCK(hrtc);
 8001dac:	7f03      	ldrb	r3, [r0, #28]
{
 8001dae:	4606      	mov	r6, r0
 8001db0:	460f      	mov	r7, r1
 8001db2:	2002      	movs	r0, #2
  __HAL_LOCK(hrtc);
 8001db4:	2b01      	cmp	r3, #1
 8001db6:	d041      	beq.n	8001e3c <HAL_RTC_SetTime+0x94>
 8001db8:	2301      	movs	r3, #1
    if ((hrtc->Instance->CR & RTC_CR_FMT) != 0U)
 8001dba:	6831      	ldr	r1, [r6, #0]
  hrtc->State = HAL_RTC_STATE_BUSY;
 8001dbc:	7770      	strb	r0, [r6, #29]
  __HAL_LOCK(hrtc);
 8001dbe:	7733      	strb	r3, [r6, #28]
  if (Format == RTC_FORMAT_BIN)
 8001dc0:	7838      	ldrb	r0, [r7, #0]
 8001dc2:	787d      	ldrb	r5, [r7, #1]
 8001dc4:	78bc      	ldrb	r4, [r7, #2]
    if ((hrtc->Instance->CR & RTC_CR_FMT) != 0U)
 8001dc6:	688b      	ldr	r3, [r1, #8]
  if (Format == RTC_FORMAT_BIN)
 8001dc8:	2a00      	cmp	r2, #0
 8001dca:	d139      	bne.n	8001e40 <HAL_RTC_SetTime+0x98>
    if ((hrtc->Instance->CR & RTC_CR_FMT) != 0U)
 8001dcc:	f013 0340 	ands.w	r3, r3, #64	@ 0x40
      sTime->TimeFormat = 0x00U;
 8001dd0:	bf08      	it	eq
 8001dd2:	70fb      	strbeq	r3, [r7, #3]
    tmpreg = (uint32_t)(( (uint32_t)RTC_ByteToBcd2(sTime->Hours)   << RTC_TR_HU_Pos)  | \
 8001dd4:	f7ff ffdd 	bl	8001d92 <RTC_ByteToBcd2>
 8001dd8:	4680      	mov	r8, r0
                        ( (uint32_t)RTC_ByteToBcd2(sTime->Minutes) << RTC_TR_MNU_Pos) | \
 8001dda:	4628      	mov	r0, r5
 8001ddc:	f7ff ffd9 	bl	8001d92 <RTC_ByteToBcd2>
 8001de0:	4602      	mov	r2, r0
                        ( (uint32_t)RTC_ByteToBcd2(sTime->Seconds))                   | \
 8001de2:	4620      	mov	r0, r4
 8001de4:	f7ff ffd5 	bl	8001d92 <RTC_ByteToBcd2>
                        (((uint32_t)sTime->TimeFormat)             << RTC_TR_PM_Pos));
 8001de8:	78fb      	ldrb	r3, [r7, #3]
    tmpreg = (uint32_t)(( (uint32_t)RTC_ByteToBcd2(sTime->Hours)   << RTC_TR_HU_Pos)  | \
 8001dea:	ea40 5383 	orr.w	r3, r0, r3, lsl #22
 8001dee:	ea43 4308 	orr.w	r3, r3, r8, lsl #16
 8001df2:	ea43 2402 	orr.w	r4, r3, r2, lsl #8
  __HAL_RTC_WRITEPROTECTION_DISABLE(hrtc);
 8001df6:	23ca      	movs	r3, #202	@ 0xca
  status = RTC_EnterInitMode(hrtc);
 8001df8:	4630      	mov	r0, r6
  __HAL_RTC_WRITEPROTECTION_DISABLE(hrtc);
 8001dfa:	624b      	str	r3, [r1, #36]	@ 0x24
 8001dfc:	2353      	movs	r3, #83	@ 0x53
 8001dfe:	624b      	str	r3, [r1, #36]	@ 0x24
  status = RTC_EnterInitMode(hrtc);
 8001e00:	f7ff ff4a 	bl	8001c98 <RTC_EnterInitMode>
  if (status == HAL_OK)
 8001e04:	b9a8      	cbnz	r0, 8001e32 <HAL_RTC_SetTime+0x8a>
    hrtc->Instance->TR = (uint32_t)(tmpreg & RTC_TR_RESERVED_MASK);
 8001e06:	f004 347f 	and.w	r4, r4, #2139062143	@ 0x7f7f7f7f
 8001e0a:	6832      	ldr	r2, [r6, #0]
 8001e0c:	f024 44fe 	bic.w	r4, r4, #2130706432	@ 0x7f000000
 8001e10:	6014      	str	r4, [r2, #0]
    hrtc->Instance->CR &= (uint32_t)~RTC_CR_BKP;
 8001e12:	6893      	ldr	r3, [r2, #8]
 8001e14:	f423 2380 	bic.w	r3, r3, #262144	@ 0x40000
 8001e18:	6093      	str	r3, [r2, #8]
    hrtc->Instance->CR |= (uint32_t)(sTime->DayLightSaving | sTime->StoreOperation);
 8001e1a:	6891      	ldr	r1, [r2, #8]
 8001e1c:	e9d7 3003 	ldrd	r3, r0, [r7, #12]
 8001e20:	4303      	orrs	r3, r0
    status = RTC_ExitInitMode(hrtc);
 8001e22:	4630      	mov	r0, r6
    hrtc->Instance->CR |= (uint32_t)(sTime->DayLightSaving | sTime->StoreOperation);
 8001e24:	430b      	orrs	r3, r1
 8001e26:	6093      	str	r3, [r2, #8]
    status = RTC_ExitInitMode(hrtc);
 8001e28:	f7ff ff57 	bl	8001cda <RTC_ExitInitMode>
  if (status == HAL_OK)
 8001e2c:	b908      	cbnz	r0, 8001e32 <HAL_RTC_SetTime+0x8a>
    hrtc->State = HAL_RTC_STATE_READY;
 8001e2e:	2301      	movs	r3, #1
 8001e30:	7773      	strb	r3, [r6, #29]
  __HAL_RTC_WRITEPROTECTION_ENABLE(hrtc);
 8001e32:	6833      	ldr	r3, [r6, #0]
 8001e34:	22ff      	movs	r2, #255	@ 0xff
 8001e36:	625a      	str	r2, [r3, #36]	@ 0x24
  __HAL_UNLOCK(hrtc);
 8001e38:	2300      	movs	r3, #0
 8001e3a:	7733      	strb	r3, [r6, #28]
}
 8001e3c:	e8bd 81f0 	ldmia.w	sp!, {r4, r5, r6, r7, r8, pc}
              ((uint32_t)(sTime->Minutes)    << RTC_TR_MNU_Pos) | \
 8001e40:	022d      	lsls	r5, r5, #8
    if ((hrtc->Instance->CR & RTC_CR_FMT) != 0U)
 8001e42:	f013 0340 	ands.w	r3, r3, #64	@ 0x40
    tmpreg = (((uint32_t)(sTime->Hours)      << RTC_TR_HU_Pos)  | \
 8001e46:	ea45 4500 	orr.w	r5, r5, r0, lsl #16
      sTime->TimeFormat = 0x00U;
 8001e4a:	bf08      	it	eq
 8001e4c:	70fb      	strbeq	r3, [r7, #3]
              ((uint32_t)(sTime->TimeFormat) << RTC_TR_PM_Pos));
 8001e4e:	78fa      	ldrb	r2, [r7, #3]
              ((uint32_t)(sTime->Minutes)    << RTC_TR_MNU_Pos) | \
 8001e50:	ea45 0304 	orr.w	r3, r5, r4
    tmpreg = (((uint32_t)(sTime->Hours)      << RTC_TR_HU_Pos)  | \
 8001e54:	ea43 5482 	orr.w	r4, r3, r2, lsl #22
 8001e58:	e7cd      	b.n	8001df6 <HAL_RTC_SetTime+0x4e>

08001e5a <HAL_RTC_SetDate>:
{
 8001e5a:	b5f8      	push	{r3, r4, r5, r6, r7, lr}
  __HAL_LOCK(hrtc);
 8001e5c:	7f03      	ldrb	r3, [r0, #28]
{
 8001e5e:	4605      	mov	r5, r0
 8001e60:	2002      	movs	r0, #2
  __HAL_LOCK(hrtc);
 8001e62:	2b01      	cmp	r3, #1
 8001e64:	d027      	beq.n	8001eb6 <HAL_RTC_SetDate+0x5c>
 8001e66:	2301      	movs	r3, #1
  hrtc->State = HAL_RTC_STATE_BUSY;
 8001e68:	7768      	strb	r0, [r5, #29]
  __HAL_LOCK(hrtc);
 8001e6a:	772b      	strb	r3, [r5, #28]
                  (((uint32_t)sDate->WeekDay) << RTC_DR_WDU_Pos));
 8001e6c:	780e      	ldrb	r6, [r1, #0]
    datetmpreg = ((((uint32_t)sDate->Year)    << RTC_DR_YU_Pos) | \
 8001e6e:	78c8      	ldrb	r0, [r1, #3]
                  (((uint32_t)sDate->Month)   << RTC_DR_MU_Pos) | \
 8001e70:	784c      	ldrb	r4, [r1, #1]
                  (((uint32_t)sDate->WeekDay) << RTC_DR_WDU_Pos));
 8001e72:	0376      	lsls	r6, r6, #13
                  ((uint32_t) sDate->Date)                      | \
 8001e74:	788f      	ldrb	r7, [r1, #2]
  if ((Format == RTC_FORMAT_BIN) && ((sDate->Month & 0x10U) == 0x10U))
 8001e76:	b1fa      	cbz	r2, 8001eb8 <HAL_RTC_SetDate+0x5e>
    datetmpreg = ((((uint32_t)sDate->Year)    << RTC_DR_YU_Pos) | \
 8001e78:	ea46 4300 	orr.w	r3, r6, r0, lsl #16
 8001e7c:	433b      	orrs	r3, r7
 8001e7e:	ea43 2404 	orr.w	r4, r3, r4, lsl #8
  __HAL_RTC_WRITEPROTECTION_DISABLE(hrtc);
 8001e82:	682b      	ldr	r3, [r5, #0]
 8001e84:	22ca      	movs	r2, #202	@ 0xca
  status = RTC_EnterInitMode(hrtc);
 8001e86:	4628      	mov	r0, r5
  __HAL_RTC_WRITEPROTECTION_DISABLE(hrtc);
 8001e88:	625a      	str	r2, [r3, #36]	@ 0x24
 8001e8a:	2253      	movs	r2, #83	@ 0x53
 8001e8c:	625a      	str	r2, [r3, #36]	@ 0x24
  status = RTC_EnterInitMode(hrtc);
 8001e8e:	f7ff ff03 	bl	8001c98 <RTC_EnterInitMode>
  if (status == HAL_OK)
 8001e92:	b958      	cbnz	r0, 8001eac <HAL_RTC_SetDate+0x52>
    hrtc->Instance->DR = (uint32_t)(datetmpreg & RTC_DR_RESERVED_MASK);
 8001e94:	f024 447f 	bic.w	r4, r4, #4278190080	@ 0xff000000
 8001e98:	682a      	ldr	r2, [r5, #0]
    status = RTC_ExitInitMode(hrtc);
 8001e9a:	4628      	mov	r0, r5
    hrtc->Instance->DR = (uint32_t)(datetmpreg & RTC_DR_RESERVED_MASK);
 8001e9c:	f024 04c0 	bic.w	r4, r4, #192	@ 0xc0
 8001ea0:	6054      	str	r4, [r2, #4]
    status = RTC_ExitInitMode(hrtc);
 8001ea2:	f7ff ff1a 	bl	8001cda <RTC_ExitInitMode>
  if (status == HAL_OK)
 8001ea6:	b908      	cbnz	r0, 8001eac <HAL_RTC_SetDate+0x52>
    hrtc->State = HAL_RTC_STATE_READY;
 8001ea8:	2301      	movs	r3, #1
 8001eaa:	776b      	strb	r3, [r5, #29]
  __HAL_RTC_WRITEPROTECTION_ENABLE(hrtc);
 8001eac:	682b      	ldr	r3, [r5, #0]
 8001eae:	22ff      	movs	r2, #255	@ 0xff
 8001eb0:	625a      	str	r2, [r3, #36]	@ 0x24
  __HAL_UNLOCK(hrtc);
 8001eb2:	2300      	movs	r3, #0
 8001eb4:	772b      	strb	r3, [r5, #28]
}
 8001eb6:	bdf8      	pop	{r3, r4, r5, r6, r7, pc}
  if ((Format == RTC_FORMAT_BIN) && ((sDate->Month & 0x10U) == 0x10U))
 8001eb8:	06e3      	lsls	r3, r4, #27
    sDate->Month = (uint8_t)((sDate->Month & (uint8_t)~(0x10U)) + (uint8_t)0x0AU);
 8001eba:	bf42      	ittt	mi
 8001ebc:	f024 0410 	bicmi.w	r4, r4, #16
 8001ec0:	340a      	addmi	r4, #10
 8001ec2:	704c      	strbmi	r4, [r1, #1]
    datetmpreg = (((uint32_t)RTC_ByteToBcd2(sDate->Year)  << RTC_DR_YU_Pos) | \
 8001ec4:	f7ff ff65 	bl	8001d92 <RTC_ByteToBcd2>
 8001ec8:	4604      	mov	r4, r0
                  ((uint32_t)RTC_ByteToBcd2(sDate->Month) << RTC_DR_MU_Pos) | \
 8001eca:	7848      	ldrb	r0, [r1, #1]
 8001ecc:	f7ff ff61 	bl	8001d92 <RTC_ByteToBcd2>
 8001ed0:	4602      	mov	r2, r0
                  ((uint32_t)RTC_ByteToBcd2(sDate->Date))                   | \
 8001ed2:	4638      	mov	r0, r7
 8001ed4:	f7ff ff5d 	bl	8001d92 <RTC_ByteToBcd2>
    datetmpreg = (((uint32_t)RTC_ByteToBcd2(sDate->Year)  << RTC_DR_YU_Pos) | \
 8001ed8:	ea40 0306 	orr.w	r3, r0, r6
 8001edc:	ea43 4304 	orr.w	r3, r3, r4, lsl #16
 8001ee0:	ea43 2402 	orr.w	r4, r3, r2, lsl #8
 8001ee4:	e7cd      	b.n	8001e82 <HAL_RTC_SetDate+0x28>

08001ee6 <HAL_RTCEx_BKUPWrite>:
  uint32_t tmp = 0U;

  /* Check the parameters */
  assert_param(IS_RTC_BKP(BackupRegister));

  tmp = (uint32_t) &(hrtc->Instance->BKP0R);
 8001ee6:	6803      	ldr	r3, [r0, #0]
 8001ee8:	3350      	adds	r3, #80	@ 0x50
  tmp += (BackupRegister * 4U);

  /* Write the specified register */
  *(__IO uint32_t *)tmp = (uint32_t)Data;
 8001eea:	f843 2021 	str.w	r2, [r3, r1, lsl #2]
}
 8001eee:	4770      	bx	lr

08001ef0 <HAL_RTCEx_BKUPRead>:
  uint32_t tmp = 0U;

  /* Check the parameters */
  assert_param(IS_RTC_BKP(BackupRegister));

  tmp = (uint32_t) &(hrtc->Instance->BKP0R);
 8001ef0:	6803      	ldr	r3, [r0, #0]
 8001ef2:	3350      	adds	r3, #80	@ 0x50
  tmp += (BackupRegister * 4U);

  /* Read the specified register */
  return (*(__IO uint32_t *)tmp);
 8001ef4:	f853 0021 	ldr.w	r0, [r3, r1, lsl #2]
}
 8001ef8:	4770      	bx	lr

08001efa <UART_EndRxTransfer>:
  * @retval None
  */
static void UART_EndRxTransfer(UART_HandleTypeDef *huart)
{
  /* Disable RXNE, PE and ERR (Frame error, noise error, overrun error) interrupts */
  ATOMIC_CLEAR_BIT(huart->Instance->CR1, (USART_CR1_RXNEIE | USART_CR1_PEIE));
 8001efa:	6802      	ldr	r2, [r0, #0]
 */
__STATIC_FORCEINLINE uint32_t __LDREXW(volatile uint32_t *addr)
{
    uint32_t result;

   __ASM volatile ("ldrex %0, %1" : "=r" (result) : "Q" (*addr) );
 8001efc:	e852 3f00 	ldrex	r3, [r2]
 8001f00:	f423 7390 	bic.w	r3, r3, #288	@ 0x120
 */
__STATIC_FORCEINLINE uint32_t __STREXW(uint32_t value, volatile uint32_t *addr)
{
   uint32_t result;

   __ASM volatile ("strex %0, %2, %1" : "=&r" (result), "=Q" (*addr) : "r" (value) );
 8001f04:	e842 3100 	strex	r1, r3, [r2]
   return(result);
 8001f08:	6802      	ldr	r2, [r0, #0]
 8001f0a:	2900      	cmp	r1, #0
 8001f0c:	d1f5      	bne.n	8001efa <UART_EndRxTransfer>
   __ASM volatile ("ldrex %0, %1" : "=r" (result) : "Q" (*addr) );
 8001f0e:	f102 0308 	add.w	r3, r2, #8
 8001f12:	e853 3f00 	ldrex	r3, [r3]
  ATOMIC_CLEAR_BIT(huart->Instance->CR3, USART_CR3_EIE);
 8001f16:	f023 0301 	bic.w	r3, r3, #1
   __ASM volatile ("strex %0, %2, %1" : "=&r" (result), "=Q" (*addr) : "r" (value) );
 8001f1a:	f102 0c08 	add.w	ip, r2, #8
 8001f1e:	e84c 3100 	strex	r1, r3, [ip]
 8001f22:	2900      	cmp	r1, #0
 8001f24:	d1f3      	bne.n	8001f0e <UART_EndRxTransfer+0x14>

  /* In case of reception waiting for IDLE event, disable also the IDLE IE interrupt source */
  if (huart->ReceptionType == HAL_UART_RECEPTION_TOIDLE)
 8001f26:	6e03      	ldr	r3, [r0, #96]	@ 0x60
 8001f28:	2b01      	cmp	r3, #1
 8001f2a:	d107      	bne.n	8001f3c <UART_EndRxTransfer+0x42>
   __ASM volatile ("ldrex %0, %1" : "=r" (result) : "Q" (*addr) );
 8001f2c:	e852 3f00 	ldrex	r3, [r2]
  {
    ATOMIC_CLEAR_BIT(huart->Instance->CR1, USART_CR1_IDLEIE);
 8001f30:	f023 0310 	bic.w	r3, r3, #16
   __ASM volatile ("strex %0, %2, %1" : "=&r" (result), "=Q" (*addr) : "r" (value) );
 8001f34:	e842 3100 	strex	r1, r3, [r2]
 8001f38:	2900      	cmp	r1, #0
 8001f3a:	d1f7      	bne.n	8001f2c <UART_EndRxTransfer+0x32>
  }

  /* At end of Rx process, restore huart->RxState to Ready */
  huart->RxState = HAL_UART_STATE_READY;
 8001f3c:	2320      	movs	r3, #32
 8001f3e:	f8c0 3080 	str.w	r3, [r0, #128]	@ 0x80
  huart->ReceptionType = HAL_UART_RECEPTION_STANDARD;
 8001f42:	2300      	movs	r3, #0
 8001f44:	6603      	str	r3, [r0, #96]	@ 0x60

  /* Reset RxIsr function pointer */
  huart->RxISR = NULL;
 8001f46:	6683      	str	r3, [r0, #104]	@ 0x68
}
 8001f48:	4770      	bx	lr
	...

08001f4c <UART_SetConfig>:
{
 8001f4c:	b538      	push	{r3, r4, r5, lr}
 8001f4e:	4604      	mov	r4, r0
  tmpreg = (uint32_t)huart->Init.WordLength | huart->Init.Parity | huart->Init.Mode | huart->Init.OverSampling ;
 8001f50:	69c0      	ldr	r0, [r0, #28]
 8001f52:	6921      	ldr	r1, [r4, #16]
 8001f54:	68a2      	ldr	r2, [r4, #8]
  MODIFY_REG(huart->Instance->CR1, USART_CR1_FIELDS, tmpreg);
 8001f56:	6823      	ldr	r3, [r4, #0]
  tmpreg = (uint32_t)huart->Init.WordLength | huart->Init.Parity | huart->Init.Mode | huart->Init.OverSampling ;
 8001f58:	430a      	orrs	r2, r1
 8001f5a:	6961      	ldr	r1, [r4, #20]
  MODIFY_REG(huart->Instance->CR1, USART_CR1_FIELDS, tmpreg);
 8001f5c:	681d      	ldr	r5, [r3, #0]
  tmpreg = (uint32_t)huart->Init.WordLength | huart->Init.Parity | huart->Init.Mode | huart->Init.OverSampling ;
 8001f5e:	430a      	orrs	r2, r1
  MODIFY_REG(huart->Instance->CR1, USART_CR1_FIELDS, tmpreg);
 8001f60:	496e      	ldr	r1, [pc, #440]	@ (800211c <UART_SetConfig+0x1d0>)
  tmpreg = (uint32_t)huart->Init.WordLength | huart->Init.Parity | huart->Init.Mode | huart->Init.OverSampling ;
 8001f62:	4302      	orrs	r2, r0
  MODIFY_REG(huart->Instance->CR1, USART_CR1_FIELDS, tmpreg);
 8001f64:	4029      	ands	r1, r5
  tmpreg |= huart->Init.OneBitSampling;
 8001f66:	6a25      	ldr	r5, [r4, #32]
  MODIFY_REG(huart->Instance->CR1, USART_CR1_FIELDS, tmpreg);
 8001f68:	430a      	orrs	r2, r1
  MODIFY_REG(huart->Instance->CR2, USART_CR2_STOP, huart->Init.StopBits);
 8001f6a:	68e1      	ldr	r1, [r4, #12]
  MODIFY_REG(huart->Instance->CR1, USART_CR1_FIELDS, tmpreg);
 8001f6c:	601a      	str	r2, [r3, #0]
  MODIFY_REG(huart->Instance->CR2, USART_CR2_STOP, huart->Init.StopBits);
 8001f6e:	685a      	ldr	r2, [r3, #4]
 8001f70:	f422 5240 	bic.w	r2, r2, #12288	@ 0x3000
 8001f74:	430a      	orrs	r2, r1
 8001f76:	605a      	str	r2, [r3, #4]
  tmpreg = (uint32_t)huart->Init.HwFlowCtl;
 8001f78:	69a2      	ldr	r2, [r4, #24]
  MODIFY_REG(huart->Instance->CR3, USART_CR3_FIELDS, tmpreg);
 8001f7a:	6899      	ldr	r1, [r3, #8]
  tmpreg |= huart->Init.OneBitSampling;
 8001f7c:	432a      	orrs	r2, r5
  MODIFY_REG(huart->Instance->CR3, USART_CR3_FIELDS, tmpreg);
 8001f7e:	f421 6130 	bic.w	r1, r1, #2816	@ 0xb00
 8001f82:	430a      	orrs	r2, r1
 8001f84:	609a      	str	r2, [r3, #8]
  UART_GETCLOCKSOURCE(huart, clocksource);
 8001f86:	4a66      	ldr	r2, [pc, #408]	@ (8002120 <UART_SetConfig+0x1d4>)
 8001f88:	4293      	cmp	r3, r2
 8001f8a:	d113      	bne.n	8001fb4 <UART_SetConfig+0x68>
 8001f8c:	4b65      	ldr	r3, [pc, #404]	@ (8002124 <UART_SetConfig+0x1d8>)
 8001f8e:	f8d3 3090 	ldr.w	r3, [r3, #144]	@ 0x90
 8001f92:	f003 0303 	and.w	r3, r3, #3
 8001f96:	2b02      	cmp	r3, #2
 8001f98:	f000 80a5 	beq.w	80020e6 <UART_SetConfig+0x19a>
 8001f9c:	2b03      	cmp	r3, #3
 8001f9e:	f000 809c 	beq.w	80020da <UART_SetConfig+0x18e>
 8001fa2:	2b01      	cmp	r3, #1
 8001fa4:	d067      	beq.n	8002076 <UART_SetConfig+0x12a>
  if (huart->Init.OverSampling == UART_OVERSAMPLING_8)
 8001fa6:	f5b0 4f00 	cmp.w	r0, #32768	@ 0x8000
 8001faa:	f000 8090 	beq.w	80020ce <UART_SetConfig+0x182>
        pclk = HAL_RCC_GetPCLK2Freq();
 8001fae:	f7ff fbc1 	bl	8001734 <HAL_RCC_GetPCLK2Freq>
        break;
 8001fb2:	e012      	b.n	8001fda <UART_SetConfig+0x8e>
  UART_GETCLOCKSOURCE(huart, clocksource);
 8001fb4:	4a5c      	ldr	r2, [pc, #368]	@ (8002128 <UART_SetConfig+0x1dc>)
 8001fb6:	4293      	cmp	r3, r2
 8001fb8:	d126      	bne.n	8002008 <UART_SetConfig+0xbc>
 8001fba:	4b5a      	ldr	r3, [pc, #360]	@ (8002124 <UART_SetConfig+0x1d8>)
 8001fbc:	f8d3 3090 	ldr.w	r3, [r3, #144]	@ 0x90
 8001fc0:	f003 030c 	and.w	r3, r3, #12
 8001fc4:	2b08      	cmp	r3, #8
 8001fc6:	f000 808e 	beq.w	80020e6 <UART_SetConfig+0x19a>
 8001fca:	d816      	bhi.n	8001ffa <UART_SetConfig+0xae>
 8001fcc:	2b00      	cmp	r3, #0
 8001fce:	d152      	bne.n	8002076 <UART_SetConfig+0x12a>
  if (huart->Init.OverSampling == UART_OVERSAMPLING_8)
 8001fd0:	f5b0 4f00 	cmp.w	r0, #32768	@ 0x8000
 8001fd4:	d076      	beq.n	80020c4 <UART_SetConfig+0x178>
        pclk = HAL_RCC_GetPCLK1Freq();
 8001fd6:	f7ff fb9d 	bl	8001714 <HAL_RCC_GetPCLK1Freq>
    if (pclk != 0U)
 8001fda:	2800      	cmp	r0, #0
 8001fdc:	d075      	beq.n	80020ca <UART_SetConfig+0x17e>
      usartdiv = (uint32_t)(UART_DIV_SAMPLING16(pclk, huart->Init.BaudRate));
 8001fde:	6862      	ldr	r2, [r4, #4]
 8001fe0:	eb00 0352 	add.w	r3, r0, r2, lsr #1
 8001fe4:	fbb3 f3f2 	udiv	r3, r3, r2
      if ((usartdiv >= UART_BRR_MIN) && (usartdiv <= UART_BRR_MAX))
 8001fe8:	f64f 72ef 	movw	r2, #65519	@ 0xffef
 8001fec:	f1a3 0110 	sub.w	r1, r3, #16
 8001ff0:	4291      	cmp	r1, r2
 8001ff2:	d804      	bhi.n	8001ffe <UART_SetConfig+0xb2>
        huart->Instance->BRR = (uint16_t)usartdiv;
 8001ff4:	6822      	ldr	r2, [r4, #0]
 8001ff6:	60d3      	str	r3, [r2, #12]
 8001ff8:	e067      	b.n	80020ca <UART_SetConfig+0x17e>
  UART_GETCLOCKSOURCE(huart, clocksource);
 8001ffa:	2b0c      	cmp	r3, #12
 8001ffc:	d06d      	beq.n	80020da <UART_SetConfig+0x18e>
        ret = HAL_ERROR;
 8001ffe:	2001      	movs	r0, #1
  huart->RxISR = NULL;
 8002000:	2300      	movs	r3, #0
  huart->TxISR = NULL;
 8002002:	e9c4 331a 	strd	r3, r3, [r4, #104]	@ 0x68
}
 8002006:	bd38      	pop	{r3, r4, r5, pc}
  UART_GETCLOCKSOURCE(huart, clocksource);
 8002008:	4a48      	ldr	r2, [pc, #288]	@ (800212c <UART_SetConfig+0x1e0>)
 800200a:	4293      	cmp	r3, r2
 800200c:	d109      	bne.n	8002022 <UART_SetConfig+0xd6>
 800200e:	4b45      	ldr	r3, [pc, #276]	@ (8002124 <UART_SetConfig+0x1d8>)
 8002010:	f8d3 3090 	ldr.w	r3, [r3, #144]	@ 0x90
 8002014:	f003 0330 	and.w	r3, r3, #48	@ 0x30
 8002018:	2b20      	cmp	r3, #32
 800201a:	d064      	beq.n	80020e6 <UART_SetConfig+0x19a>
 800201c:	d9d6      	bls.n	8001fcc <UART_SetConfig+0x80>
 800201e:	2b30      	cmp	r3, #48	@ 0x30
 8002020:	e7ec      	b.n	8001ffc <UART_SetConfig+0xb0>
 8002022:	4a43      	ldr	r2, [pc, #268]	@ (8002130 <UART_SetConfig+0x1e4>)
 8002024:	4293      	cmp	r3, r2
 8002026:	d109      	bne.n	800203c <UART_SetConfig+0xf0>
 8002028:	4b3e      	ldr	r3, [pc, #248]	@ (8002124 <UART_SetConfig+0x1d8>)
 800202a:	f8d3 3090 	ldr.w	r3, [r3, #144]	@ 0x90
 800202e:	f003 03c0 	and.w	r3, r3, #192	@ 0xc0
 8002032:	2b80      	cmp	r3, #128	@ 0x80
 8002034:	d057      	beq.n	80020e6 <UART_SetConfig+0x19a>
 8002036:	d9c9      	bls.n	8001fcc <UART_SetConfig+0x80>
 8002038:	2bc0      	cmp	r3, #192	@ 0xc0
 800203a:	e7df      	b.n	8001ffc <UART_SetConfig+0xb0>
 800203c:	4a3d      	ldr	r2, [pc, #244]	@ (8002134 <UART_SetConfig+0x1e8>)
 800203e:	4293      	cmp	r3, r2
 8002040:	d10b      	bne.n	800205a <UART_SetConfig+0x10e>
 8002042:	4b38      	ldr	r3, [pc, #224]	@ (8002124 <UART_SetConfig+0x1d8>)
 8002044:	f8d3 3090 	ldr.w	r3, [r3, #144]	@ 0x90
 8002048:	f403 7340 	and.w	r3, r3, #768	@ 0x300
 800204c:	f5b3 7f00 	cmp.w	r3, #512	@ 0x200
 8002050:	d049      	beq.n	80020e6 <UART_SetConfig+0x19a>
 8002052:	d9bb      	bls.n	8001fcc <UART_SetConfig+0x80>
 8002054:	f5b3 7f40 	cmp.w	r3, #768	@ 0x300
 8002058:	e7d0      	b.n	8001ffc <UART_SetConfig+0xb0>
 800205a:	4a37      	ldr	r2, [pc, #220]	@ (8002138 <UART_SetConfig+0x1ec>)
 800205c:	4293      	cmp	r3, r2
 800205e:	d113      	bne.n	8002088 <UART_SetConfig+0x13c>
 8002060:	4b30      	ldr	r3, [pc, #192]	@ (8002124 <UART_SetConfig+0x1d8>)
 8002062:	f8d3 3090 	ldr.w	r3, [r3, #144]	@ 0x90
 8002066:	f403 6340 	and.w	r3, r3, #3072	@ 0xc00
 800206a:	f5b3 6f00 	cmp.w	r3, #2048	@ 0x800
 800206e:	d03a      	beq.n	80020e6 <UART_SetConfig+0x19a>
 8002070:	d807      	bhi.n	8002082 <UART_SetConfig+0x136>
 8002072:	2b00      	cmp	r3, #0
 8002074:	d097      	beq.n	8001fa6 <UART_SetConfig+0x5a>
  if (huart->Init.OverSampling == UART_OVERSAMPLING_8)
 8002076:	f5b0 4f00 	cmp.w	r0, #32768	@ 0x8000
 800207a:	d12b      	bne.n	80020d4 <UART_SetConfig+0x188>
        pclk = HAL_RCC_GetSysClockFreq();
 800207c:	f7ff fa7e 	bl	800157c <HAL_RCC_GetSysClockFreq>
        break;
 8002080:	e022      	b.n	80020c8 <UART_SetConfig+0x17c>
  UART_GETCLOCKSOURCE(huart, clocksource);
 8002082:	f5b3 6f40 	cmp.w	r3, #3072	@ 0xc00
 8002086:	e7b9      	b.n	8001ffc <UART_SetConfig+0xb0>
 8002088:	4a2c      	ldr	r2, [pc, #176]	@ (800213c <UART_SetConfig+0x1f0>)
 800208a:	4293      	cmp	r3, r2
 800208c:	d10b      	bne.n	80020a6 <UART_SetConfig+0x15a>
 800208e:	4b25      	ldr	r3, [pc, #148]	@ (8002124 <UART_SetConfig+0x1d8>)
 8002090:	f8d3 3090 	ldr.w	r3, [r3, #144]	@ 0x90
 8002094:	f403 5340 	and.w	r3, r3, #12288	@ 0x3000
 8002098:	f5b3 5f00 	cmp.w	r3, #8192	@ 0x2000
 800209c:	d023      	beq.n	80020e6 <UART_SetConfig+0x19a>
 800209e:	d995      	bls.n	8001fcc <UART_SetConfig+0x80>
 80020a0:	f5b3 5f40 	cmp.w	r3, #12288	@ 0x3000
 80020a4:	e7aa      	b.n	8001ffc <UART_SetConfig+0xb0>
 80020a6:	4a26      	ldr	r2, [pc, #152]	@ (8002140 <UART_SetConfig+0x1f4>)
 80020a8:	4293      	cmp	r3, r2
 80020aa:	d1a8      	bne.n	8001ffe <UART_SetConfig+0xb2>
 80020ac:	4b1d      	ldr	r3, [pc, #116]	@ (8002124 <UART_SetConfig+0x1d8>)
 80020ae:	f8d3 3090 	ldr.w	r3, [r3, #144]	@ 0x90
 80020b2:	f403 4340 	and.w	r3, r3, #49152	@ 0xc000
 80020b6:	f5b3 4f00 	cmp.w	r3, #32768	@ 0x8000
 80020ba:	d014      	beq.n	80020e6 <UART_SetConfig+0x19a>
 80020bc:	d986      	bls.n	8001fcc <UART_SetConfig+0x80>
 80020be:	f5b3 4f40 	cmp.w	r3, #49152	@ 0xc000
 80020c2:	e79b      	b.n	8001ffc <UART_SetConfig+0xb0>
        pclk = HAL_RCC_GetPCLK1Freq();
 80020c4:	f7ff fb26 	bl	8001714 <HAL_RCC_GetPCLK1Freq>
    if (pclk != 0U)
 80020c8:	b990      	cbnz	r0, 80020f0 <UART_SetConfig+0x1a4>
  if (huart->Init.OverSampling == UART_OVERSAMPLING_8)
 80020ca:	2000      	movs	r0, #0
 80020cc:	e798      	b.n	8002000 <UART_SetConfig+0xb4>
        pclk = HAL_RCC_GetPCLK2Freq();
 80020ce:	f7ff fb31 	bl	8001734 <HAL_RCC_GetPCLK2Freq>
        break;
 80020d2:	e7f9      	b.n	80020c8 <UART_SetConfig+0x17c>
        pclk = HAL_RCC_GetSysClockFreq();
 80020d4:	f7ff fa52 	bl	800157c <HAL_RCC_GetSysClockFreq>
        break;
 80020d8:	e77f      	b.n	8001fda <UART_SetConfig+0x8e>
  if (huart->Init.OverSampling == UART_OVERSAMPLING_8)
 80020da:	f5b0 4f00 	cmp.w	r0, #32768	@ 0x8000
 80020de:	d007      	beq.n	80020f0 <UART_SetConfig+0x1a4>
        pclk = (uint32_t) LSE_VALUE;
 80020e0:	f44f 4000 	mov.w	r0, #32768	@ 0x8000
 80020e4:	e77b      	b.n	8001fde <UART_SetConfig+0x92>
  if (huart->Init.OverSampling == UART_OVERSAMPLING_8)
 80020e6:	f5b0 4f00 	cmp.w	r0, #32768	@ 0x8000
        pclk = (uint32_t) HSI_VALUE;
 80020ea:	4816      	ldr	r0, [pc, #88]	@ (8002144 <UART_SetConfig+0x1f8>)
  if (huart->Init.OverSampling == UART_OVERSAMPLING_8)
 80020ec:	f47f af77 	bne.w	8001fde <UART_SetConfig+0x92>
      usartdiv = (uint32_t)(UART_DIV_SAMPLING8(pclk, huart->Init.BaudRate));
 80020f0:	6862      	ldr	r2, [r4, #4]
 80020f2:	0853      	lsrs	r3, r2, #1
 80020f4:	eb03 0340 	add.w	r3, r3, r0, lsl #1
 80020f8:	fbb3 f3f2 	udiv	r3, r3, r2
      if ((usartdiv >= UART_BRR_MIN) && (usartdiv <= UART_BRR_MAX))
 80020fc:	f64f 72ef 	movw	r2, #65519	@ 0xffef
 8002100:	f1a3 0110 	sub.w	r1, r3, #16
 8002104:	4291      	cmp	r1, r2
 8002106:	f63f af7a 	bhi.w	8001ffe <UART_SetConfig+0xb2>
        brrtemp = (uint16_t)(usartdiv & 0xFFF0U);
 800210a:	f023 020f 	bic.w	r2, r3, #15
        brrtemp |= (uint16_t)((usartdiv & (uint16_t)0x000FU) >> 1U);
 800210e:	f3c3 0342 	ubfx	r3, r3, #1, #3
        huart->Instance->BRR = brrtemp;
 8002112:	6821      	ldr	r1, [r4, #0]
        brrtemp = (uint16_t)(usartdiv & 0xFFF0U);
 8002114:	b292      	uxth	r2, r2
        huart->Instance->BRR = brrtemp;
 8002116:	4313      	orrs	r3, r2
 8002118:	60cb      	str	r3, [r1, #12]
 800211a:	e7d6      	b.n	80020ca <UART_SetConfig+0x17e>
 800211c:	efff69f3 	.word	0xefff69f3
 8002120:	40011000 	.word	0x40011000
 8002124:	40023800 	.word	0x40023800
 8002128:	40004400 	.word	0x40004400
 800212c:	40004800 	.word	0x40004800
 8002130:	40004c00 	.word	0x40004c00
 8002134:	40005000 	.word	0x40005000
 8002138:	40011400 	.word	0x40011400
 800213c:	40007800 	.word	0x40007800
 8002140:	40007c00 	.word	0x40007c00
 8002144:	00f42400 	.word	0x00f42400

08002148 <UART_AdvFeatureConfig>:
  if (HAL_IS_BIT_SET(huart->AdvancedInit.AdvFeatureInit, UART_ADVFEATURE_SWAP_INIT))
 8002148:	6a43      	ldr	r3, [r0, #36]	@ 0x24
 800214a:	071a      	lsls	r2, r3, #28
{
 800214c:	b510      	push	{r4, lr}
  if (HAL_IS_BIT_SET(huart->AdvancedInit.AdvFeatureInit, UART_ADVFEATURE_SWAP_INIT))
 800214e:	d506      	bpl.n	800215e <UART_AdvFeatureConfig+0x16>
    MODIFY_REG(huart->Instance->CR2, USART_CR2_SWAP, huart->AdvancedInit.Swap);
 8002150:	6801      	ldr	r1, [r0, #0]
 8002152:	6b44      	ldr	r4, [r0, #52]	@ 0x34
 8002154:	684a      	ldr	r2, [r1, #4]
 8002156:	f422 4200 	bic.w	r2, r2, #32768	@ 0x8000
 800215a:	4322      	orrs	r2, r4
 800215c:	604a      	str	r2, [r1, #4]
  if (HAL_IS_BIT_SET(huart->AdvancedInit.AdvFeatureInit, UART_ADVFEATURE_TXINVERT_INIT))
 800215e:	07dc      	lsls	r4, r3, #31
 8002160:	d506      	bpl.n	8002170 <UART_AdvFeatureConfig+0x28>
    MODIFY_REG(huart->Instance->CR2, USART_CR2_TXINV, huart->AdvancedInit.TxPinLevelInvert);
 8002162:	6801      	ldr	r1, [r0, #0]
 8002164:	6a84      	ldr	r4, [r0, #40]	@ 0x28
 8002166:	684a      	ldr	r2, [r1, #4]
 8002168:	f422 3200 	bic.w	r2, r2, #131072	@ 0x20000
 800216c:	4322      	orrs	r2, r4
 800216e:	604a      	str	r2, [r1, #4]
  if (HAL_IS_BIT_SET(huart->AdvancedInit.AdvFeatureInit, UART_ADVFEATURE_RXINVERT_INIT))
 8002170:	0799      	lsls	r1, r3, #30
 8002172:	d506      	bpl.n	8002182 <UART_AdvFeatureConfig+0x3a>
    MODIFY_REG(huart->Instance->CR2, USART_CR2_RXINV, huart->AdvancedInit.RxPinLevelInvert);
 8002174:	6801      	ldr	r1, [r0, #0]
 8002176:	6ac4      	ldr	r4, [r0, #44]	@ 0x2c
 8002178:	684a      	ldr	r2, [r1, #4]
 800217a:	f422 3280 	bic.w	r2, r2, #65536	@ 0x10000
 800217e:	4322      	orrs	r2, r4
 8002180:	604a      	str	r2, [r1, #4]
  if (HAL_IS_BIT_SET(huart->AdvancedInit.AdvFeatureInit, UART_ADVFEATURE_DATAINVERT_INIT))
 8002182:	075a      	lsls	r2, r3, #29
 8002184:	d506      	bpl.n	8002194 <UART_AdvFeatureConfig+0x4c>
    MODIFY_REG(huart->Instance->CR2, USART_CR2_DATAINV, huart->AdvancedInit.DataInvert);
 8002186:	6801      	ldr	r1, [r0, #0]
 8002188:	6b04      	ldr	r4, [r0, #48]	@ 0x30
 800218a:	684a      	ldr	r2, [r1, #4]
 800218c:	f422 2280 	bic.w	r2, r2, #262144	@ 0x40000
 8002190:	4322      	orrs	r2, r4
 8002192:	604a      	str	r2, [r1, #4]
  if (HAL_IS_BIT_SET(huart->AdvancedInit.AdvFeatureInit, UART_ADVFEATURE_RXOVERRUNDISABLE_INIT))
 8002194:	06dc      	lsls	r4, r3, #27
 8002196:	d506      	bpl.n	80021a6 <UART_AdvFeatureConfig+0x5e>
    MODIFY_REG(huart->Instance->CR3, USART_CR3_OVRDIS, huart->AdvancedInit.OverrunDisable);
 8002198:	6801      	ldr	r1, [r0, #0]
 800219a:	6b84      	ldr	r4, [r0, #56]	@ 0x38
 800219c:	688a      	ldr	r2, [r1, #8]
 800219e:	f422 5280 	bic.w	r2, r2, #4096	@ 0x1000
 80021a2:	4322      	orrs	r2, r4
 80021a4:	608a      	str	r2, [r1, #8]
  if (HAL_IS_BIT_SET(huart->AdvancedInit.AdvFeatureInit, UART_ADVFEATURE_DMADISABLEONERROR_INIT))
 80021a6:	0699      	lsls	r1, r3, #26
 80021a8:	d506      	bpl.n	80021b8 <UART_AdvFeatureConfig+0x70>
    MODIFY_REG(huart->Instance->CR3, USART_CR3_DDRE, huart->AdvancedInit.DMADisableonRxError);
 80021aa:	6801      	ldr	r1, [r0, #0]
 80021ac:	6bc4      	ldr	r4, [r0, #60]	@ 0x3c
 80021ae:	688a      	ldr	r2, [r1, #8]
 80021b0:	f422 5200 	bic.w	r2, r2, #8192	@ 0x2000
 80021b4:	4322      	orrs	r2, r4
 80021b6:	608a      	str	r2, [r1, #8]
  if (HAL_IS_BIT_SET(huart->AdvancedInit.AdvFeatureInit, UART_ADVFEATURE_AUTOBAUDRATE_INIT))
 80021b8:	065a      	lsls	r2, r3, #25
 80021ba:	d510      	bpl.n	80021de <UART_AdvFeatureConfig+0x96>
    MODIFY_REG(huart->Instance->CR2, USART_CR2_ABREN, huart->AdvancedInit.AutoBaudRateEnable);
 80021bc:	6801      	ldr	r1, [r0, #0]
 80021be:	6c04      	ldr	r4, [r0, #64]	@ 0x40
 80021c0:	684a      	ldr	r2, [r1, #4]
    if (huart->AdvancedInit.AutoBaudRateEnable == UART_ADVFEATURE_AUTOBAUDRATE_ENABLE)
 80021c2:	f5b4 1f80 	cmp.w	r4, #1048576	@ 0x100000
    MODIFY_REG(huart->Instance->CR2, USART_CR2_ABREN, huart->AdvancedInit.AutoBaudRateEnable);
 80021c6:	f422 1280 	bic.w	r2, r2, #1048576	@ 0x100000
 80021ca:	ea42 0204 	orr.w	r2, r2, r4
 80021ce:	604a      	str	r2, [r1, #4]
    if (huart->AdvancedInit.AutoBaudRateEnable == UART_ADVFEATURE_AUTOBAUDRATE_ENABLE)
 80021d0:	d105      	bne.n	80021de <UART_AdvFeatureConfig+0x96>
      MODIFY_REG(huart->Instance->CR2, USART_CR2_ABRMODE, huart->AdvancedInit.AutoBaudRateMode);
 80021d2:	684a      	ldr	r2, [r1, #4]
 80021d4:	6c44      	ldr	r4, [r0, #68]	@ 0x44
 80021d6:	f422 02c0 	bic.w	r2, r2, #6291456	@ 0x600000
 80021da:	4322      	orrs	r2, r4
 80021dc:	604a      	str	r2, [r1, #4]
  if (HAL_IS_BIT_SET(huart->AdvancedInit.AdvFeatureInit, UART_ADVFEATURE_MSBFIRST_INIT))
 80021de:	061b      	lsls	r3, r3, #24
 80021e0:	d506      	bpl.n	80021f0 <UART_AdvFeatureConfig+0xa8>
    MODIFY_REG(huart->Instance->CR2, USART_CR2_MSBFIRST, huart->AdvancedInit.MSBFirst);
 80021e2:	6802      	ldr	r2, [r0, #0]
 80021e4:	6c81      	ldr	r1, [r0, #72]	@ 0x48
 80021e6:	6853      	ldr	r3, [r2, #4]
 80021e8:	f423 2300 	bic.w	r3, r3, #524288	@ 0x80000
 80021ec:	430b      	orrs	r3, r1
 80021ee:	6053      	str	r3, [r2, #4]
}
 80021f0:	bd10      	pop	{r4, pc}

080021f2 <UART_WaitOnFlagUntilTimeout>:
{
 80021f2:	e92d 43f8 	stmdb	sp!, {r3, r4, r5, r6, r7, r8, r9, lr}
 80021f6:	f8dd 9020 	ldr.w	r9, [sp, #32]
 80021fa:	4604      	mov	r4, r0
 80021fc:	460d      	mov	r5, r1
 80021fe:	4617      	mov	r7, r2
 8002200:	4698      	mov	r8, r3
  while ((__HAL_UART_GET_FLAG(huart, Flag) ? SET : RESET) == Status)
 8002202:	6822      	ldr	r2, [r4, #0]
 8002204:	69d3      	ldr	r3, [r2, #28]
 8002206:	ea35 0303 	bics.w	r3, r5, r3
 800220a:	bf0c      	ite	eq
 800220c:	2301      	moveq	r3, #1
 800220e:	2300      	movne	r3, #0
 8002210:	42bb      	cmp	r3, r7
 8002212:	d001      	beq.n	8002218 <UART_WaitOnFlagUntilTimeout+0x26>
  return HAL_OK;
 8002214:	2000      	movs	r0, #0
 8002216:	e022      	b.n	800225e <UART_WaitOnFlagUntilTimeout+0x6c>
    if (Timeout != HAL_MAX_DELAY)
 8002218:	f1b9 3fff 	cmp.w	r9, #4294967295
 800221c:	d0f2      	beq.n	8002204 <UART_WaitOnFlagUntilTimeout+0x12>
      if (((HAL_GetTick() - Tickstart) > Timeout) || (Timeout == 0U))
 800221e:	f7fe fdad 	bl	8000d7c <HAL_GetTick>
 8002222:	eba0 0008 	sub.w	r0, r0, r8
 8002226:	4548      	cmp	r0, r9
 8002228:	d829      	bhi.n	800227e <UART_WaitOnFlagUntilTimeout+0x8c>
 800222a:	f1b9 0f00 	cmp.w	r9, #0
 800222e:	d026      	beq.n	800227e <UART_WaitOnFlagUntilTimeout+0x8c>
      if ((READ_BIT(huart->Instance->CR1, USART_CR1_RE) != 0U) && (Flag != UART_FLAG_TXE) && (Flag != UART_FLAG_TC))
 8002230:	6821      	ldr	r1, [r4, #0]
 8002232:	680b      	ldr	r3, [r1, #0]
 8002234:	075a      	lsls	r2, r3, #29
 8002236:	d5e4      	bpl.n	8002202 <UART_WaitOnFlagUntilTimeout+0x10>
 8002238:	2d80      	cmp	r5, #128	@ 0x80
 800223a:	d0e2      	beq.n	8002202 <UART_WaitOnFlagUntilTimeout+0x10>
 800223c:	2d40      	cmp	r5, #64	@ 0x40
 800223e:	d0e0      	beq.n	8002202 <UART_WaitOnFlagUntilTimeout+0x10>
        if (__HAL_UART_GET_FLAG(huart, UART_FLAG_ORE) == SET)
 8002240:	69ce      	ldr	r6, [r1, #28]
 8002242:	f016 0608 	ands.w	r6, r6, #8
 8002246:	d00c      	beq.n	8002262 <UART_WaitOnFlagUntilTimeout+0x70>
          __HAL_UART_CLEAR_FLAG(huart, UART_CLEAR_OREF);
 8002248:	2508      	movs	r5, #8
          UART_EndRxTransfer(huart);
 800224a:	4620      	mov	r0, r4
          __HAL_UART_CLEAR_FLAG(huart, UART_CLEAR_OREF);
 800224c:	620d      	str	r5, [r1, #32]
          UART_EndRxTransfer(huart);
 800224e:	f7ff fe54 	bl	8001efa <UART_EndRxTransfer>
          __HAL_UNLOCK(huart);
 8002252:	2300      	movs	r3, #0
          return HAL_ERROR;
 8002254:	2001      	movs	r0, #1
          huart->ErrorCode = HAL_UART_ERROR_ORE;
 8002256:	f8c4 5084 	str.w	r5, [r4, #132]	@ 0x84
          __HAL_UNLOCK(huart);
 800225a:	f884 3078 	strb.w	r3, [r4, #120]	@ 0x78
}
 800225e:	e8bd 83f8 	ldmia.w	sp!, {r3, r4, r5, r6, r7, r8, r9, pc}
        if (__HAL_UART_GET_FLAG(huart, UART_FLAG_RTOF) == SET)
 8002262:	69cb      	ldr	r3, [r1, #28]
 8002264:	051b      	lsls	r3, r3, #20
 8002266:	d5cc      	bpl.n	8002202 <UART_WaitOnFlagUntilTimeout+0x10>
          __HAL_UART_CLEAR_FLAG(huart, UART_CLEAR_RTOF);
 8002268:	f44f 6300 	mov.w	r3, #2048	@ 0x800
          UART_EndRxTransfer(huart);
 800226c:	4620      	mov	r0, r4
          __HAL_UART_CLEAR_FLAG(huart, UART_CLEAR_RTOF);
 800226e:	620b      	str	r3, [r1, #32]
          UART_EndRxTransfer(huart);
 8002270:	f7ff fe43 	bl	8001efa <UART_EndRxTransfer>
          huart->ErrorCode = HAL_UART_ERROR_RTO;
 8002274:	2320      	movs	r3, #32
          __HAL_UNLOCK(huart);
 8002276:	f884 6078 	strb.w	r6, [r4, #120]	@ 0x78
          huart->ErrorCode = HAL_UART_ERROR_RTO;
 800227a:	f8c4 3084 	str.w	r3, [r4, #132]	@ 0x84
        return HAL_TIMEOUT;
 800227e:	2003      	movs	r0, #3
 8002280:	e7ed      	b.n	800225e <UART_WaitOnFlagUntilTimeout+0x6c>

08002282 <UART_CheckIdleState>:
{
 8002282:	b537      	push	{r0, r1, r2, r4, r5, lr}
  huart->ErrorCode = HAL_UART_ERROR_NONE;
 8002284:	2500      	movs	r5, #0
{
 8002286:	4604      	mov	r4, r0
  huart->ErrorCode = HAL_UART_ERROR_NONE;
 8002288:	f8c0 5084 	str.w	r5, [r0, #132]	@ 0x84
  tickstart = HAL_GetTick();
 800228c:	f7fe fd76 	bl	8000d7c <HAL_GetTick>
  if ((huart->Instance->CR1 & USART_CR1_TE) == USART_CR1_TE)
 8002290:	6822      	ldr	r2, [r4, #0]
  tickstart = HAL_GetTick();
 8002292:	4603      	mov	r3, r0
  if ((huart->Instance->CR1 & USART_CR1_TE) == USART_CR1_TE)
 8002294:	6812      	ldr	r2, [r2, #0]
 8002296:	0712      	lsls	r2, r2, #28
 8002298:	d51a      	bpl.n	80022d0 <UART_CheckIdleState+0x4e>
    if (UART_WaitOnFlagUntilTimeout(huart, USART_ISR_TEACK, RESET, tickstart, HAL_UART_TIMEOUT_VALUE) != HAL_OK)
 800229a:	f06f 427e 	mvn.w	r2, #4261412864	@ 0xfe000000
 800229e:	f44f 1100 	mov.w	r1, #2097152	@ 0x200000
 80022a2:	4620      	mov	r0, r4
 80022a4:	9200      	str	r2, [sp, #0]
 80022a6:	462a      	mov	r2, r5
 80022a8:	f7ff ffa3 	bl	80021f2 <UART_WaitOnFlagUntilTimeout>
 80022ac:	b180      	cbz	r0, 80022d0 <UART_CheckIdleState+0x4e>
      ATOMIC_CLEAR_BIT(huart->Instance->CR1, (USART_CR1_TXEIE));
 80022ae:	6822      	ldr	r2, [r4, #0]
   __ASM volatile ("ldrex %0, %1" : "=r" (result) : "Q" (*addr) );
 80022b0:	e852 3f00 	ldrex	r3, [r2]
 80022b4:	f023 0380 	bic.w	r3, r3, #128	@ 0x80
   __ASM volatile ("strex %0, %2, %1" : "=&r" (result), "=Q" (*addr) : "r" (value) );
 80022b8:	e842 3100 	strex	r1, r3, [r2]
 80022bc:	2900      	cmp	r1, #0
 80022be:	d1f6      	bne.n	80022ae <UART_CheckIdleState+0x2c>
      huart->gState = HAL_UART_STATE_READY;
 80022c0:	2320      	movs	r3, #32
      return HAL_TIMEOUT;
 80022c2:	2003      	movs	r0, #3
      huart->gState = HAL_UART_STATE_READY;
 80022c4:	67e3      	str	r3, [r4, #124]	@ 0x7c
      __HAL_UNLOCK(huart);
 80022c6:	2300      	movs	r3, #0
 80022c8:	f884 3078 	strb.w	r3, [r4, #120]	@ 0x78
}
 80022cc:	b003      	add	sp, #12
 80022ce:	bd30      	pop	{r4, r5, pc}
  huart->gState = HAL_UART_STATE_READY;
 80022d0:	2320      	movs	r3, #32
  huart->ReceptionType = HAL_UART_RECEPTION_STANDARD;
 80022d2:	2000      	movs	r0, #0
  huart->gState = HAL_UART_STATE_READY;
 80022d4:	67e3      	str	r3, [r4, #124]	@ 0x7c
  huart->RxState = HAL_UART_STATE_READY;
 80022d6:	f8c4 3080 	str.w	r3, [r4, #128]	@ 0x80
  huart->ReceptionType = HAL_UART_RECEPTION_STANDARD;
 80022da:	6620      	str	r0, [r4, #96]	@ 0x60
  huart->RxEventType = HAL_UART_RXEVENT_TC;
 80022dc:	6660      	str	r0, [r4, #100]	@ 0x64
  return HAL_OK;
 80022de:	e7f2      	b.n	80022c6 <UART_CheckIdleState+0x44>

080022e0 <HAL_UART_Init>:
{
 80022e0:	b510      	push	{r4, lr}
  if (huart == NULL)
 80022e2:	4604      	mov	r4, r0
 80022e4:	b340      	cbz	r0, 8002338 <HAL_UART_Init+0x58>
  if (huart->gState == HAL_UART_STATE_RESET)
 80022e6:	6fc3      	ldr	r3, [r0, #124]	@ 0x7c
 80022e8:	b91b      	cbnz	r3, 80022f2 <HAL_UART_Init+0x12>
    huart->Lock = HAL_UNLOCKED;
 80022ea:	f880 3078 	strb.w	r3, [r0, #120]	@ 0x78
    HAL_UART_MspInit(huart);
 80022ee:	f7fe fc35 	bl	8000b5c <HAL_UART_MspInit>
  huart->gState = HAL_UART_STATE_BUSY;
 80022f2:	2324      	movs	r3, #36	@ 0x24
  __HAL_UART_DISABLE(huart);
 80022f4:	6822      	ldr	r2, [r4, #0]
  huart->gState = HAL_UART_STATE_BUSY;
 80022f6:	67e3      	str	r3, [r4, #124]	@ 0x7c
  __HAL_UART_DISABLE(huart);
 80022f8:	6813      	ldr	r3, [r2, #0]
 80022fa:	f023 0301 	bic.w	r3, r3, #1
 80022fe:	6013      	str	r3, [r2, #0]
  if (huart->AdvancedInit.AdvFeatureInit != UART_ADVFEATURE_NO_INIT)
 8002300:	6a63      	ldr	r3, [r4, #36]	@ 0x24
 8002302:	b113      	cbz	r3, 800230a <HAL_UART_Init+0x2a>
    UART_AdvFeatureConfig(huart);
 8002304:	4620      	mov	r0, r4
 8002306:	f7ff ff1f 	bl	8002148 <UART_AdvFeatureConfig>
  if (UART_SetConfig(huart) == HAL_ERROR)
 800230a:	4620      	mov	r0, r4
 800230c:	f7ff fe1e 	bl	8001f4c <UART_SetConfig>
 8002310:	2801      	cmp	r0, #1
 8002312:	d011      	beq.n	8002338 <HAL_UART_Init+0x58>
  CLEAR_BIT(huart->Instance->CR2, (USART_CR2_LINEN | USART_CR2_CLKEN));
 8002314:	6823      	ldr	r3, [r4, #0]
  return (UART_CheckIdleState(huart));
 8002316:	4620      	mov	r0, r4
  CLEAR_BIT(huart->Instance->CR2, (USART_CR2_LINEN | USART_CR2_CLKEN));
 8002318:	685a      	ldr	r2, [r3, #4]
 800231a:	f422 4290 	bic.w	r2, r2, #18432	@ 0x4800
 800231e:	605a      	str	r2, [r3, #4]
  CLEAR_BIT(huart->Instance->CR3, (USART_CR3_SCEN | USART_CR3_HDSEL | USART_CR3_IREN));
 8002320:	689a      	ldr	r2, [r3, #8]
 8002322:	f022 022a 	bic.w	r2, r2, #42	@ 0x2a
 8002326:	609a      	str	r2, [r3, #8]
  __HAL_UART_ENABLE(huart);
 8002328:	681a      	ldr	r2, [r3, #0]
 800232a:	f042 0201 	orr.w	r2, r2, #1
}
 800232e:	e8bd 4010 	ldmia.w	sp!, {r4, lr}
  __HAL_UART_ENABLE(huart);
 8002332:	601a      	str	r2, [r3, #0]
  return (UART_CheckIdleState(huart));
 8002334:	f7ff bfa5 	b.w	8002282 <UART_CheckIdleState>
}
 8002338:	2001      	movs	r0, #1
 800233a:	bd10      	pop	{r4, pc}

0800233c <sbrk_aligned>:
 800233c:	b570      	push	{r4, r5, r6, lr}
 800233e:	4e0f      	ldr	r6, [pc, #60]	@ (800237c <sbrk_aligned+0x40>)
 8002340:	460c      	mov	r4, r1
 8002342:	6831      	ldr	r1, [r6, #0]
 8002344:	4605      	mov	r5, r0
 8002346:	b911      	cbnz	r1, 800234e <sbrk_aligned+0x12>
 8002348:	f000 faec 	bl	8002924 <_sbrk_r>
 800234c:	6030      	str	r0, [r6, #0]
 800234e:	4621      	mov	r1, r4
 8002350:	4628      	mov	r0, r5
 8002352:	f000 fae7 	bl	8002924 <_sbrk_r>
 8002356:	1c43      	adds	r3, r0, #1
 8002358:	d103      	bne.n	8002362 <sbrk_aligned+0x26>
 800235a:	f04f 34ff 	mov.w	r4, #4294967295
 800235e:	4620      	mov	r0, r4
 8002360:	bd70      	pop	{r4, r5, r6, pc}
 8002362:	1cc4      	adds	r4, r0, #3
 8002364:	f024 0403 	bic.w	r4, r4, #3
 8002368:	42a0      	cmp	r0, r4
 800236a:	d0f8      	beq.n	800235e <sbrk_aligned+0x22>
 800236c:	1a21      	subs	r1, r4, r0
 800236e:	4628      	mov	r0, r5
 8002370:	f000 fad8 	bl	8002924 <_sbrk_r>
 8002374:	3001      	adds	r0, #1
 8002376:	d1f2      	bne.n	800235e <sbrk_aligned+0x22>
 8002378:	e7ef      	b.n	800235a <sbrk_aligned+0x1e>
 800237a:	bf00      	nop
 800237c:	20000158 	.word	0x20000158

08002380 <_malloc_r>:
 8002380:	e92d 43f8 	stmdb	sp!, {r3, r4, r5, r6, r7, r8, r9, lr}
 8002384:	1ccd      	adds	r5, r1, #3
 8002386:	f025 0503 	bic.w	r5, r5, #3
 800238a:	3508      	adds	r5, #8
 800238c:	2d0c      	cmp	r5, #12
 800238e:	bf38      	it	cc
 8002390:	250c      	movcc	r5, #12
 8002392:	2d00      	cmp	r5, #0
 8002394:	4606      	mov	r6, r0
 8002396:	db01      	blt.n	800239c <_malloc_r+0x1c>
 8002398:	42a9      	cmp	r1, r5
 800239a:	d904      	bls.n	80023a6 <_malloc_r+0x26>
 800239c:	230c      	movs	r3, #12
 800239e:	6033      	str	r3, [r6, #0]
 80023a0:	2000      	movs	r0, #0
 80023a2:	e8bd 83f8 	ldmia.w	sp!, {r3, r4, r5, r6, r7, r8, r9, pc}
 80023a6:	f8df 80d4 	ldr.w	r8, [pc, #212]	@ 800247c <_malloc_r+0xfc>
 80023aa:	f000 f869 	bl	8002480 <__malloc_lock>
 80023ae:	f8d8 3000 	ldr.w	r3, [r8]
 80023b2:	461c      	mov	r4, r3
 80023b4:	bb44      	cbnz	r4, 8002408 <_malloc_r+0x88>
 80023b6:	4629      	mov	r1, r5
 80023b8:	4630      	mov	r0, r6
 80023ba:	f7ff ffbf 	bl	800233c <sbrk_aligned>
 80023be:	1c43      	adds	r3, r0, #1
 80023c0:	4604      	mov	r4, r0
 80023c2:	d158      	bne.n	8002476 <_malloc_r+0xf6>
 80023c4:	f8d8 4000 	ldr.w	r4, [r8]
 80023c8:	4627      	mov	r7, r4
 80023ca:	2f00      	cmp	r7, #0
 80023cc:	d143      	bne.n	8002456 <_malloc_r+0xd6>
 80023ce:	2c00      	cmp	r4, #0
 80023d0:	d04b      	beq.n	800246a <_malloc_r+0xea>
 80023d2:	6823      	ldr	r3, [r4, #0]
 80023d4:	4639      	mov	r1, r7
 80023d6:	4630      	mov	r0, r6
 80023d8:	eb04 0903 	add.w	r9, r4, r3
 80023dc:	f000 faa2 	bl	8002924 <_sbrk_r>
 80023e0:	4581      	cmp	r9, r0
 80023e2:	d142      	bne.n	800246a <_malloc_r+0xea>
 80023e4:	6821      	ldr	r1, [r4, #0]
 80023e6:	1a6d      	subs	r5, r5, r1
 80023e8:	4629      	mov	r1, r5
 80023ea:	4630      	mov	r0, r6
 80023ec:	f7ff ffa6 	bl	800233c <sbrk_aligned>
 80023f0:	3001      	adds	r0, #1
 80023f2:	d03a      	beq.n	800246a <_malloc_r+0xea>
 80023f4:	6823      	ldr	r3, [r4, #0]
 80023f6:	442b      	add	r3, r5
 80023f8:	6023      	str	r3, [r4, #0]
 80023fa:	f8d8 3000 	ldr.w	r3, [r8]
 80023fe:	685a      	ldr	r2, [r3, #4]
 8002400:	bb62      	cbnz	r2, 800245c <_malloc_r+0xdc>
 8002402:	f8c8 7000 	str.w	r7, [r8]
 8002406:	e00f      	b.n	8002428 <_malloc_r+0xa8>
 8002408:	6822      	ldr	r2, [r4, #0]
 800240a:	1b52      	subs	r2, r2, r5
 800240c:	d420      	bmi.n	8002450 <_malloc_r+0xd0>
 800240e:	2a0b      	cmp	r2, #11
 8002410:	d917      	bls.n	8002442 <_malloc_r+0xc2>
 8002412:	1961      	adds	r1, r4, r5
 8002414:	42a3      	cmp	r3, r4
 8002416:	6025      	str	r5, [r4, #0]
 8002418:	bf18      	it	ne
 800241a:	6059      	strne	r1, [r3, #4]
 800241c:	6863      	ldr	r3, [r4, #4]
 800241e:	bf08      	it	eq
 8002420:	f8c8 1000 	streq.w	r1, [r8]
 8002424:	5162      	str	r2, [r4, r5]
 8002426:	604b      	str	r3, [r1, #4]
 8002428:	4630      	mov	r0, r6
 800242a:	f000 f82f 	bl	800248c <__malloc_unlock>
 800242e:	f104 000b 	add.w	r0, r4, #11
 8002432:	1d23      	adds	r3, r4, #4
 8002434:	f020 0007 	bic.w	r0, r0, #7
 8002438:	1ac2      	subs	r2, r0, r3
 800243a:	bf1c      	itt	ne
 800243c:	1a1b      	subne	r3, r3, r0
 800243e:	50a3      	strne	r3, [r4, r2]
 8002440:	e7af      	b.n	80023a2 <_malloc_r+0x22>
 8002442:	6862      	ldr	r2, [r4, #4]
 8002444:	42a3      	cmp	r3, r4
 8002446:	bf0c      	ite	eq
 8002448:	f8c8 2000 	streq.w	r2, [r8]
 800244c:	605a      	strne	r2, [r3, #4]
 800244e:	e7eb      	b.n	8002428 <_malloc_r+0xa8>
 8002450:	4623      	mov	r3, r4
 8002452:	6864      	ldr	r4, [r4, #4]
 8002454:	e7ae      	b.n	80023b4 <_malloc_r+0x34>
 8002456:	463c      	mov	r4, r7
 8002458:	687f      	ldr	r7, [r7, #4]
 800245a:	e7b6      	b.n	80023ca <_malloc_r+0x4a>
 800245c:	461a      	mov	r2, r3
 800245e:	685b      	ldr	r3, [r3, #4]
 8002460:	42a3      	cmp	r3, r4
 8002462:	d1fb      	bne.n	800245c <_malloc_r+0xdc>
 8002464:	2300      	movs	r3, #0
 8002466:	6053      	str	r3, [r2, #4]
 8002468:	e7de      	b.n	8002428 <_malloc_r+0xa8>
 800246a:	230c      	movs	r3, #12
 800246c:	6033      	str	r3, [r6, #0]
 800246e:	4630      	mov	r0, r6
 8002470:	f000 f80c 	bl	800248c <__malloc_unlock>
 8002474:	e794      	b.n	80023a0 <_malloc_r+0x20>
 8002476:	6005      	str	r5, [r0, #0]
 8002478:	e7d6      	b.n	8002428 <_malloc_r+0xa8>
 800247a:	bf00      	nop
 800247c:	2000015c 	.word	0x2000015c

08002480 <__malloc_lock>:
 8002480:	4801      	ldr	r0, [pc, #4]	@ (8002488 <__malloc_lock+0x8>)
 8002482:	f000 ba9c 	b.w	80029be <__retarget_lock_acquire_recursive>
 8002486:	bf00      	nop
 8002488:	200002a0 	.word	0x200002a0

0800248c <__malloc_unlock>:
 800248c:	4801      	ldr	r0, [pc, #4]	@ (8002494 <__malloc_unlock+0x8>)
 800248e:	f000 ba97 	b.w	80029c0 <__retarget_lock_release_recursive>
 8002492:	bf00      	nop
 8002494:	200002a0 	.word	0x200002a0

08002498 <std>:
 8002498:	2300      	movs	r3, #0
 800249a:	b510      	push	{r4, lr}
 800249c:	4604      	mov	r4, r0
 800249e:	e9c0 3300 	strd	r3, r3, [r0]
 80024a2:	e9c0 3304 	strd	r3, r3, [r0, #16]
 80024a6:	6083      	str	r3, [r0, #8]
 80024a8:	8181      	strh	r1, [r0, #12]
 80024aa:	6643      	str	r3, [r0, #100]	@ 0x64
 80024ac:	81c2      	strh	r2, [r0, #14]
 80024ae:	6183      	str	r3, [r0, #24]
 80024b0:	4619      	mov	r1, r3
 80024b2:	2208      	movs	r2, #8
 80024b4:	305c      	adds	r0, #92	@ 0x5c
 80024b6:	f000 f9f9 	bl	80028ac <memset>
 80024ba:	4b0d      	ldr	r3, [pc, #52]	@ (80024f0 <std+0x58>)
 80024bc:	6263      	str	r3, [r4, #36]	@ 0x24
 80024be:	4b0d      	ldr	r3, [pc, #52]	@ (80024f4 <std+0x5c>)
 80024c0:	62a3      	str	r3, [r4, #40]	@ 0x28
 80024c2:	4b0d      	ldr	r3, [pc, #52]	@ (80024f8 <std+0x60>)
 80024c4:	62e3      	str	r3, [r4, #44]	@ 0x2c
 80024c6:	4b0d      	ldr	r3, [pc, #52]	@ (80024fc <std+0x64>)
 80024c8:	6323      	str	r3, [r4, #48]	@ 0x30
 80024ca:	4b0d      	ldr	r3, [pc, #52]	@ (8002500 <std+0x68>)
 80024cc:	6224      	str	r4, [r4, #32]
 80024ce:	429c      	cmp	r4, r3
 80024d0:	d006      	beq.n	80024e0 <std+0x48>
 80024d2:	f103 0268 	add.w	r2, r3, #104	@ 0x68
 80024d6:	4294      	cmp	r4, r2
 80024d8:	d002      	beq.n	80024e0 <std+0x48>
 80024da:	33d0      	adds	r3, #208	@ 0xd0
 80024dc:	429c      	cmp	r4, r3
 80024de:	d105      	bne.n	80024ec <std+0x54>
 80024e0:	f104 0058 	add.w	r0, r4, #88	@ 0x58
 80024e4:	e8bd 4010 	ldmia.w	sp!, {r4, lr}
 80024e8:	f000 ba68 	b.w	80029bc <__retarget_lock_init_recursive>
 80024ec:	bd10      	pop	{r4, pc}
 80024ee:	bf00      	nop
 80024f0:	080026fd 	.word	0x080026fd
 80024f4:	0800271f 	.word	0x0800271f
 80024f8:	08002757 	.word	0x08002757
 80024fc:	0800277b 	.word	0x0800277b
 8002500:	20000160 	.word	0x20000160

08002504 <stdio_exit_handler>:
 8002504:	4a02      	ldr	r2, [pc, #8]	@ (8002510 <stdio_exit_handler+0xc>)
 8002506:	4903      	ldr	r1, [pc, #12]	@ (8002514 <stdio_exit_handler+0x10>)
 8002508:	4803      	ldr	r0, [pc, #12]	@ (8002518 <stdio_exit_handler+0x14>)
 800250a:	f000 b869 	b.w	80025e0 <_fwalk_sglue>
 800250e:	bf00      	nop
 8002510:	2000000c 	.word	0x2000000c
 8002514:	080030fd 	.word	0x080030fd
 8002518:	2000001c 	.word	0x2000001c

0800251c <cleanup_stdio>:
 800251c:	6841      	ldr	r1, [r0, #4]
 800251e:	4b0c      	ldr	r3, [pc, #48]	@ (8002550 <cleanup_stdio+0x34>)
 8002520:	4299      	cmp	r1, r3
 8002522:	b510      	push	{r4, lr}
 8002524:	4604      	mov	r4, r0
 8002526:	d001      	beq.n	800252c <cleanup_stdio+0x10>
 8002528:	f000 fde8 	bl	80030fc <_fflush_r>
 800252c:	68a1      	ldr	r1, [r4, #8]
 800252e:	4b09      	ldr	r3, [pc, #36]	@ (8002554 <cleanup_stdio+0x38>)
 8002530:	4299      	cmp	r1, r3
 8002532:	d002      	beq.n	800253a <cleanup_stdio+0x1e>
 8002534:	4620      	mov	r0, r4
 8002536:	f000 fde1 	bl	80030fc <_fflush_r>
 800253a:	68e1      	ldr	r1, [r4, #12]
 800253c:	4b06      	ldr	r3, [pc, #24]	@ (8002558 <cleanup_stdio+0x3c>)
 800253e:	4299      	cmp	r1, r3
 8002540:	d004      	beq.n	800254c <cleanup_stdio+0x30>
 8002542:	4620      	mov	r0, r4
 8002544:	e8bd 4010 	ldmia.w	sp!, {r4, lr}
 8002548:	f000 bdd8 	b.w	80030fc <_fflush_r>
 800254c:	bd10      	pop	{r4, pc}
 800254e:	bf00      	nop
 8002550:	20000160 	.word	0x20000160
 8002554:	200001c8 	.word	0x200001c8
 8002558:	20000230 	.word	0x20000230

0800255c <global_stdio_init.part.0>:
 800255c:	b510      	push	{r4, lr}
 800255e:	4b0b      	ldr	r3, [pc, #44]	@ (800258c <global_stdio_init.part.0+0x30>)
 8002560:	4c0b      	ldr	r4, [pc, #44]	@ (8002590 <global_stdio_init.part.0+0x34>)
 8002562:	4a0c      	ldr	r2, [pc, #48]	@ (8002594 <global_stdio_init.part.0+0x38>)
 8002564:	601a      	str	r2, [r3, #0]
 8002566:	4620      	mov	r0, r4
 8002568:	2200      	movs	r2, #0
 800256a:	2104      	movs	r1, #4
 800256c:	f7ff ff94 	bl	8002498 <std>
 8002570:	f104 0068 	add.w	r0, r4, #104	@ 0x68
 8002574:	2201      	movs	r2, #1
 8002576:	2109      	movs	r1, #9
 8002578:	f7ff ff8e 	bl	8002498 <std>
 800257c:	f104 00d0 	add.w	r0, r4, #208	@ 0xd0
 8002580:	2202      	movs	r2, #2
 8002582:	e8bd 4010 	ldmia.w	sp!, {r4, lr}
 8002586:	2112      	movs	r1, #18
 8002588:	f7ff bf86 	b.w	8002498 <std>
 800258c:	20000298 	.word	0x20000298
 8002590:	20000160 	.word	0x20000160
 8002594:	08002505 	.word	0x08002505

08002598 <__sfp_lock_acquire>:
 8002598:	4801      	ldr	r0, [pc, #4]	@ (80025a0 <__sfp_lock_acquire+0x8>)
 800259a:	f000 ba10 	b.w	80029be <__retarget_lock_acquire_recursive>
 800259e:	bf00      	nop
 80025a0:	200002a1 	.word	0x200002a1

080025a4 <__sfp_lock_release>:
 80025a4:	4801      	ldr	r0, [pc, #4]	@ (80025ac <__sfp_lock_release+0x8>)
 80025a6:	f000 ba0b 	b.w	80029c0 <__retarget_lock_release_recursive>
 80025aa:	bf00      	nop
 80025ac:	200002a1 	.word	0x200002a1

080025b0 <__sinit>:
 80025b0:	b510      	push	{r4, lr}
 80025b2:	4604      	mov	r4, r0
 80025b4:	f7ff fff0 	bl	8002598 <__sfp_lock_acquire>
 80025b8:	6a23      	ldr	r3, [r4, #32]
 80025ba:	b11b      	cbz	r3, 80025c4 <__sinit+0x14>
 80025bc:	e8bd 4010 	ldmia.w	sp!, {r4, lr}
 80025c0:	f7ff bff0 	b.w	80025a4 <__sfp_lock_release>
 80025c4:	4b04      	ldr	r3, [pc, #16]	@ (80025d8 <__sinit+0x28>)
 80025c6:	6223      	str	r3, [r4, #32]
 80025c8:	4b04      	ldr	r3, [pc, #16]	@ (80025dc <__sinit+0x2c>)
 80025ca:	681b      	ldr	r3, [r3, #0]
 80025cc:	2b00      	cmp	r3, #0
 80025ce:	d1f5      	bne.n	80025bc <__sinit+0xc>
 80025d0:	f7ff ffc4 	bl	800255c <global_stdio_init.part.0>
 80025d4:	e7f2      	b.n	80025bc <__sinit+0xc>
 80025d6:	bf00      	nop
 80025d8:	0800251d 	.word	0x0800251d
 80025dc:	20000298 	.word	0x20000298

080025e0 <_fwalk_sglue>:
 80025e0:	e92d 43f8 	stmdb	sp!, {r3, r4, r5, r6, r7, r8, r9, lr}
 80025e4:	4607      	mov	r7, r0
 80025e6:	4688      	mov	r8, r1
 80025e8:	4614      	mov	r4, r2
 80025ea:	2600      	movs	r6, #0
 80025ec:	e9d4 9501 	ldrd	r9, r5, [r4, #4]
 80025f0:	f1b9 0901 	subs.w	r9, r9, #1
 80025f4:	d505      	bpl.n	8002602 <_fwalk_sglue+0x22>
 80025f6:	6824      	ldr	r4, [r4, #0]
 80025f8:	2c00      	cmp	r4, #0
 80025fa:	d1f7      	bne.n	80025ec <_fwalk_sglue+0xc>
 80025fc:	4630      	mov	r0, r6
 80025fe:	e8bd 83f8 	ldmia.w	sp!, {r3, r4, r5, r6, r7, r8, r9, pc}
 8002602:	89ab      	ldrh	r3, [r5, #12]
 8002604:	2b01      	cmp	r3, #1
 8002606:	d907      	bls.n	8002618 <_fwalk_sglue+0x38>
 8002608:	f9b5 300e 	ldrsh.w	r3, [r5, #14]
 800260c:	3301      	adds	r3, #1
 800260e:	d003      	beq.n	8002618 <_fwalk_sglue+0x38>
 8002610:	4629      	mov	r1, r5
 8002612:	4638      	mov	r0, r7
 8002614:	47c0      	blx	r8
 8002616:	4306      	orrs	r6, r0
 8002618:	3568      	adds	r5, #104	@ 0x68
 800261a:	e7e9      	b.n	80025f0 <_fwalk_sglue+0x10>

0800261c <iprintf>:
 800261c:	b40f      	push	{r0, r1, r2, r3}
 800261e:	b507      	push	{r0, r1, r2, lr}
 8002620:	4906      	ldr	r1, [pc, #24]	@ (800263c <iprintf+0x20>)
 8002622:	ab04      	add	r3, sp, #16
 8002624:	6808      	ldr	r0, [r1, #0]
 8002626:	f853 2b04 	ldr.w	r2, [r3], #4
 800262a:	6881      	ldr	r1, [r0, #8]
 800262c:	9301      	str	r3, [sp, #4]
 800262e:	f000 fa3d 	bl	8002aac <_vfiprintf_r>
 8002632:	b003      	add	sp, #12
 8002634:	f85d eb04 	ldr.w	lr, [sp], #4
 8002638:	b004      	add	sp, #16
 800263a:	4770      	bx	lr
 800263c:	20000018 	.word	0x20000018

08002640 <_puts_r>:
 8002640:	6a03      	ldr	r3, [r0, #32]
 8002642:	b570      	push	{r4, r5, r6, lr}
 8002644:	6884      	ldr	r4, [r0, #8]
 8002646:	4605      	mov	r5, r0
 8002648:	460e      	mov	r6, r1
 800264a:	b90b      	cbnz	r3, 8002650 <_puts_r+0x10>
 800264c:	f7ff ffb0 	bl	80025b0 <__sinit>
 8002650:	6e63      	ldr	r3, [r4, #100]	@ 0x64
 8002652:	07db      	lsls	r3, r3, #31
 8002654:	d405      	bmi.n	8002662 <_puts_r+0x22>
 8002656:	89a3      	ldrh	r3, [r4, #12]
 8002658:	0598      	lsls	r0, r3, #22
 800265a:	d402      	bmi.n	8002662 <_puts_r+0x22>
 800265c:	6da0      	ldr	r0, [r4, #88]	@ 0x58
 800265e:	f000 f9ae 	bl	80029be <__retarget_lock_acquire_recursive>
 8002662:	89a3      	ldrh	r3, [r4, #12]
 8002664:	0719      	lsls	r1, r3, #28
 8002666:	d502      	bpl.n	800266e <_puts_r+0x2e>
 8002668:	6923      	ldr	r3, [r4, #16]
 800266a:	2b00      	cmp	r3, #0
 800266c:	d135      	bne.n	80026da <_puts_r+0x9a>
 800266e:	4621      	mov	r1, r4
 8002670:	4628      	mov	r0, r5
 8002672:	f000 f8c5 	bl	8002800 <__swsetup_r>
 8002676:	b380      	cbz	r0, 80026da <_puts_r+0x9a>
 8002678:	f04f 35ff 	mov.w	r5, #4294967295
 800267c:	6e63      	ldr	r3, [r4, #100]	@ 0x64
 800267e:	07da      	lsls	r2, r3, #31
 8002680:	d405      	bmi.n	800268e <_puts_r+0x4e>
 8002682:	89a3      	ldrh	r3, [r4, #12]
 8002684:	059b      	lsls	r3, r3, #22
 8002686:	d402      	bmi.n	800268e <_puts_r+0x4e>
 8002688:	6da0      	ldr	r0, [r4, #88]	@ 0x58
 800268a:	f000 f999 	bl	80029c0 <__retarget_lock_release_recursive>
 800268e:	4628      	mov	r0, r5
 8002690:	bd70      	pop	{r4, r5, r6, pc}
 8002692:	2b00      	cmp	r3, #0
 8002694:	da04      	bge.n	80026a0 <_puts_r+0x60>
 8002696:	69a2      	ldr	r2, [r4, #24]
 8002698:	429a      	cmp	r2, r3
 800269a:	dc17      	bgt.n	80026cc <_puts_r+0x8c>
 800269c:	290a      	cmp	r1, #10
 800269e:	d015      	beq.n	80026cc <_puts_r+0x8c>
 80026a0:	6823      	ldr	r3, [r4, #0]
 80026a2:	1c5a      	adds	r2, r3, #1
 80026a4:	6022      	str	r2, [r4, #0]
 80026a6:	7019      	strb	r1, [r3, #0]
 80026a8:	68a3      	ldr	r3, [r4, #8]
 80026aa:	f816 1f01 	ldrb.w	r1, [r6, #1]!
 80026ae:	3b01      	subs	r3, #1
 80026b0:	60a3      	str	r3, [r4, #8]
 80026b2:	2900      	cmp	r1, #0
 80026b4:	d1ed      	bne.n	8002692 <_puts_r+0x52>
 80026b6:	2b00      	cmp	r3, #0
 80026b8:	da11      	bge.n	80026de <_puts_r+0x9e>
 80026ba:	4622      	mov	r2, r4
 80026bc:	210a      	movs	r1, #10
 80026be:	4628      	mov	r0, r5
 80026c0:	f000 f85f 	bl	8002782 <__swbuf_r>
 80026c4:	3001      	adds	r0, #1
 80026c6:	d0d7      	beq.n	8002678 <_puts_r+0x38>
 80026c8:	250a      	movs	r5, #10
 80026ca:	e7d7      	b.n	800267c <_puts_r+0x3c>
 80026cc:	4622      	mov	r2, r4
 80026ce:	4628      	mov	r0, r5
 80026d0:	f000 f857 	bl	8002782 <__swbuf_r>
 80026d4:	3001      	adds	r0, #1
 80026d6:	d1e7      	bne.n	80026a8 <_puts_r+0x68>
 80026d8:	e7ce      	b.n	8002678 <_puts_r+0x38>
 80026da:	3e01      	subs	r6, #1
 80026dc:	e7e4      	b.n	80026a8 <_puts_r+0x68>
 80026de:	6823      	ldr	r3, [r4, #0]
 80026e0:	1c5a      	adds	r2, r3, #1
 80026e2:	6022      	str	r2, [r4, #0]
 80026e4:	220a      	movs	r2, #10
 80026e6:	701a      	strb	r2, [r3, #0]
 80026e8:	e7ee      	b.n	80026c8 <_puts_r+0x88>
	...

080026ec <puts>:
 80026ec:	4b02      	ldr	r3, [pc, #8]	@ (80026f8 <puts+0xc>)
 80026ee:	4601      	mov	r1, r0
 80026f0:	6818      	ldr	r0, [r3, #0]
 80026f2:	f7ff bfa5 	b.w	8002640 <_puts_r>
 80026f6:	bf00      	nop
 80026f8:	20000018 	.word	0x20000018

080026fc <__sread>:
 80026fc:	b510      	push	{r4, lr}
 80026fe:	460c      	mov	r4, r1
 8002700:	f9b1 100e 	ldrsh.w	r1, [r1, #14]
 8002704:	f000 f8fc 	bl	8002900 <_read_r>
 8002708:	2800      	cmp	r0, #0
 800270a:	bfab      	itete	ge
 800270c:	6d63      	ldrge	r3, [r4, #84]	@ 0x54
 800270e:	89a3      	ldrhlt	r3, [r4, #12]
 8002710:	181b      	addge	r3, r3, r0
 8002712:	f423 5380 	biclt.w	r3, r3, #4096	@ 0x1000
 8002716:	bfac      	ite	ge
 8002718:	6563      	strge	r3, [r4, #84]	@ 0x54
 800271a:	81a3      	strhlt	r3, [r4, #12]
 800271c:	bd10      	pop	{r4, pc}

0800271e <__swrite>:
 800271e:	e92d 41f0 	stmdb	sp!, {r4, r5, r6, r7, r8, lr}
 8002722:	461f      	mov	r7, r3
 8002724:	898b      	ldrh	r3, [r1, #12]
 8002726:	05db      	lsls	r3, r3, #23
 8002728:	4605      	mov	r5, r0
 800272a:	460c      	mov	r4, r1
 800272c:	4616      	mov	r6, r2
 800272e:	d505      	bpl.n	800273c <__swrite+0x1e>
 8002730:	f9b1 100e 	ldrsh.w	r1, [r1, #14]
 8002734:	2302      	movs	r3, #2
 8002736:	2200      	movs	r2, #0
 8002738:	f000 f8d0 	bl	80028dc <_lseek_r>
 800273c:	89a3      	ldrh	r3, [r4, #12]
 800273e:	f9b4 100e 	ldrsh.w	r1, [r4, #14]
 8002742:	f423 5380 	bic.w	r3, r3, #4096	@ 0x1000
 8002746:	81a3      	strh	r3, [r4, #12]
 8002748:	4632      	mov	r2, r6
 800274a:	463b      	mov	r3, r7
 800274c:	4628      	mov	r0, r5
 800274e:	e8bd 41f0 	ldmia.w	sp!, {r4, r5, r6, r7, r8, lr}
 8002752:	f000 b8f7 	b.w	8002944 <_write_r>

08002756 <__sseek>:
 8002756:	b510      	push	{r4, lr}
 8002758:	460c      	mov	r4, r1
 800275a:	f9b1 100e 	ldrsh.w	r1, [r1, #14]
 800275e:	f000 f8bd 	bl	80028dc <_lseek_r>
 8002762:	1c43      	adds	r3, r0, #1
 8002764:	89a3      	ldrh	r3, [r4, #12]
 8002766:	bf15      	itete	ne
 8002768:	6560      	strne	r0, [r4, #84]	@ 0x54
 800276a:	f423 5380 	biceq.w	r3, r3, #4096	@ 0x1000
 800276e:	f443 5380 	orrne.w	r3, r3, #4096	@ 0x1000
 8002772:	81a3      	strheq	r3, [r4, #12]
 8002774:	bf18      	it	ne
 8002776:	81a3      	strhne	r3, [r4, #12]
 8002778:	bd10      	pop	{r4, pc}

0800277a <__sclose>:
 800277a:	f9b1 100e 	ldrsh.w	r1, [r1, #14]
 800277e:	f000 b89d 	b.w	80028bc <_close_r>

08002782 <__swbuf_r>:
 8002782:	b5f8      	push	{r3, r4, r5, r6, r7, lr}
 8002784:	460e      	mov	r6, r1
 8002786:	4614      	mov	r4, r2
 8002788:	4605      	mov	r5, r0
 800278a:	b118      	cbz	r0, 8002794 <__swbuf_r+0x12>
 800278c:	6a03      	ldr	r3, [r0, #32]
 800278e:	b90b      	cbnz	r3, 8002794 <__swbuf_r+0x12>
 8002790:	f7ff ff0e 	bl	80025b0 <__sinit>
 8002794:	69a3      	ldr	r3, [r4, #24]
 8002796:	60a3      	str	r3, [r4, #8]
 8002798:	89a3      	ldrh	r3, [r4, #12]
 800279a:	071a      	lsls	r2, r3, #28
 800279c:	d501      	bpl.n	80027a2 <__swbuf_r+0x20>
 800279e:	6923      	ldr	r3, [r4, #16]
 80027a0:	b943      	cbnz	r3, 80027b4 <__swbuf_r+0x32>
 80027a2:	4621      	mov	r1, r4
 80027a4:	4628      	mov	r0, r5
 80027a6:	f000 f82b 	bl	8002800 <__swsetup_r>
 80027aa:	b118      	cbz	r0, 80027b4 <__swbuf_r+0x32>
 80027ac:	f04f 37ff 	mov.w	r7, #4294967295
 80027b0:	4638      	mov	r0, r7
 80027b2:	bdf8      	pop	{r3, r4, r5, r6, r7, pc}
 80027b4:	6823      	ldr	r3, [r4, #0]
 80027b6:	6922      	ldr	r2, [r4, #16]
 80027b8:	1a98      	subs	r0, r3, r2
 80027ba:	6963      	ldr	r3, [r4, #20]
 80027bc:	b2f6      	uxtb	r6, r6
 80027be:	4283      	cmp	r3, r0
 80027c0:	4637      	mov	r7, r6
 80027c2:	dc05      	bgt.n	80027d0 <__swbuf_r+0x4e>
 80027c4:	4621      	mov	r1, r4
 80027c6:	4628      	mov	r0, r5
 80027c8:	f000 fc98 	bl	80030fc <_fflush_r>
 80027cc:	2800      	cmp	r0, #0
 80027ce:	d1ed      	bne.n	80027ac <__swbuf_r+0x2a>
 80027d0:	68a3      	ldr	r3, [r4, #8]
 80027d2:	3b01      	subs	r3, #1
 80027d4:	60a3      	str	r3, [r4, #8]
 80027d6:	6823      	ldr	r3, [r4, #0]
 80027d8:	1c5a      	adds	r2, r3, #1
 80027da:	6022      	str	r2, [r4, #0]
 80027dc:	701e      	strb	r6, [r3, #0]
 80027de:	6962      	ldr	r2, [r4, #20]
 80027e0:	1c43      	adds	r3, r0, #1
 80027e2:	429a      	cmp	r2, r3
 80027e4:	d004      	beq.n	80027f0 <__swbuf_r+0x6e>
 80027e6:	89a3      	ldrh	r3, [r4, #12]
 80027e8:	07db      	lsls	r3, r3, #31
 80027ea:	d5e1      	bpl.n	80027b0 <__swbuf_r+0x2e>
 80027ec:	2e0a      	cmp	r6, #10
 80027ee:	d1df      	bne.n	80027b0 <__swbuf_r+0x2e>
 80027f0:	4621      	mov	r1, r4
 80027f2:	4628      	mov	r0, r5
 80027f4:	f000 fc82 	bl	80030fc <_fflush_r>
 80027f8:	2800      	cmp	r0, #0
 80027fa:	d0d9      	beq.n	80027b0 <__swbuf_r+0x2e>
 80027fc:	e7d6      	b.n	80027ac <__swbuf_r+0x2a>
	...

08002800 <__swsetup_r>:
 8002800:	b538      	push	{r3, r4, r5, lr}
 8002802:	4b29      	ldr	r3, [pc, #164]	@ (80028a8 <__swsetup_r+0xa8>)
 8002804:	4605      	mov	r5, r0
 8002806:	6818      	ldr	r0, [r3, #0]
 8002808:	460c      	mov	r4, r1
 800280a:	b118      	cbz	r0, 8002814 <__swsetup_r+0x14>
 800280c:	6a03      	ldr	r3, [r0, #32]
 800280e:	b90b      	cbnz	r3, 8002814 <__swsetup_r+0x14>
 8002810:	f7ff fece 	bl	80025b0 <__sinit>
 8002814:	f9b4 300c 	ldrsh.w	r3, [r4, #12]
 8002818:	0719      	lsls	r1, r3, #28
 800281a:	d422      	bmi.n	8002862 <__swsetup_r+0x62>
 800281c:	06da      	lsls	r2, r3, #27
 800281e:	d407      	bmi.n	8002830 <__swsetup_r+0x30>
 8002820:	2209      	movs	r2, #9
 8002822:	602a      	str	r2, [r5, #0]
 8002824:	f043 0340 	orr.w	r3, r3, #64	@ 0x40
 8002828:	81a3      	strh	r3, [r4, #12]
 800282a:	f04f 30ff 	mov.w	r0, #4294967295
 800282e:	e033      	b.n	8002898 <__swsetup_r+0x98>
 8002830:	0758      	lsls	r0, r3, #29
 8002832:	d512      	bpl.n	800285a <__swsetup_r+0x5a>
 8002834:	6b61      	ldr	r1, [r4, #52]	@ 0x34
 8002836:	b141      	cbz	r1, 800284a <__swsetup_r+0x4a>
 8002838:	f104 0344 	add.w	r3, r4, #68	@ 0x44
 800283c:	4299      	cmp	r1, r3
 800283e:	d002      	beq.n	8002846 <__swsetup_r+0x46>
 8002840:	4628      	mov	r0, r5
 8002842:	f000 f8bf 	bl	80029c4 <_free_r>
 8002846:	2300      	movs	r3, #0
 8002848:	6363      	str	r3, [r4, #52]	@ 0x34
 800284a:	89a3      	ldrh	r3, [r4, #12]
 800284c:	f023 0324 	bic.w	r3, r3, #36	@ 0x24
 8002850:	81a3      	strh	r3, [r4, #12]
 8002852:	2300      	movs	r3, #0
 8002854:	6063      	str	r3, [r4, #4]
 8002856:	6923      	ldr	r3, [r4, #16]
 8002858:	6023      	str	r3, [r4, #0]
 800285a:	89a3      	ldrh	r3, [r4, #12]
 800285c:	f043 0308 	orr.w	r3, r3, #8
 8002860:	81a3      	strh	r3, [r4, #12]
 8002862:	6923      	ldr	r3, [r4, #16]
 8002864:	b94b      	cbnz	r3, 800287a <__swsetup_r+0x7a>
 8002866:	89a3      	ldrh	r3, [r4, #12]
 8002868:	f403 7320 	and.w	r3, r3, #640	@ 0x280
 800286c:	f5b3 7f00 	cmp.w	r3, #512	@ 0x200
 8002870:	d003      	beq.n	800287a <__swsetup_r+0x7a>
 8002872:	4621      	mov	r1, r4
 8002874:	4628      	mov	r0, r5
 8002876:	f000 fc8f 	bl	8003198 <__smakebuf_r>
 800287a:	f9b4 300c 	ldrsh.w	r3, [r4, #12]
 800287e:	f013 0201 	ands.w	r2, r3, #1
 8002882:	d00a      	beq.n	800289a <__swsetup_r+0x9a>
 8002884:	2200      	movs	r2, #0
 8002886:	60a2      	str	r2, [r4, #8]
 8002888:	6962      	ldr	r2, [r4, #20]
 800288a:	4252      	negs	r2, r2
 800288c:	61a2      	str	r2, [r4, #24]
 800288e:	6922      	ldr	r2, [r4, #16]
 8002890:	b942      	cbnz	r2, 80028a4 <__swsetup_r+0xa4>
 8002892:	f013 0080 	ands.w	r0, r3, #128	@ 0x80
 8002896:	d1c5      	bne.n	8002824 <__swsetup_r+0x24>
 8002898:	bd38      	pop	{r3, r4, r5, pc}
 800289a:	0799      	lsls	r1, r3, #30
 800289c:	bf58      	it	pl
 800289e:	6962      	ldrpl	r2, [r4, #20]
 80028a0:	60a2      	str	r2, [r4, #8]
 80028a2:	e7f4      	b.n	800288e <__swsetup_r+0x8e>
 80028a4:	2000      	movs	r0, #0
 80028a6:	e7f7      	b.n	8002898 <__swsetup_r+0x98>
 80028a8:	20000018 	.word	0x20000018

080028ac <memset>:
 80028ac:	4402      	add	r2, r0
 80028ae:	4603      	mov	r3, r0
 80028b0:	4293      	cmp	r3, r2
 80028b2:	d100      	bne.n	80028b6 <memset+0xa>
 80028b4:	4770      	bx	lr
 80028b6:	f803 1b01 	strb.w	r1, [r3], #1
 80028ba:	e7f9      	b.n	80028b0 <memset+0x4>

080028bc <_close_r>:
 80028bc:	b538      	push	{r3, r4, r5, lr}
 80028be:	4d06      	ldr	r5, [pc, #24]	@ (80028d8 <_close_r+0x1c>)
 80028c0:	2300      	movs	r3, #0
 80028c2:	4604      	mov	r4, r0
 80028c4:	4608      	mov	r0, r1
 80028c6:	602b      	str	r3, [r5, #0]
 80028c8:	f7fe f9bb 	bl	8000c42 <_close>
 80028cc:	1c43      	adds	r3, r0, #1
 80028ce:	d102      	bne.n	80028d6 <_close_r+0x1a>
 80028d0:	682b      	ldr	r3, [r5, #0]
 80028d2:	b103      	cbz	r3, 80028d6 <_close_r+0x1a>
 80028d4:	6023      	str	r3, [r4, #0]
 80028d6:	bd38      	pop	{r3, r4, r5, pc}
 80028d8:	2000029c 	.word	0x2000029c

080028dc <_lseek_r>:
 80028dc:	b538      	push	{r3, r4, r5, lr}
 80028de:	4d07      	ldr	r5, [pc, #28]	@ (80028fc <_lseek_r+0x20>)
 80028e0:	4604      	mov	r4, r0
 80028e2:	4608      	mov	r0, r1
 80028e4:	4611      	mov	r1, r2
 80028e6:	2200      	movs	r2, #0
 80028e8:	602a      	str	r2, [r5, #0]
 80028ea:	461a      	mov	r2, r3
 80028ec:	f7fe f9b3 	bl	8000c56 <_lseek>
 80028f0:	1c43      	adds	r3, r0, #1
 80028f2:	d102      	bne.n	80028fa <_lseek_r+0x1e>
 80028f4:	682b      	ldr	r3, [r5, #0]
 80028f6:	b103      	cbz	r3, 80028fa <_lseek_r+0x1e>
 80028f8:	6023      	str	r3, [r4, #0]
 80028fa:	bd38      	pop	{r3, r4, r5, pc}
 80028fc:	2000029c 	.word	0x2000029c

08002900 <_read_r>:
 8002900:	b538      	push	{r3, r4, r5, lr}
 8002902:	4d07      	ldr	r5, [pc, #28]	@ (8002920 <_read_r+0x20>)
 8002904:	4604      	mov	r4, r0
 8002906:	4608      	mov	r0, r1
 8002908:	4611      	mov	r1, r2
 800290a:	2200      	movs	r2, #0
 800290c:	602a      	str	r2, [r5, #0]
 800290e:	461a      	mov	r2, r3
 8002910:	f7fe f989 	bl	8000c26 <_read>
 8002914:	1c43      	adds	r3, r0, #1
 8002916:	d102      	bne.n	800291e <_read_r+0x1e>
 8002918:	682b      	ldr	r3, [r5, #0]
 800291a:	b103      	cbz	r3, 800291e <_read_r+0x1e>
 800291c:	6023      	str	r3, [r4, #0]
 800291e:	bd38      	pop	{r3, r4, r5, pc}
 8002920:	2000029c 	.word	0x2000029c

08002924 <_sbrk_r>:
 8002924:	b538      	push	{r3, r4, r5, lr}
 8002926:	4d06      	ldr	r5, [pc, #24]	@ (8002940 <_sbrk_r+0x1c>)
 8002928:	2300      	movs	r3, #0
 800292a:	4604      	mov	r4, r0
 800292c:	4608      	mov	r0, r1
 800292e:	602b      	str	r3, [r5, #0]
 8002930:	f7fe f994 	bl	8000c5c <_sbrk>
 8002934:	1c43      	adds	r3, r0, #1
 8002936:	d102      	bne.n	800293e <_sbrk_r+0x1a>
 8002938:	682b      	ldr	r3, [r5, #0]
 800293a:	b103      	cbz	r3, 800293e <_sbrk_r+0x1a>
 800293c:	6023      	str	r3, [r4, #0]
 800293e:	bd38      	pop	{r3, r4, r5, pc}
 8002940:	2000029c 	.word	0x2000029c

08002944 <_write_r>:
 8002944:	b538      	push	{r3, r4, r5, lr}
 8002946:	4d07      	ldr	r5, [pc, #28]	@ (8002964 <_write_r+0x20>)
 8002948:	4604      	mov	r4, r0
 800294a:	4608      	mov	r0, r1
 800294c:	4611      	mov	r1, r2
 800294e:	2200      	movs	r2, #0
 8002950:	602a      	str	r2, [r5, #0]
 8002952:	461a      	mov	r2, r3
 8002954:	f7fe f814 	bl	8000980 <_write>
 8002958:	1c43      	adds	r3, r0, #1
 800295a:	d102      	bne.n	8002962 <_write_r+0x1e>
 800295c:	682b      	ldr	r3, [r5, #0]
 800295e:	b103      	cbz	r3, 8002962 <_write_r+0x1e>
 8002960:	6023      	str	r3, [r4, #0]
 8002962:	bd38      	pop	{r3, r4, r5, pc}
 8002964:	2000029c 	.word	0x2000029c

08002968 <__errno>:
 8002968:	4b01      	ldr	r3, [pc, #4]	@ (8002970 <__errno+0x8>)
 800296a:	6818      	ldr	r0, [r3, #0]
 800296c:	4770      	bx	lr
 800296e:	bf00      	nop
 8002970:	20000018 	.word	0x20000018

08002974 <__libc_init_array>:
 8002974:	b570      	push	{r4, r5, r6, lr}
 8002976:	4d0d      	ldr	r5, [pc, #52]	@ (80029ac <__libc_init_array+0x38>)
 8002978:	4c0d      	ldr	r4, [pc, #52]	@ (80029b0 <__libc_init_array+0x3c>)
 800297a:	1b64      	subs	r4, r4, r5
 800297c:	10a4      	asrs	r4, r4, #2
 800297e:	2600      	movs	r6, #0
 8002980:	42a6      	cmp	r6, r4
 8002982:	d109      	bne.n	8002998 <__libc_init_array+0x24>
 8002984:	4d0b      	ldr	r5, [pc, #44]	@ (80029b4 <__libc_init_array+0x40>)
 8002986:	4c0c      	ldr	r4, [pc, #48]	@ (80029b8 <__libc_init_array+0x44>)
 8002988:	f000 fc64 	bl	8003254 <_init>
 800298c:	1b64      	subs	r4, r4, r5
 800298e:	10a4      	asrs	r4, r4, #2
 8002990:	2600      	movs	r6, #0
 8002992:	42a6      	cmp	r6, r4
 8002994:	d105      	bne.n	80029a2 <__libc_init_array+0x2e>
 8002996:	bd70      	pop	{r4, r5, r6, pc}
 8002998:	f855 3b04 	ldr.w	r3, [r5], #4
 800299c:	4798      	blx	r3
 800299e:	3601      	adds	r6, #1
 80029a0:	e7ee      	b.n	8002980 <__libc_init_array+0xc>
 80029a2:	f855 3b04 	ldr.w	r3, [r5], #4
 80029a6:	4798      	blx	r3
 80029a8:	3601      	adds	r6, #1
 80029aa:	e7f2      	b.n	8002992 <__libc_init_array+0x1e>
 80029ac:	080034cc 	.word	0x080034cc
 80029b0:	080034cc 	.word	0x080034cc
 80029b4:	080034cc 	.word	0x080034cc
 80029b8:	080034d0 	.word	0x080034d0

080029bc <__retarget_lock_init_recursive>:
 80029bc:	4770      	bx	lr

080029be <__retarget_lock_acquire_recursive>:
 80029be:	4770      	bx	lr

080029c0 <__retarget_lock_release_recursive>:
 80029c0:	4770      	bx	lr
	...

080029c4 <_free_r>:
 80029c4:	b538      	push	{r3, r4, r5, lr}
 80029c6:	4605      	mov	r5, r0
 80029c8:	2900      	cmp	r1, #0
 80029ca:	d041      	beq.n	8002a50 <_free_r+0x8c>
 80029cc:	f851 3c04 	ldr.w	r3, [r1, #-4]
 80029d0:	1f0c      	subs	r4, r1, #4
 80029d2:	2b00      	cmp	r3, #0
 80029d4:	bfb8      	it	lt
 80029d6:	18e4      	addlt	r4, r4, r3
 80029d8:	f7ff fd52 	bl	8002480 <__malloc_lock>
 80029dc:	4a1d      	ldr	r2, [pc, #116]	@ (8002a54 <_free_r+0x90>)
 80029de:	6813      	ldr	r3, [r2, #0]
 80029e0:	b933      	cbnz	r3, 80029f0 <_free_r+0x2c>
 80029e2:	6063      	str	r3, [r4, #4]
 80029e4:	6014      	str	r4, [r2, #0]
 80029e6:	4628      	mov	r0, r5
 80029e8:	e8bd 4038 	ldmia.w	sp!, {r3, r4, r5, lr}
 80029ec:	f7ff bd4e 	b.w	800248c <__malloc_unlock>
 80029f0:	42a3      	cmp	r3, r4
 80029f2:	d908      	bls.n	8002a06 <_free_r+0x42>
 80029f4:	6820      	ldr	r0, [r4, #0]
 80029f6:	1821      	adds	r1, r4, r0
 80029f8:	428b      	cmp	r3, r1
 80029fa:	bf01      	itttt	eq
 80029fc:	6819      	ldreq	r1, [r3, #0]
 80029fe:	685b      	ldreq	r3, [r3, #4]
 8002a00:	1809      	addeq	r1, r1, r0
 8002a02:	6021      	streq	r1, [r4, #0]
 8002a04:	e7ed      	b.n	80029e2 <_free_r+0x1e>
 8002a06:	461a      	mov	r2, r3
 8002a08:	685b      	ldr	r3, [r3, #4]
 8002a0a:	b10b      	cbz	r3, 8002a10 <_free_r+0x4c>
 8002a0c:	42a3      	cmp	r3, r4
 8002a0e:	d9fa      	bls.n	8002a06 <_free_r+0x42>
 8002a10:	6811      	ldr	r1, [r2, #0]
 8002a12:	1850      	adds	r0, r2, r1
 8002a14:	42a0      	cmp	r0, r4
 8002a16:	d10b      	bne.n	8002a30 <_free_r+0x6c>
 8002a18:	6820      	ldr	r0, [r4, #0]
 8002a1a:	4401      	add	r1, r0
 8002a1c:	1850      	adds	r0, r2, r1
 8002a1e:	4283      	cmp	r3, r0
 8002a20:	6011      	str	r1, [r2, #0]
 8002a22:	d1e0      	bne.n	80029e6 <_free_r+0x22>
 8002a24:	6818      	ldr	r0, [r3, #0]
 8002a26:	685b      	ldr	r3, [r3, #4]
 8002a28:	6053      	str	r3, [r2, #4]
 8002a2a:	4408      	add	r0, r1
 8002a2c:	6010      	str	r0, [r2, #0]
 8002a2e:	e7da      	b.n	80029e6 <_free_r+0x22>
 8002a30:	d902      	bls.n	8002a38 <_free_r+0x74>
 8002a32:	230c      	movs	r3, #12
 8002a34:	602b      	str	r3, [r5, #0]
 8002a36:	e7d6      	b.n	80029e6 <_free_r+0x22>
 8002a38:	6820      	ldr	r0, [r4, #0]
 8002a3a:	1821      	adds	r1, r4, r0
 8002a3c:	428b      	cmp	r3, r1
 8002a3e:	bf04      	itt	eq
 8002a40:	6819      	ldreq	r1, [r3, #0]
 8002a42:	685b      	ldreq	r3, [r3, #4]
 8002a44:	6063      	str	r3, [r4, #4]
 8002a46:	bf04      	itt	eq
 8002a48:	1809      	addeq	r1, r1, r0
 8002a4a:	6021      	streq	r1, [r4, #0]
 8002a4c:	6054      	str	r4, [r2, #4]
 8002a4e:	e7ca      	b.n	80029e6 <_free_r+0x22>
 8002a50:	bd38      	pop	{r3, r4, r5, pc}
 8002a52:	bf00      	nop
 8002a54:	2000015c 	.word	0x2000015c

08002a58 <__sfputc_r>:
 8002a58:	6893      	ldr	r3, [r2, #8]
 8002a5a:	3b01      	subs	r3, #1
 8002a5c:	2b00      	cmp	r3, #0
 8002a5e:	b410      	push	{r4}
 8002a60:	6093      	str	r3, [r2, #8]
 8002a62:	da08      	bge.n	8002a76 <__sfputc_r+0x1e>
 8002a64:	6994      	ldr	r4, [r2, #24]
 8002a66:	42a3      	cmp	r3, r4
 8002a68:	db01      	blt.n	8002a6e <__sfputc_r+0x16>
 8002a6a:	290a      	cmp	r1, #10
 8002a6c:	d103      	bne.n	8002a76 <__sfputc_r+0x1e>
 8002a6e:	f85d 4b04 	ldr.w	r4, [sp], #4
 8002a72:	f7ff be86 	b.w	8002782 <__swbuf_r>
 8002a76:	6813      	ldr	r3, [r2, #0]
 8002a78:	1c58      	adds	r0, r3, #1
 8002a7a:	6010      	str	r0, [r2, #0]
 8002a7c:	7019      	strb	r1, [r3, #0]
 8002a7e:	4608      	mov	r0, r1
 8002a80:	f85d 4b04 	ldr.w	r4, [sp], #4
 8002a84:	4770      	bx	lr

08002a86 <__sfputs_r>:
 8002a86:	b5f8      	push	{r3, r4, r5, r6, r7, lr}
 8002a88:	4606      	mov	r6, r0
 8002a8a:	460f      	mov	r7, r1
 8002a8c:	4614      	mov	r4, r2
 8002a8e:	18d5      	adds	r5, r2, r3
 8002a90:	42ac      	cmp	r4, r5
 8002a92:	d101      	bne.n	8002a98 <__sfputs_r+0x12>
 8002a94:	2000      	movs	r0, #0
 8002a96:	e007      	b.n	8002aa8 <__sfputs_r+0x22>
 8002a98:	f814 1b01 	ldrb.w	r1, [r4], #1
 8002a9c:	463a      	mov	r2, r7
 8002a9e:	4630      	mov	r0, r6
 8002aa0:	f7ff ffda 	bl	8002a58 <__sfputc_r>
 8002aa4:	1c43      	adds	r3, r0, #1
 8002aa6:	d1f3      	bne.n	8002a90 <__sfputs_r+0xa>
 8002aa8:	bdf8      	pop	{r3, r4, r5, r6, r7, pc}
	...

08002aac <_vfiprintf_r>:
 8002aac:	e92d 4ff0 	stmdb	sp!, {r4, r5, r6, r7, r8, r9, sl, fp, lr}
 8002ab0:	460d      	mov	r5, r1
 8002ab2:	b09d      	sub	sp, #116	@ 0x74
 8002ab4:	4614      	mov	r4, r2
 8002ab6:	4698      	mov	r8, r3
 8002ab8:	4606      	mov	r6, r0
 8002aba:	b118      	cbz	r0, 8002ac4 <_vfiprintf_r+0x18>
 8002abc:	6a03      	ldr	r3, [r0, #32]
 8002abe:	b90b      	cbnz	r3, 8002ac4 <_vfiprintf_r+0x18>
 8002ac0:	f7ff fd76 	bl	80025b0 <__sinit>
 8002ac4:	6e6b      	ldr	r3, [r5, #100]	@ 0x64
 8002ac6:	07d9      	lsls	r1, r3, #31
 8002ac8:	d405      	bmi.n	8002ad6 <_vfiprintf_r+0x2a>
 8002aca:	89ab      	ldrh	r3, [r5, #12]
 8002acc:	059a      	lsls	r2, r3, #22
 8002ace:	d402      	bmi.n	8002ad6 <_vfiprintf_r+0x2a>
 8002ad0:	6da8      	ldr	r0, [r5, #88]	@ 0x58
 8002ad2:	f7ff ff74 	bl	80029be <__retarget_lock_acquire_recursive>
 8002ad6:	89ab      	ldrh	r3, [r5, #12]
 8002ad8:	071b      	lsls	r3, r3, #28
 8002ada:	d501      	bpl.n	8002ae0 <_vfiprintf_r+0x34>
 8002adc:	692b      	ldr	r3, [r5, #16]
 8002ade:	b99b      	cbnz	r3, 8002b08 <_vfiprintf_r+0x5c>
 8002ae0:	4629      	mov	r1, r5
 8002ae2:	4630      	mov	r0, r6
 8002ae4:	f7ff fe8c 	bl	8002800 <__swsetup_r>
 8002ae8:	b170      	cbz	r0, 8002b08 <_vfiprintf_r+0x5c>
 8002aea:	6e6b      	ldr	r3, [r5, #100]	@ 0x64
 8002aec:	07dc      	lsls	r4, r3, #31
 8002aee:	d504      	bpl.n	8002afa <_vfiprintf_r+0x4e>
 8002af0:	f04f 30ff 	mov.w	r0, #4294967295
 8002af4:	b01d      	add	sp, #116	@ 0x74
 8002af6:	e8bd 8ff0 	ldmia.w	sp!, {r4, r5, r6, r7, r8, r9, sl, fp, pc}
 8002afa:	89ab      	ldrh	r3, [r5, #12]
 8002afc:	0598      	lsls	r0, r3, #22
 8002afe:	d4f7      	bmi.n	8002af0 <_vfiprintf_r+0x44>
 8002b00:	6da8      	ldr	r0, [r5, #88]	@ 0x58
 8002b02:	f7ff ff5d 	bl	80029c0 <__retarget_lock_release_recursive>
 8002b06:	e7f3      	b.n	8002af0 <_vfiprintf_r+0x44>
 8002b08:	2300      	movs	r3, #0
 8002b0a:	9309      	str	r3, [sp, #36]	@ 0x24
 8002b0c:	2320      	movs	r3, #32
 8002b0e:	f88d 3029 	strb.w	r3, [sp, #41]	@ 0x29
 8002b12:	f8cd 800c 	str.w	r8, [sp, #12]
 8002b16:	2330      	movs	r3, #48	@ 0x30
 8002b18:	f8df 81ac 	ldr.w	r8, [pc, #428]	@ 8002cc8 <_vfiprintf_r+0x21c>
 8002b1c:	f88d 302a 	strb.w	r3, [sp, #42]	@ 0x2a
 8002b20:	f04f 0901 	mov.w	r9, #1
 8002b24:	4623      	mov	r3, r4
 8002b26:	469a      	mov	sl, r3
 8002b28:	f813 2b01 	ldrb.w	r2, [r3], #1
 8002b2c:	b10a      	cbz	r2, 8002b32 <_vfiprintf_r+0x86>
 8002b2e:	2a25      	cmp	r2, #37	@ 0x25
 8002b30:	d1f9      	bne.n	8002b26 <_vfiprintf_r+0x7a>
 8002b32:	ebba 0b04 	subs.w	fp, sl, r4
 8002b36:	d00b      	beq.n	8002b50 <_vfiprintf_r+0xa4>
 8002b38:	465b      	mov	r3, fp
 8002b3a:	4622      	mov	r2, r4
 8002b3c:	4629      	mov	r1, r5
 8002b3e:	4630      	mov	r0, r6
 8002b40:	f7ff ffa1 	bl	8002a86 <__sfputs_r>
 8002b44:	3001      	adds	r0, #1
 8002b46:	f000 80a7 	beq.w	8002c98 <_vfiprintf_r+0x1ec>
 8002b4a:	9a09      	ldr	r2, [sp, #36]	@ 0x24
 8002b4c:	445a      	add	r2, fp
 8002b4e:	9209      	str	r2, [sp, #36]	@ 0x24
 8002b50:	f89a 3000 	ldrb.w	r3, [sl]
 8002b54:	2b00      	cmp	r3, #0
 8002b56:	f000 809f 	beq.w	8002c98 <_vfiprintf_r+0x1ec>
 8002b5a:	2300      	movs	r3, #0
 8002b5c:	f04f 32ff 	mov.w	r2, #4294967295
 8002b60:	e9cd 2305 	strd	r2, r3, [sp, #20]
 8002b64:	f10a 0a01 	add.w	sl, sl, #1
 8002b68:	9304      	str	r3, [sp, #16]
 8002b6a:	9307      	str	r3, [sp, #28]
 8002b6c:	f88d 3053 	strb.w	r3, [sp, #83]	@ 0x53
 8002b70:	931a      	str	r3, [sp, #104]	@ 0x68
 8002b72:	4654      	mov	r4, sl
 8002b74:	2205      	movs	r2, #5
 8002b76:	f814 1b01 	ldrb.w	r1, [r4], #1
 8002b7a:	4853      	ldr	r0, [pc, #332]	@ (8002cc8 <_vfiprintf_r+0x21c>)
 8002b7c:	f7fd fb48 	bl	8000210 <memchr>
 8002b80:	9a04      	ldr	r2, [sp, #16]
 8002b82:	b9d8      	cbnz	r0, 8002bbc <_vfiprintf_r+0x110>
 8002b84:	06d1      	lsls	r1, r2, #27
 8002b86:	bf44      	itt	mi
 8002b88:	2320      	movmi	r3, #32
 8002b8a:	f88d 3053 	strbmi.w	r3, [sp, #83]	@ 0x53
 8002b8e:	0713      	lsls	r3, r2, #28
 8002b90:	bf44      	itt	mi
 8002b92:	232b      	movmi	r3, #43	@ 0x2b
 8002b94:	f88d 3053 	strbmi.w	r3, [sp, #83]	@ 0x53
 8002b98:	f89a 3000 	ldrb.w	r3, [sl]
 8002b9c:	2b2a      	cmp	r3, #42	@ 0x2a
 8002b9e:	d015      	beq.n	8002bcc <_vfiprintf_r+0x120>
 8002ba0:	9a07      	ldr	r2, [sp, #28]
 8002ba2:	4654      	mov	r4, sl
 8002ba4:	2000      	movs	r0, #0
 8002ba6:	f04f 0c0a 	mov.w	ip, #10
 8002baa:	4621      	mov	r1, r4
 8002bac:	f811 3b01 	ldrb.w	r3, [r1], #1
 8002bb0:	3b30      	subs	r3, #48	@ 0x30
 8002bb2:	2b09      	cmp	r3, #9
 8002bb4:	d94b      	bls.n	8002c4e <_vfiprintf_r+0x1a2>
 8002bb6:	b1b0      	cbz	r0, 8002be6 <_vfiprintf_r+0x13a>
 8002bb8:	9207      	str	r2, [sp, #28]
 8002bba:	e014      	b.n	8002be6 <_vfiprintf_r+0x13a>
 8002bbc:	eba0 0308 	sub.w	r3, r0, r8
 8002bc0:	fa09 f303 	lsl.w	r3, r9, r3
 8002bc4:	4313      	orrs	r3, r2
 8002bc6:	9304      	str	r3, [sp, #16]
 8002bc8:	46a2      	mov	sl, r4
 8002bca:	e7d2      	b.n	8002b72 <_vfiprintf_r+0xc6>
 8002bcc:	9b03      	ldr	r3, [sp, #12]
 8002bce:	1d19      	adds	r1, r3, #4
 8002bd0:	681b      	ldr	r3, [r3, #0]
 8002bd2:	9103      	str	r1, [sp, #12]
 8002bd4:	2b00      	cmp	r3, #0
 8002bd6:	bfbb      	ittet	lt
 8002bd8:	425b      	neglt	r3, r3
 8002bda:	f042 0202 	orrlt.w	r2, r2, #2
 8002bde:	9307      	strge	r3, [sp, #28]
 8002be0:	9307      	strlt	r3, [sp, #28]
 8002be2:	bfb8      	it	lt
 8002be4:	9204      	strlt	r2, [sp, #16]
 8002be6:	7823      	ldrb	r3, [r4, #0]
 8002be8:	2b2e      	cmp	r3, #46	@ 0x2e
 8002bea:	d10a      	bne.n	8002c02 <_vfiprintf_r+0x156>
 8002bec:	7863      	ldrb	r3, [r4, #1]
 8002bee:	2b2a      	cmp	r3, #42	@ 0x2a
 8002bf0:	d132      	bne.n	8002c58 <_vfiprintf_r+0x1ac>
 8002bf2:	9b03      	ldr	r3, [sp, #12]
 8002bf4:	1d1a      	adds	r2, r3, #4
 8002bf6:	681b      	ldr	r3, [r3, #0]
 8002bf8:	9203      	str	r2, [sp, #12]
 8002bfa:	ea43 73e3 	orr.w	r3, r3, r3, asr #31
 8002bfe:	3402      	adds	r4, #2
 8002c00:	9305      	str	r3, [sp, #20]
 8002c02:	f8df a0d4 	ldr.w	sl, [pc, #212]	@ 8002cd8 <_vfiprintf_r+0x22c>
 8002c06:	7821      	ldrb	r1, [r4, #0]
 8002c08:	2203      	movs	r2, #3
 8002c0a:	4650      	mov	r0, sl
 8002c0c:	f7fd fb00 	bl	8000210 <memchr>
 8002c10:	b138      	cbz	r0, 8002c22 <_vfiprintf_r+0x176>
 8002c12:	9b04      	ldr	r3, [sp, #16]
 8002c14:	eba0 000a 	sub.w	r0, r0, sl
 8002c18:	2240      	movs	r2, #64	@ 0x40
 8002c1a:	4082      	lsls	r2, r0
 8002c1c:	4313      	orrs	r3, r2
 8002c1e:	3401      	adds	r4, #1
 8002c20:	9304      	str	r3, [sp, #16]
 8002c22:	f814 1b01 	ldrb.w	r1, [r4], #1
 8002c26:	4829      	ldr	r0, [pc, #164]	@ (8002ccc <_vfiprintf_r+0x220>)
 8002c28:	f88d 1028 	strb.w	r1, [sp, #40]	@ 0x28
 8002c2c:	2206      	movs	r2, #6
 8002c2e:	f7fd faef 	bl	8000210 <memchr>
 8002c32:	2800      	cmp	r0, #0
 8002c34:	d03f      	beq.n	8002cb6 <_vfiprintf_r+0x20a>
 8002c36:	4b26      	ldr	r3, [pc, #152]	@ (8002cd0 <_vfiprintf_r+0x224>)
 8002c38:	bb1b      	cbnz	r3, 8002c82 <_vfiprintf_r+0x1d6>
 8002c3a:	9b03      	ldr	r3, [sp, #12]
 8002c3c:	3307      	adds	r3, #7
 8002c3e:	f023 0307 	bic.w	r3, r3, #7
 8002c42:	3308      	adds	r3, #8
 8002c44:	9303      	str	r3, [sp, #12]
 8002c46:	9b09      	ldr	r3, [sp, #36]	@ 0x24
 8002c48:	443b      	add	r3, r7
 8002c4a:	9309      	str	r3, [sp, #36]	@ 0x24
 8002c4c:	e76a      	b.n	8002b24 <_vfiprintf_r+0x78>
 8002c4e:	fb0c 3202 	mla	r2, ip, r2, r3
 8002c52:	460c      	mov	r4, r1
 8002c54:	2001      	movs	r0, #1
 8002c56:	e7a8      	b.n	8002baa <_vfiprintf_r+0xfe>
 8002c58:	2300      	movs	r3, #0
 8002c5a:	3401      	adds	r4, #1
 8002c5c:	9305      	str	r3, [sp, #20]
 8002c5e:	4619      	mov	r1, r3
 8002c60:	f04f 0c0a 	mov.w	ip, #10
 8002c64:	4620      	mov	r0, r4
 8002c66:	f810 2b01 	ldrb.w	r2, [r0], #1
 8002c6a:	3a30      	subs	r2, #48	@ 0x30
 8002c6c:	2a09      	cmp	r2, #9
 8002c6e:	d903      	bls.n	8002c78 <_vfiprintf_r+0x1cc>
 8002c70:	2b00      	cmp	r3, #0
 8002c72:	d0c6      	beq.n	8002c02 <_vfiprintf_r+0x156>
 8002c74:	9105      	str	r1, [sp, #20]
 8002c76:	e7c4      	b.n	8002c02 <_vfiprintf_r+0x156>
 8002c78:	fb0c 2101 	mla	r1, ip, r1, r2
 8002c7c:	4604      	mov	r4, r0
 8002c7e:	2301      	movs	r3, #1
 8002c80:	e7f0      	b.n	8002c64 <_vfiprintf_r+0x1b8>
 8002c82:	ab03      	add	r3, sp, #12
 8002c84:	9300      	str	r3, [sp, #0]
 8002c86:	462a      	mov	r2, r5
 8002c88:	4b12      	ldr	r3, [pc, #72]	@ (8002cd4 <_vfiprintf_r+0x228>)
 8002c8a:	a904      	add	r1, sp, #16
 8002c8c:	4630      	mov	r0, r6
 8002c8e:	f3af 8000 	nop.w
 8002c92:	4607      	mov	r7, r0
 8002c94:	1c78      	adds	r0, r7, #1
 8002c96:	d1d6      	bne.n	8002c46 <_vfiprintf_r+0x19a>
 8002c98:	6e6b      	ldr	r3, [r5, #100]	@ 0x64
 8002c9a:	07d9      	lsls	r1, r3, #31
 8002c9c:	d405      	bmi.n	8002caa <_vfiprintf_r+0x1fe>
 8002c9e:	89ab      	ldrh	r3, [r5, #12]
 8002ca0:	059a      	lsls	r2, r3, #22
 8002ca2:	d402      	bmi.n	8002caa <_vfiprintf_r+0x1fe>
 8002ca4:	6da8      	ldr	r0, [r5, #88]	@ 0x58
 8002ca6:	f7ff fe8b 	bl	80029c0 <__retarget_lock_release_recursive>
 8002caa:	89ab      	ldrh	r3, [r5, #12]
 8002cac:	065b      	lsls	r3, r3, #25
 8002cae:	f53f af1f 	bmi.w	8002af0 <_vfiprintf_r+0x44>
 8002cb2:	9809      	ldr	r0, [sp, #36]	@ 0x24
 8002cb4:	e71e      	b.n	8002af4 <_vfiprintf_r+0x48>
 8002cb6:	ab03      	add	r3, sp, #12
 8002cb8:	9300      	str	r3, [sp, #0]
 8002cba:	462a      	mov	r2, r5
 8002cbc:	4b05      	ldr	r3, [pc, #20]	@ (8002cd4 <_vfiprintf_r+0x228>)
 8002cbe:	a904      	add	r1, sp, #16
 8002cc0:	4630      	mov	r0, r6
 8002cc2:	f000 f879 	bl	8002db8 <_printf_i>
 8002cc6:	e7e4      	b.n	8002c92 <_vfiprintf_r+0x1e6>
 8002cc8:	08003476 	.word	0x08003476
 8002ccc:	08003480 	.word	0x08003480
 8002cd0:	00000000 	.word	0x00000000
 8002cd4:	08002a87 	.word	0x08002a87
 8002cd8:	0800347c 	.word	0x0800347c

08002cdc <_printf_common>:
 8002cdc:	e92d 47f0 	stmdb	sp!, {r4, r5, r6, r7, r8, r9, sl, lr}
 8002ce0:	4616      	mov	r6, r2
 8002ce2:	4698      	mov	r8, r3
 8002ce4:	688a      	ldr	r2, [r1, #8]
 8002ce6:	690b      	ldr	r3, [r1, #16]
 8002ce8:	f8dd 9020 	ldr.w	r9, [sp, #32]
 8002cec:	4293      	cmp	r3, r2
 8002cee:	bfb8      	it	lt
 8002cf0:	4613      	movlt	r3, r2
 8002cf2:	6033      	str	r3, [r6, #0]
 8002cf4:	f891 2043 	ldrb.w	r2, [r1, #67]	@ 0x43
 8002cf8:	4607      	mov	r7, r0
 8002cfa:	460c      	mov	r4, r1
 8002cfc:	b10a      	cbz	r2, 8002d02 <_printf_common+0x26>
 8002cfe:	3301      	adds	r3, #1
 8002d00:	6033      	str	r3, [r6, #0]
 8002d02:	6823      	ldr	r3, [r4, #0]
 8002d04:	0699      	lsls	r1, r3, #26
 8002d06:	bf42      	ittt	mi
 8002d08:	6833      	ldrmi	r3, [r6, #0]
 8002d0a:	3302      	addmi	r3, #2
 8002d0c:	6033      	strmi	r3, [r6, #0]
 8002d0e:	6825      	ldr	r5, [r4, #0]
 8002d10:	f015 0506 	ands.w	r5, r5, #6
 8002d14:	d106      	bne.n	8002d24 <_printf_common+0x48>
 8002d16:	f104 0a19 	add.w	sl, r4, #25
 8002d1a:	68e3      	ldr	r3, [r4, #12]
 8002d1c:	6832      	ldr	r2, [r6, #0]
 8002d1e:	1a9b      	subs	r3, r3, r2
 8002d20:	42ab      	cmp	r3, r5
 8002d22:	dc26      	bgt.n	8002d72 <_printf_common+0x96>
 8002d24:	f894 3043 	ldrb.w	r3, [r4, #67]	@ 0x43
 8002d28:	6822      	ldr	r2, [r4, #0]
 8002d2a:	3b00      	subs	r3, #0
 8002d2c:	bf18      	it	ne
 8002d2e:	2301      	movne	r3, #1
 8002d30:	0692      	lsls	r2, r2, #26
 8002d32:	d42b      	bmi.n	8002d8c <_printf_common+0xb0>
 8002d34:	f104 0243 	add.w	r2, r4, #67	@ 0x43
 8002d38:	4641      	mov	r1, r8
 8002d3a:	4638      	mov	r0, r7
 8002d3c:	47c8      	blx	r9
 8002d3e:	3001      	adds	r0, #1
 8002d40:	d01e      	beq.n	8002d80 <_printf_common+0xa4>
 8002d42:	6823      	ldr	r3, [r4, #0]
 8002d44:	6922      	ldr	r2, [r4, #16]
 8002d46:	f003 0306 	and.w	r3, r3, #6
 8002d4a:	2b04      	cmp	r3, #4
 8002d4c:	bf02      	ittt	eq
 8002d4e:	68e5      	ldreq	r5, [r4, #12]
 8002d50:	6833      	ldreq	r3, [r6, #0]
 8002d52:	1aed      	subeq	r5, r5, r3
 8002d54:	68a3      	ldr	r3, [r4, #8]
 8002d56:	bf0c      	ite	eq
 8002d58:	ea25 75e5 	biceq.w	r5, r5, r5, asr #31
 8002d5c:	2500      	movne	r5, #0
 8002d5e:	4293      	cmp	r3, r2
 8002d60:	bfc4      	itt	gt
 8002d62:	1a9b      	subgt	r3, r3, r2
 8002d64:	18ed      	addgt	r5, r5, r3
 8002d66:	2600      	movs	r6, #0
 8002d68:	341a      	adds	r4, #26
 8002d6a:	42b5      	cmp	r5, r6
 8002d6c:	d11a      	bne.n	8002da4 <_printf_common+0xc8>
 8002d6e:	2000      	movs	r0, #0
 8002d70:	e008      	b.n	8002d84 <_printf_common+0xa8>
 8002d72:	2301      	movs	r3, #1
 8002d74:	4652      	mov	r2, sl
 8002d76:	4641      	mov	r1, r8
 8002d78:	4638      	mov	r0, r7
 8002d7a:	47c8      	blx	r9
 8002d7c:	3001      	adds	r0, #1
 8002d7e:	d103      	bne.n	8002d88 <_printf_common+0xac>
 8002d80:	f04f 30ff 	mov.w	r0, #4294967295
 8002d84:	e8bd 87f0 	ldmia.w	sp!, {r4, r5, r6, r7, r8, r9, sl, pc}
 8002d88:	3501      	adds	r5, #1
 8002d8a:	e7c6      	b.n	8002d1a <_printf_common+0x3e>
 8002d8c:	18e1      	adds	r1, r4, r3
 8002d8e:	1c5a      	adds	r2, r3, #1
 8002d90:	2030      	movs	r0, #48	@ 0x30
 8002d92:	f881 0043 	strb.w	r0, [r1, #67]	@ 0x43
 8002d96:	4422      	add	r2, r4
 8002d98:	f894 1045 	ldrb.w	r1, [r4, #69]	@ 0x45
 8002d9c:	f882 1043 	strb.w	r1, [r2, #67]	@ 0x43
 8002da0:	3302      	adds	r3, #2
 8002da2:	e7c7      	b.n	8002d34 <_printf_common+0x58>
 8002da4:	2301      	movs	r3, #1
 8002da6:	4622      	mov	r2, r4
 8002da8:	4641      	mov	r1, r8
 8002daa:	4638      	mov	r0, r7
 8002dac:	47c8      	blx	r9
 8002dae:	3001      	adds	r0, #1
 8002db0:	d0e6      	beq.n	8002d80 <_printf_common+0xa4>
 8002db2:	3601      	adds	r6, #1
 8002db4:	e7d9      	b.n	8002d6a <_printf_common+0x8e>
	...

08002db8 <_printf_i>:
 8002db8:	e92d 47ff 	stmdb	sp!, {r0, r1, r2, r3, r4, r5, r6, r7, r8, r9, sl, lr}
 8002dbc:	7e0f      	ldrb	r7, [r1, #24]
 8002dbe:	9e0c      	ldr	r6, [sp, #48]	@ 0x30
 8002dc0:	2f78      	cmp	r7, #120	@ 0x78
 8002dc2:	4691      	mov	r9, r2
 8002dc4:	4680      	mov	r8, r0
 8002dc6:	460c      	mov	r4, r1
 8002dc8:	469a      	mov	sl, r3
 8002dca:	f101 0243 	add.w	r2, r1, #67	@ 0x43
 8002dce:	d807      	bhi.n	8002de0 <_printf_i+0x28>
 8002dd0:	2f62      	cmp	r7, #98	@ 0x62
 8002dd2:	d80a      	bhi.n	8002dea <_printf_i+0x32>
 8002dd4:	2f00      	cmp	r7, #0
 8002dd6:	f000 80d1 	beq.w	8002f7c <_printf_i+0x1c4>
 8002dda:	2f58      	cmp	r7, #88	@ 0x58
 8002ddc:	f000 80b8 	beq.w	8002f50 <_printf_i+0x198>
 8002de0:	f104 0642 	add.w	r6, r4, #66	@ 0x42
 8002de4:	f884 7042 	strb.w	r7, [r4, #66]	@ 0x42
 8002de8:	e03a      	b.n	8002e60 <_printf_i+0xa8>
 8002dea:	f1a7 0363 	sub.w	r3, r7, #99	@ 0x63
 8002dee:	2b15      	cmp	r3, #21
 8002df0:	d8f6      	bhi.n	8002de0 <_printf_i+0x28>
 8002df2:	a101      	add	r1, pc, #4	@ (adr r1, 8002df8 <_printf_i+0x40>)
 8002df4:	f851 f023 	ldr.w	pc, [r1, r3, lsl #2]
 8002df8:	08002e51 	.word	0x08002e51
 8002dfc:	08002e65 	.word	0x08002e65
 8002e00:	08002de1 	.word	0x08002de1
 8002e04:	08002de1 	.word	0x08002de1
 8002e08:	08002de1 	.word	0x08002de1
 8002e0c:	08002de1 	.word	0x08002de1
 8002e10:	08002e65 	.word	0x08002e65
 8002e14:	08002de1 	.word	0x08002de1
 8002e18:	08002de1 	.word	0x08002de1
 8002e1c:	08002de1 	.word	0x08002de1
 8002e20:	08002de1 	.word	0x08002de1
 8002e24:	08002f63 	.word	0x08002f63
 8002e28:	08002e8f 	.word	0x08002e8f
 8002e2c:	08002f1d 	.word	0x08002f1d
 8002e30:	08002de1 	.word	0x08002de1
 8002e34:	08002de1 	.word	0x08002de1
 8002e38:	08002f85 	.word	0x08002f85
 8002e3c:	08002de1 	.word	0x08002de1
 8002e40:	08002e8f 	.word	0x08002e8f
 8002e44:	08002de1 	.word	0x08002de1
 8002e48:	08002de1 	.word	0x08002de1
 8002e4c:	08002f25 	.word	0x08002f25
 8002e50:	6833      	ldr	r3, [r6, #0]
 8002e52:	1d1a      	adds	r2, r3, #4
 8002e54:	681b      	ldr	r3, [r3, #0]
 8002e56:	6032      	str	r2, [r6, #0]
 8002e58:	f104 0642 	add.w	r6, r4, #66	@ 0x42
 8002e5c:	f884 3042 	strb.w	r3, [r4, #66]	@ 0x42
 8002e60:	2301      	movs	r3, #1
 8002e62:	e09c      	b.n	8002f9e <_printf_i+0x1e6>
 8002e64:	6833      	ldr	r3, [r6, #0]
 8002e66:	6820      	ldr	r0, [r4, #0]
 8002e68:	1d19      	adds	r1, r3, #4
 8002e6a:	6031      	str	r1, [r6, #0]
 8002e6c:	0606      	lsls	r6, r0, #24
 8002e6e:	d501      	bpl.n	8002e74 <_printf_i+0xbc>
 8002e70:	681d      	ldr	r5, [r3, #0]
 8002e72:	e003      	b.n	8002e7c <_printf_i+0xc4>
 8002e74:	0645      	lsls	r5, r0, #25
 8002e76:	d5fb      	bpl.n	8002e70 <_printf_i+0xb8>
 8002e78:	f9b3 5000 	ldrsh.w	r5, [r3]
 8002e7c:	2d00      	cmp	r5, #0
 8002e7e:	da03      	bge.n	8002e88 <_printf_i+0xd0>
 8002e80:	232d      	movs	r3, #45	@ 0x2d
 8002e82:	426d      	negs	r5, r5
 8002e84:	f884 3043 	strb.w	r3, [r4, #67]	@ 0x43
 8002e88:	4858      	ldr	r0, [pc, #352]	@ (8002fec <_printf_i+0x234>)
 8002e8a:	230a      	movs	r3, #10
 8002e8c:	e011      	b.n	8002eb2 <_printf_i+0xfa>
 8002e8e:	6821      	ldr	r1, [r4, #0]
 8002e90:	6833      	ldr	r3, [r6, #0]
 8002e92:	0608      	lsls	r0, r1, #24
 8002e94:	f853 5b04 	ldr.w	r5, [r3], #4
 8002e98:	d402      	bmi.n	8002ea0 <_printf_i+0xe8>
 8002e9a:	0649      	lsls	r1, r1, #25
 8002e9c:	bf48      	it	mi
 8002e9e:	b2ad      	uxthmi	r5, r5
 8002ea0:	2f6f      	cmp	r7, #111	@ 0x6f
 8002ea2:	4852      	ldr	r0, [pc, #328]	@ (8002fec <_printf_i+0x234>)
 8002ea4:	6033      	str	r3, [r6, #0]
 8002ea6:	bf14      	ite	ne
 8002ea8:	230a      	movne	r3, #10
 8002eaa:	2308      	moveq	r3, #8
 8002eac:	2100      	movs	r1, #0
 8002eae:	f884 1043 	strb.w	r1, [r4, #67]	@ 0x43
 8002eb2:	6866      	ldr	r6, [r4, #4]
 8002eb4:	60a6      	str	r6, [r4, #8]
 8002eb6:	2e00      	cmp	r6, #0
 8002eb8:	db05      	blt.n	8002ec6 <_printf_i+0x10e>
 8002eba:	6821      	ldr	r1, [r4, #0]
 8002ebc:	432e      	orrs	r6, r5
 8002ebe:	f021 0104 	bic.w	r1, r1, #4
 8002ec2:	6021      	str	r1, [r4, #0]
 8002ec4:	d04b      	beq.n	8002f5e <_printf_i+0x1a6>
 8002ec6:	4616      	mov	r6, r2
 8002ec8:	fbb5 f1f3 	udiv	r1, r5, r3
 8002ecc:	fb03 5711 	mls	r7, r3, r1, r5
 8002ed0:	5dc7      	ldrb	r7, [r0, r7]
 8002ed2:	f806 7d01 	strb.w	r7, [r6, #-1]!
 8002ed6:	462f      	mov	r7, r5
 8002ed8:	42bb      	cmp	r3, r7
 8002eda:	460d      	mov	r5, r1
 8002edc:	d9f4      	bls.n	8002ec8 <_printf_i+0x110>
 8002ede:	2b08      	cmp	r3, #8
 8002ee0:	d10b      	bne.n	8002efa <_printf_i+0x142>
 8002ee2:	6823      	ldr	r3, [r4, #0]
 8002ee4:	07df      	lsls	r7, r3, #31
 8002ee6:	d508      	bpl.n	8002efa <_printf_i+0x142>
 8002ee8:	6923      	ldr	r3, [r4, #16]
 8002eea:	6861      	ldr	r1, [r4, #4]
 8002eec:	4299      	cmp	r1, r3
 8002eee:	bfde      	ittt	le
 8002ef0:	2330      	movle	r3, #48	@ 0x30
 8002ef2:	f806 3c01 	strble.w	r3, [r6, #-1]
 8002ef6:	f106 36ff 	addle.w	r6, r6, #4294967295
 8002efa:	1b92      	subs	r2, r2, r6
 8002efc:	6122      	str	r2, [r4, #16]
 8002efe:	f8cd a000 	str.w	sl, [sp]
 8002f02:	464b      	mov	r3, r9
 8002f04:	aa03      	add	r2, sp, #12
 8002f06:	4621      	mov	r1, r4
 8002f08:	4640      	mov	r0, r8
 8002f0a:	f7ff fee7 	bl	8002cdc <_printf_common>
 8002f0e:	3001      	adds	r0, #1
 8002f10:	d14a      	bne.n	8002fa8 <_printf_i+0x1f0>
 8002f12:	f04f 30ff 	mov.w	r0, #4294967295
 8002f16:	b004      	add	sp, #16
 8002f18:	e8bd 87f0 	ldmia.w	sp!, {r4, r5, r6, r7, r8, r9, sl, pc}
 8002f1c:	6823      	ldr	r3, [r4, #0]
 8002f1e:	f043 0320 	orr.w	r3, r3, #32
 8002f22:	6023      	str	r3, [r4, #0]
 8002f24:	4832      	ldr	r0, [pc, #200]	@ (8002ff0 <_printf_i+0x238>)
 8002f26:	2778      	movs	r7, #120	@ 0x78
 8002f28:	f884 7045 	strb.w	r7, [r4, #69]	@ 0x45
 8002f2c:	6823      	ldr	r3, [r4, #0]
 8002f2e:	6831      	ldr	r1, [r6, #0]
 8002f30:	061f      	lsls	r7, r3, #24
 8002f32:	f851 5b04 	ldr.w	r5, [r1], #4
 8002f36:	d402      	bmi.n	8002f3e <_printf_i+0x186>
 8002f38:	065f      	lsls	r7, r3, #25
 8002f3a:	bf48      	it	mi
 8002f3c:	b2ad      	uxthmi	r5, r5
 8002f3e:	6031      	str	r1, [r6, #0]
 8002f40:	07d9      	lsls	r1, r3, #31
 8002f42:	bf44      	itt	mi
 8002f44:	f043 0320 	orrmi.w	r3, r3, #32
 8002f48:	6023      	strmi	r3, [r4, #0]
 8002f4a:	b11d      	cbz	r5, 8002f54 <_printf_i+0x19c>
 8002f4c:	2310      	movs	r3, #16
 8002f4e:	e7ad      	b.n	8002eac <_printf_i+0xf4>
 8002f50:	4826      	ldr	r0, [pc, #152]	@ (8002fec <_printf_i+0x234>)
 8002f52:	e7e9      	b.n	8002f28 <_printf_i+0x170>
 8002f54:	6823      	ldr	r3, [r4, #0]
 8002f56:	f023 0320 	bic.w	r3, r3, #32
 8002f5a:	6023      	str	r3, [r4, #0]
 8002f5c:	e7f6      	b.n	8002f4c <_printf_i+0x194>
 8002f5e:	4616      	mov	r6, r2
 8002f60:	e7bd      	b.n	8002ede <_printf_i+0x126>
 8002f62:	6833      	ldr	r3, [r6, #0]
 8002f64:	6825      	ldr	r5, [r4, #0]
 8002f66:	6961      	ldr	r1, [r4, #20]
 8002f68:	1d18      	adds	r0, r3, #4
 8002f6a:	6030      	str	r0, [r6, #0]
 8002f6c:	062e      	lsls	r6, r5, #24
 8002f6e:	681b      	ldr	r3, [r3, #0]
 8002f70:	d501      	bpl.n	8002f76 <_printf_i+0x1be>
 8002f72:	6019      	str	r1, [r3, #0]
 8002f74:	e002      	b.n	8002f7c <_printf_i+0x1c4>
 8002f76:	0668      	lsls	r0, r5, #25
 8002f78:	d5fb      	bpl.n	8002f72 <_printf_i+0x1ba>
 8002f7a:	8019      	strh	r1, [r3, #0]
 8002f7c:	2300      	movs	r3, #0
 8002f7e:	6123      	str	r3, [r4, #16]
 8002f80:	4616      	mov	r6, r2
 8002f82:	e7bc      	b.n	8002efe <_printf_i+0x146>
 8002f84:	6833      	ldr	r3, [r6, #0]
 8002f86:	1d1a      	adds	r2, r3, #4
 8002f88:	6032      	str	r2, [r6, #0]
 8002f8a:	681e      	ldr	r6, [r3, #0]
 8002f8c:	6862      	ldr	r2, [r4, #4]
 8002f8e:	2100      	movs	r1, #0
 8002f90:	4630      	mov	r0, r6
 8002f92:	f7fd f93d 	bl	8000210 <memchr>
 8002f96:	b108      	cbz	r0, 8002f9c <_printf_i+0x1e4>
 8002f98:	1b80      	subs	r0, r0, r6
 8002f9a:	6060      	str	r0, [r4, #4]
 8002f9c:	6863      	ldr	r3, [r4, #4]
 8002f9e:	6123      	str	r3, [r4, #16]
 8002fa0:	2300      	movs	r3, #0
 8002fa2:	f884 3043 	strb.w	r3, [r4, #67]	@ 0x43
 8002fa6:	e7aa      	b.n	8002efe <_printf_i+0x146>
 8002fa8:	6923      	ldr	r3, [r4, #16]
 8002faa:	4632      	mov	r2, r6
 8002fac:	4649      	mov	r1, r9
 8002fae:	4640      	mov	r0, r8
 8002fb0:	47d0      	blx	sl
 8002fb2:	3001      	adds	r0, #1
 8002fb4:	d0ad      	beq.n	8002f12 <_printf_i+0x15a>
 8002fb6:	6823      	ldr	r3, [r4, #0]
 8002fb8:	079b      	lsls	r3, r3, #30
 8002fba:	d413      	bmi.n	8002fe4 <_printf_i+0x22c>
 8002fbc:	68e0      	ldr	r0, [r4, #12]
 8002fbe:	9b03      	ldr	r3, [sp, #12]
 8002fc0:	4298      	cmp	r0, r3
 8002fc2:	bfb8      	it	lt
 8002fc4:	4618      	movlt	r0, r3
 8002fc6:	e7a6      	b.n	8002f16 <_printf_i+0x15e>
 8002fc8:	2301      	movs	r3, #1
 8002fca:	4632      	mov	r2, r6
 8002fcc:	4649      	mov	r1, r9
 8002fce:	4640      	mov	r0, r8
 8002fd0:	47d0      	blx	sl
 8002fd2:	3001      	adds	r0, #1
 8002fd4:	d09d      	beq.n	8002f12 <_printf_i+0x15a>
 8002fd6:	3501      	adds	r5, #1
 8002fd8:	68e3      	ldr	r3, [r4, #12]
 8002fda:	9903      	ldr	r1, [sp, #12]
 8002fdc:	1a5b      	subs	r3, r3, r1
 8002fde:	42ab      	cmp	r3, r5
 8002fe0:	dcf2      	bgt.n	8002fc8 <_printf_i+0x210>
 8002fe2:	e7eb      	b.n	8002fbc <_printf_i+0x204>
 8002fe4:	2500      	movs	r5, #0
 8002fe6:	f104 0619 	add.w	r6, r4, #25
 8002fea:	e7f5      	b.n	8002fd8 <_printf_i+0x220>
 8002fec:	08003487 	.word	0x08003487
 8002ff0:	08003498 	.word	0x08003498

08002ff4 <__sflush_r>:
 8002ff4:	f9b1 200c 	ldrsh.w	r2, [r1, #12]
 8002ff8:	e92d 41f0 	stmdb	sp!, {r4, r5, r6, r7, r8, lr}
 8002ffc:	0716      	lsls	r6, r2, #28
 8002ffe:	4605      	mov	r5, r0
 8003000:	460c      	mov	r4, r1
 8003002:	d454      	bmi.n	80030ae <__sflush_r+0xba>
 8003004:	684b      	ldr	r3, [r1, #4]
 8003006:	2b00      	cmp	r3, #0
 8003008:	dc02      	bgt.n	8003010 <__sflush_r+0x1c>
 800300a:	6c0b      	ldr	r3, [r1, #64]	@ 0x40
 800300c:	2b00      	cmp	r3, #0
 800300e:	dd48      	ble.n	80030a2 <__sflush_r+0xae>
 8003010:	6ae6      	ldr	r6, [r4, #44]	@ 0x2c
 8003012:	2e00      	cmp	r6, #0
 8003014:	d045      	beq.n	80030a2 <__sflush_r+0xae>
 8003016:	2300      	movs	r3, #0
 8003018:	f412 5280 	ands.w	r2, r2, #4096	@ 0x1000
 800301c:	682f      	ldr	r7, [r5, #0]
 800301e:	6a21      	ldr	r1, [r4, #32]
 8003020:	602b      	str	r3, [r5, #0]
 8003022:	d030      	beq.n	8003086 <__sflush_r+0x92>
 8003024:	6d62      	ldr	r2, [r4, #84]	@ 0x54
 8003026:	89a3      	ldrh	r3, [r4, #12]
 8003028:	0759      	lsls	r1, r3, #29
 800302a:	d505      	bpl.n	8003038 <__sflush_r+0x44>
 800302c:	6863      	ldr	r3, [r4, #4]
 800302e:	1ad2      	subs	r2, r2, r3
 8003030:	6b63      	ldr	r3, [r4, #52]	@ 0x34
 8003032:	b10b      	cbz	r3, 8003038 <__sflush_r+0x44>
 8003034:	6c23      	ldr	r3, [r4, #64]	@ 0x40
 8003036:	1ad2      	subs	r2, r2, r3
 8003038:	2300      	movs	r3, #0
 800303a:	6ae6      	ldr	r6, [r4, #44]	@ 0x2c
 800303c:	6a21      	ldr	r1, [r4, #32]
 800303e:	4628      	mov	r0, r5
 8003040:	47b0      	blx	r6
 8003042:	1c43      	adds	r3, r0, #1
 8003044:	89a3      	ldrh	r3, [r4, #12]
 8003046:	d106      	bne.n	8003056 <__sflush_r+0x62>
 8003048:	6829      	ldr	r1, [r5, #0]
 800304a:	291d      	cmp	r1, #29
 800304c:	d82b      	bhi.n	80030a6 <__sflush_r+0xb2>
 800304e:	4a2a      	ldr	r2, [pc, #168]	@ (80030f8 <__sflush_r+0x104>)
 8003050:	40ca      	lsrs	r2, r1
 8003052:	07d6      	lsls	r6, r2, #31
 8003054:	d527      	bpl.n	80030a6 <__sflush_r+0xb2>
 8003056:	2200      	movs	r2, #0
 8003058:	6062      	str	r2, [r4, #4]
 800305a:	04d9      	lsls	r1, r3, #19
 800305c:	6922      	ldr	r2, [r4, #16]
 800305e:	6022      	str	r2, [r4, #0]
 8003060:	d504      	bpl.n	800306c <__sflush_r+0x78>
 8003062:	1c42      	adds	r2, r0, #1
 8003064:	d101      	bne.n	800306a <__sflush_r+0x76>
 8003066:	682b      	ldr	r3, [r5, #0]
 8003068:	b903      	cbnz	r3, 800306c <__sflush_r+0x78>
 800306a:	6560      	str	r0, [r4, #84]	@ 0x54
 800306c:	6b61      	ldr	r1, [r4, #52]	@ 0x34
 800306e:	602f      	str	r7, [r5, #0]
 8003070:	b1b9      	cbz	r1, 80030a2 <__sflush_r+0xae>
 8003072:	f104 0344 	add.w	r3, r4, #68	@ 0x44
 8003076:	4299      	cmp	r1, r3
 8003078:	d002      	beq.n	8003080 <__sflush_r+0x8c>
 800307a:	4628      	mov	r0, r5
 800307c:	f7ff fca2 	bl	80029c4 <_free_r>
 8003080:	2300      	movs	r3, #0
 8003082:	6363      	str	r3, [r4, #52]	@ 0x34
 8003084:	e00d      	b.n	80030a2 <__sflush_r+0xae>
 8003086:	2301      	movs	r3, #1
 8003088:	4628      	mov	r0, r5
 800308a:	47b0      	blx	r6
 800308c:	4602      	mov	r2, r0
 800308e:	1c50      	adds	r0, r2, #1
 8003090:	d1c9      	bne.n	8003026 <__sflush_r+0x32>
 8003092:	682b      	ldr	r3, [r5, #0]
 8003094:	2b00      	cmp	r3, #0
 8003096:	d0c6      	beq.n	8003026 <__sflush_r+0x32>
 8003098:	2b1d      	cmp	r3, #29
 800309a:	d001      	beq.n	80030a0 <__sflush_r+0xac>
 800309c:	2b16      	cmp	r3, #22
 800309e:	d11e      	bne.n	80030de <__sflush_r+0xea>
 80030a0:	602f      	str	r7, [r5, #0]
 80030a2:	2000      	movs	r0, #0
 80030a4:	e022      	b.n	80030ec <__sflush_r+0xf8>
 80030a6:	f043 0340 	orr.w	r3, r3, #64	@ 0x40
 80030aa:	b21b      	sxth	r3, r3
 80030ac:	e01b      	b.n	80030e6 <__sflush_r+0xf2>
 80030ae:	690f      	ldr	r7, [r1, #16]
 80030b0:	2f00      	cmp	r7, #0
 80030b2:	d0f6      	beq.n	80030a2 <__sflush_r+0xae>
 80030b4:	0793      	lsls	r3, r2, #30
 80030b6:	680e      	ldr	r6, [r1, #0]
 80030b8:	bf08      	it	eq
 80030ba:	694b      	ldreq	r3, [r1, #20]
 80030bc:	600f      	str	r7, [r1, #0]
 80030be:	bf18      	it	ne
 80030c0:	2300      	movne	r3, #0
 80030c2:	eba6 0807 	sub.w	r8, r6, r7
 80030c6:	608b      	str	r3, [r1, #8]
 80030c8:	f1b8 0f00 	cmp.w	r8, #0
 80030cc:	dde9      	ble.n	80030a2 <__sflush_r+0xae>
 80030ce:	6a21      	ldr	r1, [r4, #32]
 80030d0:	6aa6      	ldr	r6, [r4, #40]	@ 0x28
 80030d2:	4643      	mov	r3, r8
 80030d4:	463a      	mov	r2, r7
 80030d6:	4628      	mov	r0, r5
 80030d8:	47b0      	blx	r6
 80030da:	2800      	cmp	r0, #0
 80030dc:	dc08      	bgt.n	80030f0 <__sflush_r+0xfc>
 80030de:	f9b4 300c 	ldrsh.w	r3, [r4, #12]
 80030e2:	f043 0340 	orr.w	r3, r3, #64	@ 0x40
 80030e6:	81a3      	strh	r3, [r4, #12]
 80030e8:	f04f 30ff 	mov.w	r0, #4294967295
 80030ec:	e8bd 81f0 	ldmia.w	sp!, {r4, r5, r6, r7, r8, pc}
 80030f0:	4407      	add	r7, r0
 80030f2:	eba8 0800 	sub.w	r8, r8, r0
 80030f6:	e7e7      	b.n	80030c8 <__sflush_r+0xd4>
 80030f8:	20400001 	.word	0x20400001

080030fc <_fflush_r>:
 80030fc:	b538      	push	{r3, r4, r5, lr}
 80030fe:	690b      	ldr	r3, [r1, #16]
 8003100:	4605      	mov	r5, r0
 8003102:	460c      	mov	r4, r1
 8003104:	b913      	cbnz	r3, 800310c <_fflush_r+0x10>
 8003106:	2500      	movs	r5, #0
 8003108:	4628      	mov	r0, r5
 800310a:	bd38      	pop	{r3, r4, r5, pc}
 800310c:	b118      	cbz	r0, 8003116 <_fflush_r+0x1a>
 800310e:	6a03      	ldr	r3, [r0, #32]
 8003110:	b90b      	cbnz	r3, 8003116 <_fflush_r+0x1a>
 8003112:	f7ff fa4d 	bl	80025b0 <__sinit>
 8003116:	f9b4 300c 	ldrsh.w	r3, [r4, #12]
 800311a:	2b00      	cmp	r3, #0
 800311c:	d0f3      	beq.n	8003106 <_fflush_r+0xa>
 800311e:	6e62      	ldr	r2, [r4, #100]	@ 0x64
 8003120:	07d0      	lsls	r0, r2, #31
 8003122:	d404      	bmi.n	800312e <_fflush_r+0x32>
 8003124:	0599      	lsls	r1, r3, #22
 8003126:	d402      	bmi.n	800312e <_fflush_r+0x32>
 8003128:	6da0      	ldr	r0, [r4, #88]	@ 0x58
 800312a:	f7ff fc48 	bl	80029be <__retarget_lock_acquire_recursive>
 800312e:	4628      	mov	r0, r5
 8003130:	4621      	mov	r1, r4
 8003132:	f7ff ff5f 	bl	8002ff4 <__sflush_r>
 8003136:	6e63      	ldr	r3, [r4, #100]	@ 0x64
 8003138:	07da      	lsls	r2, r3, #31
 800313a:	4605      	mov	r5, r0
 800313c:	d4e4      	bmi.n	8003108 <_fflush_r+0xc>
 800313e:	89a3      	ldrh	r3, [r4, #12]
 8003140:	059b      	lsls	r3, r3, #22
 8003142:	d4e1      	bmi.n	8003108 <_fflush_r+0xc>
 8003144:	6da0      	ldr	r0, [r4, #88]	@ 0x58
 8003146:	f7ff fc3b 	bl	80029c0 <__retarget_lock_release_recursive>
 800314a:	e7dd      	b.n	8003108 <_fflush_r+0xc>

0800314c <__swhatbuf_r>:
 800314c:	b570      	push	{r4, r5, r6, lr}
 800314e:	460c      	mov	r4, r1
 8003150:	f9b1 100e 	ldrsh.w	r1, [r1, #14]
 8003154:	2900      	cmp	r1, #0
 8003156:	b096      	sub	sp, #88	@ 0x58
 8003158:	4615      	mov	r5, r2
 800315a:	461e      	mov	r6, r3
 800315c:	da0d      	bge.n	800317a <__swhatbuf_r+0x2e>
 800315e:	89a3      	ldrh	r3, [r4, #12]
 8003160:	f013 0f80 	tst.w	r3, #128	@ 0x80
 8003164:	f04f 0100 	mov.w	r1, #0
 8003168:	bf14      	ite	ne
 800316a:	2340      	movne	r3, #64	@ 0x40
 800316c:	f44f 6380 	moveq.w	r3, #1024	@ 0x400
 8003170:	2000      	movs	r0, #0
 8003172:	6031      	str	r1, [r6, #0]
 8003174:	602b      	str	r3, [r5, #0]
 8003176:	b016      	add	sp, #88	@ 0x58
 8003178:	bd70      	pop	{r4, r5, r6, pc}
 800317a:	466a      	mov	r2, sp
 800317c:	f000 f848 	bl	8003210 <_fstat_r>
 8003180:	2800      	cmp	r0, #0
 8003182:	dbec      	blt.n	800315e <__swhatbuf_r+0x12>
 8003184:	9901      	ldr	r1, [sp, #4]
 8003186:	f401 4170 	and.w	r1, r1, #61440	@ 0xf000
 800318a:	f5a1 5300 	sub.w	r3, r1, #8192	@ 0x2000
 800318e:	4259      	negs	r1, r3
 8003190:	4159      	adcs	r1, r3
 8003192:	f44f 6380 	mov.w	r3, #1024	@ 0x400
 8003196:	e7eb      	b.n	8003170 <__swhatbuf_r+0x24>

08003198 <__smakebuf_r>:
 8003198:	898b      	ldrh	r3, [r1, #12]
 800319a:	b5f7      	push	{r0, r1, r2, r4, r5, r6, r7, lr}
 800319c:	079d      	lsls	r5, r3, #30
 800319e:	4606      	mov	r6, r0
 80031a0:	460c      	mov	r4, r1
 80031a2:	d507      	bpl.n	80031b4 <__smakebuf_r+0x1c>
 80031a4:	f104 0347 	add.w	r3, r4, #71	@ 0x47
 80031a8:	6023      	str	r3, [r4, #0]
 80031aa:	6123      	str	r3, [r4, #16]
 80031ac:	2301      	movs	r3, #1
 80031ae:	6163      	str	r3, [r4, #20]
 80031b0:	b003      	add	sp, #12
 80031b2:	bdf0      	pop	{r4, r5, r6, r7, pc}
 80031b4:	ab01      	add	r3, sp, #4
 80031b6:	466a      	mov	r2, sp
 80031b8:	f7ff ffc8 	bl	800314c <__swhatbuf_r>
 80031bc:	9f00      	ldr	r7, [sp, #0]
 80031be:	4605      	mov	r5, r0
 80031c0:	4639      	mov	r1, r7
 80031c2:	4630      	mov	r0, r6
 80031c4:	f7ff f8dc 	bl	8002380 <_malloc_r>
 80031c8:	b948      	cbnz	r0, 80031de <__smakebuf_r+0x46>
 80031ca:	f9b4 300c 	ldrsh.w	r3, [r4, #12]
 80031ce:	059a      	lsls	r2, r3, #22
 80031d0:	d4ee      	bmi.n	80031b0 <__smakebuf_r+0x18>
 80031d2:	f023 0303 	bic.w	r3, r3, #3
 80031d6:	f043 0302 	orr.w	r3, r3, #2
 80031da:	81a3      	strh	r3, [r4, #12]
 80031dc:	e7e2      	b.n	80031a4 <__smakebuf_r+0xc>
 80031de:	89a3      	ldrh	r3, [r4, #12]
 80031e0:	6020      	str	r0, [r4, #0]
 80031e2:	f043 0380 	orr.w	r3, r3, #128	@ 0x80
 80031e6:	81a3      	strh	r3, [r4, #12]
 80031e8:	9b01      	ldr	r3, [sp, #4]
 80031ea:	e9c4 0704 	strd	r0, r7, [r4, #16]
 80031ee:	b15b      	cbz	r3, 8003208 <__smakebuf_r+0x70>
 80031f0:	f9b4 100e 	ldrsh.w	r1, [r4, #14]
 80031f4:	4630      	mov	r0, r6
 80031f6:	f000 f81d 	bl	8003234 <_isatty_r>
 80031fa:	b128      	cbz	r0, 8003208 <__smakebuf_r+0x70>
 80031fc:	89a3      	ldrh	r3, [r4, #12]
 80031fe:	f023 0303 	bic.w	r3, r3, #3
 8003202:	f043 0301 	orr.w	r3, r3, #1
 8003206:	81a3      	strh	r3, [r4, #12]
 8003208:	89a3      	ldrh	r3, [r4, #12]
 800320a:	431d      	orrs	r5, r3
 800320c:	81a5      	strh	r5, [r4, #12]
 800320e:	e7cf      	b.n	80031b0 <__smakebuf_r+0x18>

08003210 <_fstat_r>:
 8003210:	b538      	push	{r3, r4, r5, lr}
 8003212:	4d07      	ldr	r5, [pc, #28]	@ (8003230 <_fstat_r+0x20>)
 8003214:	2300      	movs	r3, #0
 8003216:	4604      	mov	r4, r0
 8003218:	4608      	mov	r0, r1
 800321a:	4611      	mov	r1, r2
 800321c:	602b      	str	r3, [r5, #0]
 800321e:	f7fd fd13 	bl	8000c48 <_fstat>
 8003222:	1c43      	adds	r3, r0, #1
 8003224:	d102      	bne.n	800322c <_fstat_r+0x1c>
 8003226:	682b      	ldr	r3, [r5, #0]
 8003228:	b103      	cbz	r3, 800322c <_fstat_r+0x1c>
 800322a:	6023      	str	r3, [r4, #0]
 800322c:	bd38      	pop	{r3, r4, r5, pc}
 800322e:	bf00      	nop
 8003230:	2000029c 	.word	0x2000029c

08003234 <_isatty_r>:
 8003234:	b538      	push	{r3, r4, r5, lr}
 8003236:	4d06      	ldr	r5, [pc, #24]	@ (8003250 <_isatty_r+0x1c>)
 8003238:	2300      	movs	r3, #0
 800323a:	4604      	mov	r4, r0
 800323c:	4608      	mov	r0, r1
 800323e:	602b      	str	r3, [r5, #0]
 8003240:	f7fd fd07 	bl	8000c52 <_isatty>
 8003244:	1c43      	adds	r3, r0, #1
 8003246:	d102      	bne.n	800324e <_isatty_r+0x1a>
 8003248:	682b      	ldr	r3, [r5, #0]
 800324a:	b103      	cbz	r3, 800324e <_isatty_r+0x1a>
 800324c:	6023      	str	r3, [r4, #0]
 800324e:	bd38      	pop	{r3, r4, r5, pc}
 8003250:	2000029c 	.word	0x2000029c

08003254 <_init>:
 8003254:	b5f8      	push	{r3, r4, r5, r6, r7, lr}
 8003256:	bf00      	nop
 8003258:	bcf8      	pop	{r3, r4, r5, r6, r7}
 800325a:	bc08      	pop	{r3}
 800325c:	469e      	mov	lr, r3
 800325e:	4770      	bx	lr

08003260 <_fini>:
 8003260:	b5f8      	push	{r3, r4, r5, r6, r7, lr}
 8003262:	bf00      	nop
 8003264:	bcf8      	pop	{r3, r4, r5, r6, r7}
 8003266:	bc08      	pop	{r3}
 8003268:	469e      	mov	lr, r3
 800326a:	4770      	bx	lr
